
kernel/kernel:     file format elf64-littleriscv


Disassembly of section .text:

0000000080000000 <_entry>:
    80000000:	0003f117          	auipc	sp,0x3f
    80000004:	4d010113          	add	sp,sp,1232 # 8003f4d0 <stack0>
    80000008:	6505                	lui	a0,0x1
    8000000a:	f14025f3          	csrr	a1,mhartid
    8000000e:	0585                	add	a1,a1,1
    80000010:	02b50533          	mul	a0,a0,a1
    80000014:	912a                	add	sp,sp,a0
    80000016:	603080ef          	jal	80008e18 <start>

000000008000001a <spin>:
    8000001a:	a001                	j	8000001a <spin>

000000008000001c <kfree>:
// which normally should have been returned by a
// call to kalloc().  (The exception is when
// initializing the allocator; see kinit above.)
void
kfree(void *pa)
{
    8000001c:	1101                	add	sp,sp,-32
    8000001e:	ec06                	sd	ra,24(sp)
    80000020:	e822                	sd	s0,16(sp)
    80000022:	e426                	sd	s1,8(sp)
    80000024:	e04a                	sd	s2,0(sp)
    80000026:	1000                	add	s0,sp,32
  struct run *r;

  if(((uint64)pa % PGSIZE) != 0 || (char*)pa < end || (uint64)pa >= PHYSTOP)
    80000028:	03451793          	sll	a5,a0,0x34
    8000002c:	ebb9                	bnez	a5,80000082 <kfree+0x66>
    8000002e:	84aa                	mv	s1,a0
    80000030:	00047797          	auipc	a5,0x47
    80000034:	5a078793          	add	a5,a5,1440 # 800475d0 <end>
    80000038:	04f56563          	bltu	a0,a5,80000082 <kfree+0x66>
    8000003c:	47c5                	li	a5,17
    8000003e:	07ee                	sll	a5,a5,0x1b
    80000040:	04f57163          	bgeu	a0,a5,80000082 <kfree+0x66>
    panic("kfree");

  // Fill with junk to catch dangling refs.
  memset(pa, 1, PGSIZE);
    80000044:	6605                	lui	a2,0x1
    80000046:	4585                	li	a1,1
    80000048:	00000097          	auipc	ra,0x0
    8000004c:	132080e7          	jalr	306(ra) # 8000017a <memset>

  r = (struct run*)pa;

  acquire(&kmem.lock);
    80000050:	0000c917          	auipc	s2,0xc
    80000054:	00090913          	mv	s2,s2
    80000058:	854a                	mv	a0,s2
    8000005a:	0000a097          	auipc	ra,0xa
    8000005e:	818080e7          	jalr	-2024(ra) # 80009872 <acquire>
  r->next = kmem.freelist;
    80000062:	01893783          	ld	a5,24(s2) # 8000c068 <kmem+0x18>
    80000066:	e09c                	sd	a5,0(s1)
  kmem.freelist = r;
    80000068:	00993c23          	sd	s1,24(s2)
  release(&kmem.lock);
    8000006c:	854a                	mv	a0,s2
    8000006e:	0000a097          	auipc	ra,0xa
    80000072:	8ca080e7          	jalr	-1846(ra) # 80009938 <release>
}
    80000076:	60e2                	ld	ra,24(sp)
    80000078:	6442                	ld	s0,16(sp)
    8000007a:	64a2                	ld	s1,8(sp)
    8000007c:	6902                	ld	s2,0(sp)
    8000007e:	6105                	add	sp,sp,32
    80000080:	8082                	ret
    panic("kfree");
    80000082:	0000b517          	auipc	a0,0xb
    80000086:	f7e50513          	add	a0,a0,-130 # 8000b000 <etext>
    8000008a:	00009097          	auipc	ra,0x9
    8000008e:	24e080e7          	jalr	590(ra) # 800092d8 <panic>

0000000080000092 <freerange>:
{
    80000092:	7179                	add	sp,sp,-48
    80000094:	f406                	sd	ra,40(sp)
    80000096:	f022                	sd	s0,32(sp)
    80000098:	ec26                	sd	s1,24(sp)
    8000009a:	1800                	add	s0,sp,48
  p = (char*)PGROUNDUP((uint64)pa_start);
    8000009c:	6785                	lui	a5,0x1
    8000009e:	fff78713          	add	a4,a5,-1 # fff <_entry-0x7ffff001>
    800000a2:	00e504b3          	add	s1,a0,a4
    800000a6:	777d                	lui	a4,0xfffff
    800000a8:	8cf9                	and	s1,s1,a4
  for(; p + PGSIZE <= (char*)pa_end; p += PGSIZE)
    800000aa:	94be                	add	s1,s1,a5
    800000ac:	0295e463          	bltu	a1,s1,800000d4 <freerange+0x42>
    800000b0:	e84a                	sd	s2,16(sp)
    800000b2:	e44e                	sd	s3,8(sp)
    800000b4:	e052                	sd	s4,0(sp)
    800000b6:	892e                	mv	s2,a1
    kfree(p);
    800000b8:	7a7d                	lui	s4,0xfffff
  for(; p + PGSIZE <= (char*)pa_end; p += PGSIZE)
    800000ba:	6985                	lui	s3,0x1
    kfree(p);
    800000bc:	01448533          	add	a0,s1,s4
    800000c0:	00000097          	auipc	ra,0x0
    800000c4:	f5c080e7          	jalr	-164(ra) # 8000001c <kfree>
  for(; p + PGSIZE <= (char*)pa_end; p += PGSIZE)
    800000c8:	94ce                	add	s1,s1,s3
    800000ca:	fe9979e3          	bgeu	s2,s1,800000bc <freerange+0x2a>
    800000ce:	6942                	ld	s2,16(sp)
    800000d0:	69a2                	ld	s3,8(sp)
    800000d2:	6a02                	ld	s4,0(sp)
}
    800000d4:	70a2                	ld	ra,40(sp)
    800000d6:	7402                	ld	s0,32(sp)
    800000d8:	64e2                	ld	s1,24(sp)
    800000da:	6145                	add	sp,sp,48
    800000dc:	8082                	ret

00000000800000de <kinit>:
{
    800000de:	1141                	add	sp,sp,-16
    800000e0:	e406                	sd	ra,8(sp)
    800000e2:	e022                	sd	s0,0(sp)
    800000e4:	0800                	add	s0,sp,16
  initlock(&kmem.lock, "kmem");
    800000e6:	0000b597          	auipc	a1,0xb
    800000ea:	f2a58593          	add	a1,a1,-214 # 8000b010 <etext+0x10>
    800000ee:	0000c517          	auipc	a0,0xc
    800000f2:	f6250513          	add	a0,a0,-158 # 8000c050 <kmem>
    800000f6:	00009097          	auipc	ra,0x9
    800000fa:	6ec080e7          	jalr	1772(ra) # 800097e2 <initlock>
  freerange(end, (void*)PHYSTOP);
    800000fe:	45c5                	li	a1,17
    80000100:	05ee                	sll	a1,a1,0x1b
    80000102:	00047517          	auipc	a0,0x47
    80000106:	4ce50513          	add	a0,a0,1230 # 800475d0 <end>
    8000010a:	00000097          	auipc	ra,0x0
    8000010e:	f88080e7          	jalr	-120(ra) # 80000092 <freerange>
}
    80000112:	60a2                	ld	ra,8(sp)
    80000114:	6402                	ld	s0,0(sp)
    80000116:	0141                	add	sp,sp,16
    80000118:	8082                	ret

000000008000011a <kalloc>:
// Allocate one 4096-byte page of physical memory.
// Returns a pointer that the kernel can use.
// Returns 0 if the memory cannot be allocated.
void *
kalloc(void)
{
    8000011a:	1101                	add	sp,sp,-32
    8000011c:	ec06                	sd	ra,24(sp)
    8000011e:	e822                	sd	s0,16(sp)
    80000120:	e426                	sd	s1,8(sp)
    80000122:	1000                	add	s0,sp,32
  struct run *r;

  acquire(&kmem.lock);
    80000124:	0000c497          	auipc	s1,0xc
    80000128:	f2c48493          	add	s1,s1,-212 # 8000c050 <kmem>
    8000012c:	8526                	mv	a0,s1
    8000012e:	00009097          	auipc	ra,0x9
    80000132:	744080e7          	jalr	1860(ra) # 80009872 <acquire>
  r = kmem.freelist;
    80000136:	6c84                	ld	s1,24(s1)
  if(r)
    80000138:	c885                	beqz	s1,80000168 <kalloc+0x4e>
    kmem.freelist = r->next;
    8000013a:	609c                	ld	a5,0(s1)
    8000013c:	0000c517          	auipc	a0,0xc
    80000140:	f1450513          	add	a0,a0,-236 # 8000c050 <kmem>
    80000144:	ed1c                	sd	a5,24(a0)
  release(&kmem.lock);
    80000146:	00009097          	auipc	ra,0x9
    8000014a:	7f2080e7          	jalr	2034(ra) # 80009938 <release>

  if(r)
    memset((char*)r, 5, PGSIZE); // fill with junk
    8000014e:	6605                	lui	a2,0x1
    80000150:	4595                	li	a1,5
    80000152:	8526                	mv	a0,s1
    80000154:	00000097          	auipc	ra,0x0
    80000158:	026080e7          	jalr	38(ra) # 8000017a <memset>
  return (void*)r;
}
    8000015c:	8526                	mv	a0,s1
    8000015e:	60e2                	ld	ra,24(sp)
    80000160:	6442                	ld	s0,16(sp)
    80000162:	64a2                	ld	s1,8(sp)
    80000164:	6105                	add	sp,sp,32
    80000166:	8082                	ret
  release(&kmem.lock);
    80000168:	0000c517          	auipc	a0,0xc
    8000016c:	ee850513          	add	a0,a0,-280 # 8000c050 <kmem>
    80000170:	00009097          	auipc	ra,0x9
    80000174:	7c8080e7          	jalr	1992(ra) # 80009938 <release>
  if(r)
    80000178:	b7d5                	j	8000015c <kalloc+0x42>

000000008000017a <memset>:
#include "types.h"

void*
memset(void *dst, int c, uint n)
{
    8000017a:	1141                	add	sp,sp,-16
    8000017c:	e422                	sd	s0,8(sp)
    8000017e:	0800                	add	s0,sp,16
  char *cdst = (char *) dst;
  int i;
  for(i = 0; i < n; i++){
    80000180:	ca19                	beqz	a2,80000196 <memset+0x1c>
    80000182:	87aa                	mv	a5,a0
    80000184:	1602                	sll	a2,a2,0x20
    80000186:	9201                	srl	a2,a2,0x20
    80000188:	00a60733          	add	a4,a2,a0
    cdst[i] = c;
    8000018c:	00b78023          	sb	a1,0(a5)
  for(i = 0; i < n; i++){
    80000190:	0785                	add	a5,a5,1
    80000192:	fee79de3          	bne	a5,a4,8000018c <memset+0x12>
  }
  return dst;
}
    80000196:	6422                	ld	s0,8(sp)
    80000198:	0141                	add	sp,sp,16
    8000019a:	8082                	ret

000000008000019c <memcmp>:

int
memcmp(const void *v1, const void *v2, uint n)
{
    8000019c:	1141                	add	sp,sp,-16
    8000019e:	e422                	sd	s0,8(sp)
    800001a0:	0800                	add	s0,sp,16
  const uchar *s1, *s2;

  s1 = v1;
  s2 = v2;
  while(n-- > 0){
    800001a2:	ca05                	beqz	a2,800001d2 <memcmp+0x36>
    800001a4:	fff6069b          	addw	a3,a2,-1 # fff <_entry-0x7ffff001>
    800001a8:	1682                	sll	a3,a3,0x20
    800001aa:	9281                	srl	a3,a3,0x20
    800001ac:	0685                	add	a3,a3,1
    800001ae:	96aa                	add	a3,a3,a0
    if(*s1 != *s2)
    800001b0:	00054783          	lbu	a5,0(a0)
    800001b4:	0005c703          	lbu	a4,0(a1)
    800001b8:	00e79863          	bne	a5,a4,800001c8 <memcmp+0x2c>
      return *s1 - *s2;
    s1++, s2++;
    800001bc:	0505                	add	a0,a0,1
    800001be:	0585                	add	a1,a1,1
  while(n-- > 0){
    800001c0:	fed518e3          	bne	a0,a3,800001b0 <memcmp+0x14>
  }

  return 0;
    800001c4:	4501                	li	a0,0
    800001c6:	a019                	j	800001cc <memcmp+0x30>
      return *s1 - *s2;
    800001c8:	40e7853b          	subw	a0,a5,a4
}
    800001cc:	6422                	ld	s0,8(sp)
    800001ce:	0141                	add	sp,sp,16
    800001d0:	8082                	ret
  return 0;
    800001d2:	4501                	li	a0,0
    800001d4:	bfe5                	j	800001cc <memcmp+0x30>

00000000800001d6 <memmove>:

void*
memmove(void *dst, const void *src, uint n)
{
    800001d6:	1141                	add	sp,sp,-16
    800001d8:	e422                	sd	s0,8(sp)
    800001da:	0800                	add	s0,sp,16
  const char *s;
  char *d;

  s = src;
  d = dst;
  if(s < d && s + n > d){
    800001dc:	02a5e563          	bltu	a1,a0,80000206 <memmove+0x30>
    s += n;
    d += n;
    while(n-- > 0)
      *--d = *--s;
  } else
    while(n-- > 0)
    800001e0:	fff6069b          	addw	a3,a2,-1
    800001e4:	ce11                	beqz	a2,80000200 <memmove+0x2a>
    800001e6:	1682                	sll	a3,a3,0x20
    800001e8:	9281                	srl	a3,a3,0x20
    800001ea:	0685                	add	a3,a3,1
    800001ec:	96ae                	add	a3,a3,a1
    800001ee:	87aa                	mv	a5,a0
      *d++ = *s++;
    800001f0:	0585                	add	a1,a1,1
    800001f2:	0785                	add	a5,a5,1
    800001f4:	fff5c703          	lbu	a4,-1(a1)
    800001f8:	fee78fa3          	sb	a4,-1(a5)
    while(n-- > 0)
    800001fc:	feb69ae3          	bne	a3,a1,800001f0 <memmove+0x1a>

  return dst;
}
    80000200:	6422                	ld	s0,8(sp)
    80000202:	0141                	add	sp,sp,16
    80000204:	8082                	ret
  if(s < d && s + n > d){
    80000206:	02061713          	sll	a4,a2,0x20
    8000020a:	9301                	srl	a4,a4,0x20
    8000020c:	00e587b3          	add	a5,a1,a4
    80000210:	fcf578e3          	bgeu	a0,a5,800001e0 <memmove+0xa>
    d += n;
    80000214:	972a                	add	a4,a4,a0
    while(n-- > 0)
    80000216:	fff6069b          	addw	a3,a2,-1
    8000021a:	d27d                	beqz	a2,80000200 <memmove+0x2a>
    8000021c:	02069613          	sll	a2,a3,0x20
    80000220:	9201                	srl	a2,a2,0x20
    80000222:	fff64613          	not	a2,a2
    80000226:	963e                	add	a2,a2,a5
      *--d = *--s;
    80000228:	17fd                	add	a5,a5,-1
    8000022a:	177d                	add	a4,a4,-1 # ffffffffffffefff <end+0xffffffff7ffb7a2f>
    8000022c:	0007c683          	lbu	a3,0(a5)
    80000230:	00d70023          	sb	a3,0(a4)
    while(n-- > 0)
    80000234:	fec79ae3          	bne	a5,a2,80000228 <memmove+0x52>
    80000238:	b7e1                	j	80000200 <memmove+0x2a>

000000008000023a <memcpy>:

// memcpy exists to placate GCC.  Use memmove.
void*
memcpy(void *dst, const void *src, uint n)
{
    8000023a:	1141                	add	sp,sp,-16
    8000023c:	e406                	sd	ra,8(sp)
    8000023e:	e022                	sd	s0,0(sp)
    80000240:	0800                	add	s0,sp,16
  return memmove(dst, src, n);
    80000242:	00000097          	auipc	ra,0x0
    80000246:	f94080e7          	jalr	-108(ra) # 800001d6 <memmove>
}
    8000024a:	60a2                	ld	ra,8(sp)
    8000024c:	6402                	ld	s0,0(sp)
    8000024e:	0141                	add	sp,sp,16
    80000250:	8082                	ret

0000000080000252 <strncmp>:

int
strncmp(const char *p, const char *q, uint n)
{
    80000252:	1141                	add	sp,sp,-16
    80000254:	e422                	sd	s0,8(sp)
    80000256:	0800                	add	s0,sp,16
  while(n > 0 && *p && *p == *q)
    80000258:	ce11                	beqz	a2,80000274 <strncmp+0x22>
    8000025a:	00054783          	lbu	a5,0(a0)
    8000025e:	cf89                	beqz	a5,80000278 <strncmp+0x26>
    80000260:	0005c703          	lbu	a4,0(a1)
    80000264:	00f71a63          	bne	a4,a5,80000278 <strncmp+0x26>
    n--, p++, q++;
    80000268:	367d                	addw	a2,a2,-1
    8000026a:	0505                	add	a0,a0,1
    8000026c:	0585                	add	a1,a1,1
  while(n > 0 && *p && *p == *q)
    8000026e:	f675                	bnez	a2,8000025a <strncmp+0x8>
  if(n == 0)
    return 0;
    80000270:	4501                	li	a0,0
    80000272:	a801                	j	80000282 <strncmp+0x30>
    80000274:	4501                	li	a0,0
    80000276:	a031                	j	80000282 <strncmp+0x30>
  return (uchar)*p - (uchar)*q;
    80000278:	00054503          	lbu	a0,0(a0)
    8000027c:	0005c783          	lbu	a5,0(a1)
    80000280:	9d1d                	subw	a0,a0,a5
}
    80000282:	6422                	ld	s0,8(sp)
    80000284:	0141                	add	sp,sp,16
    80000286:	8082                	ret

0000000080000288 <strncpy>:

char*
strncpy(char *s, const char *t, int n)
{
    80000288:	1141                	add	sp,sp,-16
    8000028a:	e422                	sd	s0,8(sp)
    8000028c:	0800                	add	s0,sp,16
  char *os;

  os = s;
  while(n-- > 0 && (*s++ = *t++) != 0)
    8000028e:	87aa                	mv	a5,a0
    80000290:	86b2                	mv	a3,a2
    80000292:	367d                	addw	a2,a2,-1
    80000294:	02d05563          	blez	a3,800002be <strncpy+0x36>
    80000298:	0785                	add	a5,a5,1
    8000029a:	0005c703          	lbu	a4,0(a1)
    8000029e:	fee78fa3          	sb	a4,-1(a5)
    800002a2:	0585                	add	a1,a1,1
    800002a4:	f775                	bnez	a4,80000290 <strncpy+0x8>
    ;
  while(n-- > 0)
    800002a6:	873e                	mv	a4,a5
    800002a8:	9fb5                	addw	a5,a5,a3
    800002aa:	37fd                	addw	a5,a5,-1
    800002ac:	00c05963          	blez	a2,800002be <strncpy+0x36>
    *s++ = 0;
    800002b0:	0705                	add	a4,a4,1
    800002b2:	fe070fa3          	sb	zero,-1(a4)
  while(n-- > 0)
    800002b6:	40e786bb          	subw	a3,a5,a4
    800002ba:	fed04be3          	bgtz	a3,800002b0 <strncpy+0x28>
  return os;
}
    800002be:	6422                	ld	s0,8(sp)
    800002c0:	0141                	add	sp,sp,16
    800002c2:	8082                	ret

00000000800002c4 <safestrcpy>:

// Like strncpy but guaranteed to NUL-terminate.
char*
safestrcpy(char *s, const char *t, int n)
{
    800002c4:	1141                	add	sp,sp,-16
    800002c6:	e422                	sd	s0,8(sp)
    800002c8:	0800                	add	s0,sp,16
  char *os;

  os = s;
  if(n <= 0)
    800002ca:	02c05363          	blez	a2,800002f0 <safestrcpy+0x2c>
    800002ce:	fff6069b          	addw	a3,a2,-1
    800002d2:	1682                	sll	a3,a3,0x20
    800002d4:	9281                	srl	a3,a3,0x20
    800002d6:	96ae                	add	a3,a3,a1
    800002d8:	87aa                	mv	a5,a0
    return os;
  while(--n > 0 && (*s++ = *t++) != 0)
    800002da:	00d58963          	beq	a1,a3,800002ec <safestrcpy+0x28>
    800002de:	0585                	add	a1,a1,1
    800002e0:	0785                	add	a5,a5,1
    800002e2:	fff5c703          	lbu	a4,-1(a1)
    800002e6:	fee78fa3          	sb	a4,-1(a5)
    800002ea:	fb65                	bnez	a4,800002da <safestrcpy+0x16>
    ;
  *s = 0;
    800002ec:	00078023          	sb	zero,0(a5)
  return os;
}
    800002f0:	6422                	ld	s0,8(sp)
    800002f2:	0141                	add	sp,sp,16
    800002f4:	8082                	ret

00000000800002f6 <strlen>:

int
strlen(const char *s)
{
    800002f6:	1141                	add	sp,sp,-16
    800002f8:	e422                	sd	s0,8(sp)
    800002fa:	0800                	add	s0,sp,16
  int n;

  for(n = 0; s[n]; n++)
    800002fc:	00054783          	lbu	a5,0(a0)
    80000300:	cf91                	beqz	a5,8000031c <strlen+0x26>
    80000302:	0505                	add	a0,a0,1
    80000304:	87aa                	mv	a5,a0
    80000306:	86be                	mv	a3,a5
    80000308:	0785                	add	a5,a5,1
    8000030a:	fff7c703          	lbu	a4,-1(a5)
    8000030e:	ff65                	bnez	a4,80000306 <strlen+0x10>
    80000310:	40a6853b          	subw	a0,a3,a0
    80000314:	2505                	addw	a0,a0,1
    ;
  return n;
}
    80000316:	6422                	ld	s0,8(sp)
    80000318:	0141                	add	sp,sp,16
    8000031a:	8082                	ret
  for(n = 0; s[n]; n++)
    8000031c:	4501                	li	a0,0
    8000031e:	bfe5                	j	80000316 <strlen+0x20>

0000000080000320 <hello>:


int cnt = 0;
void*
hello(void *arg)
{
    80000320:	1141                	add	sp,sp,-16
    80000322:	e406                	sd	ra,8(sp)
    80000324:	e022                	sd	s0,0(sp)
    80000326:	0800                	add	s0,sp,16
  printf("hhhhh hello!!! in timer!!!\n");
    80000328:	0000b517          	auipc	a0,0xb
    8000032c:	cf050513          	add	a0,a0,-784 # 8000b018 <etext+0x18>
    80000330:	00009097          	auipc	ra,0x9
    80000334:	ff2080e7          	jalr	-14(ra) # 80009322 <printf>
  if (++cnt < 5)
    80000338:	0000c717          	auipc	a4,0xc
    8000033c:	cc870713          	add	a4,a4,-824 # 8000c000 <cnt>
    80000340:	431c                	lw	a5,0(a4)
    80000342:	2785                	addw	a5,a5,1
    80000344:	0007869b          	sext.w	a3,a5
    80000348:	c31c                	sw	a5,0(a4)
    8000034a:	4791                	li	a5,4
    8000034c:	00d7d763          	bge	a5,a3,8000035a <hello+0x3a>
    timer_add_in_handler(10, hello, NULL);
  return NULL;
}
    80000350:	4501                	li	a0,0
    80000352:	60a2                	ld	ra,8(sp)
    80000354:	6402                	ld	s0,0(sp)
    80000356:	0141                	add	sp,sp,16
    80000358:	8082                	ret
    timer_add_in_handler(10, hello, NULL);
    8000035a:	4601                	li	a2,0
    8000035c:	00000597          	auipc	a1,0x0
    80000360:	fc458593          	add	a1,a1,-60 # 80000320 <hello>
    80000364:	4529                	li	a0,10
    80000366:	00009097          	auipc	ra,0x9
    8000036a:	8d8080e7          	jalr	-1832(ra) # 80008c3e <timer_add_in_handler>
    8000036e:	b7cd                	j	80000350 <hello+0x30>

0000000080000370 <main>:

// start() jumps here in supervisor mode on all CPUs.
void
main()
{
    80000370:	1101                	add	sp,sp,-32
    80000372:	ec06                	sd	ra,24(sp)
    80000374:	e822                	sd	s0,16(sp)
    80000376:	e426                	sd	s1,8(sp)
    80000378:	1000                	add	s0,sp,32
  if(cpuid() == 0){
    8000037a:	00001097          	auipc	ra,0x1
    8000037e:	ba0080e7          	jalr	-1120(ra) # 80000f1a <cpuid>
    userinit();      // first user process
    // timer_add(10, hello, NULL);
    __sync_synchronize();
    started = 1;
  } else {
    while(lockfree_read4((int *) &started) == 0)
    80000382:	0000c497          	auipc	s1,0xc
    80000386:	c8248493          	add	s1,s1,-894 # 8000c004 <started>
  if(cpuid() == 0){
    8000038a:	c531                	beqz	a0,800003d6 <main+0x66>
    while(lockfree_read4((int *) &started) == 0)
    8000038c:	8526                	mv	a0,s1
    8000038e:	00009097          	auipc	ra,0x9
    80000392:	61a080e7          	jalr	1562(ra) # 800099a8 <lockfree_read4>
    80000396:	d97d                	beqz	a0,8000038c <main+0x1c>
      ;
    __sync_synchronize();
    80000398:	0ff0000f          	fence
    printf("hart %d starting\n", cpuid());
    8000039c:	00001097          	auipc	ra,0x1
    800003a0:	b7e080e7          	jalr	-1154(ra) # 80000f1a <cpuid>
    800003a4:	85aa                	mv	a1,a0
    800003a6:	0000b517          	auipc	a0,0xb
    800003aa:	cb250513          	add	a0,a0,-846 # 8000b058 <etext+0x58>
    800003ae:	00009097          	auipc	ra,0x9
    800003b2:	f74080e7          	jalr	-140(ra) # 80009322 <printf>
    kvminithart();    // turn on paging
    800003b6:	00000097          	auipc	ra,0x0
    800003ba:	0f0080e7          	jalr	240(ra) # 800004a6 <kvminithart>
    trapinithart();   // install kernel trap vector
    800003be:	00001097          	auipc	ra,0x1
    800003c2:	7e8080e7          	jalr	2024(ra) # 80001ba6 <trapinithart>
    plicinithart();   // ask PLIC for device interrupts
    800003c6:	00005097          	auipc	ra,0x5
    800003ca:	372080e7          	jalr	882(ra) # 80005738 <plicinithart>
  }

  scheduler();        
    800003ce:	00001097          	auipc	ra,0x1
    800003d2:	0b2080e7          	jalr	178(ra) # 80001480 <scheduler>
    timer_init();
    800003d6:	00008097          	auipc	ra,0x8
    800003da:	794080e7          	jalr	1940(ra) # 80008b6a <timer_init>
    consoleinit();
    800003de:	00009097          	auipc	ra,0x9
    800003e2:	e0a080e7          	jalr	-502(ra) # 800091e8 <consoleinit>
    printfinit();
    800003e6:	00009097          	auipc	ra,0x9
    800003ea:	164080e7          	jalr	356(ra) # 8000954a <printfinit>
    printf("\n");
    800003ee:	0000b517          	auipc	a0,0xb
    800003f2:	c4a50513          	add	a0,a0,-950 # 8000b038 <etext+0x38>
    800003f6:	00009097          	auipc	ra,0x9
    800003fa:	f2c080e7          	jalr	-212(ra) # 80009322 <printf>
    printf("xv6 kernel is booting\n");
    800003fe:	0000b517          	auipc	a0,0xb
    80000402:	c4250513          	add	a0,a0,-958 # 8000b040 <etext+0x40>
    80000406:	00009097          	auipc	ra,0x9
    8000040a:	f1c080e7          	jalr	-228(ra) # 80009322 <printf>
    printf("\n");
    8000040e:	0000b517          	auipc	a0,0xb
    80000412:	c2a50513          	add	a0,a0,-982 # 8000b038 <etext+0x38>
    80000416:	00009097          	auipc	ra,0x9
    8000041a:	f0c080e7          	jalr	-244(ra) # 80009322 <printf>
    kinit();         // physical page allocator
    8000041e:	00000097          	auipc	ra,0x0
    80000422:	cc0080e7          	jalr	-832(ra) # 800000de <kinit>
    kvminit();       // create kernel page table
    80000426:	00000097          	auipc	ra,0x0
    8000042a:	350080e7          	jalr	848(ra) # 80000776 <kvminit>
    kvminithart();   // turn on paging
    8000042e:	00000097          	auipc	ra,0x0
    80000432:	078080e7          	jalr	120(ra) # 800004a6 <kvminithart>
    procinit();      // process table
    80000436:	00001097          	auipc	ra,0x1
    8000043a:	a44080e7          	jalr	-1468(ra) # 80000e7a <procinit>
    trapinit();      // trap vectors
    8000043e:	00001097          	auipc	ra,0x1
    80000442:	740080e7          	jalr	1856(ra) # 80001b7e <trapinit>
    trapinithart();  // install kernel trap vector
    80000446:	00001097          	auipc	ra,0x1
    8000044a:	760080e7          	jalr	1888(ra) # 80001ba6 <trapinithart>
    plicinit();      // set up interrupt controller
    8000044e:	00005097          	auipc	ra,0x5
    80000452:	2bc080e7          	jalr	700(ra) # 8000570a <plicinit>
    plicinithart();  // ask PLIC for device interrupts
    80000456:	00005097          	auipc	ra,0x5
    8000045a:	2e2080e7          	jalr	738(ra) # 80005738 <plicinithart>
    binit();         // buffer cache
    8000045e:	00002097          	auipc	ra,0x2
    80000462:	ee2080e7          	jalr	-286(ra) # 80002340 <binit>
    iinit();         // inode cache
    80000466:	00002097          	auipc	ra,0x2
    8000046a:	56e080e7          	jalr	1390(ra) # 800029d4 <iinit>
    fileinit();      // file table
    8000046e:	00003097          	auipc	ra,0x3
    80000472:	51a080e7          	jalr	1306(ra) # 80003988 <fileinit>
    virtio_disk_init(); // emulated hard disk
    80000476:	00005097          	auipc	ra,0x5
    8000047a:	3e8080e7          	jalr	1000(ra) # 8000585e <virtio_disk_init>
    pci_init();
    8000047e:	00006097          	auipc	ra,0x6
    80000482:	6e2080e7          	jalr	1762(ra) # 80006b60 <pci_init>
    sockinit();
    80000486:	00006097          	auipc	ra,0x6
    8000048a:	29e080e7          	jalr	670(ra) # 80006724 <sockinit>
    userinit();      // first user process
    8000048e:	00001097          	auipc	ra,0x1
    80000492:	d82080e7          	jalr	-638(ra) # 80001210 <userinit>
    __sync_synchronize();
    80000496:	0ff0000f          	fence
    started = 1;
    8000049a:	4785                	li	a5,1
    8000049c:	0000c717          	auipc	a4,0xc
    800004a0:	b6f72423          	sw	a5,-1176(a4) # 8000c004 <started>
    800004a4:	b72d                	j	800003ce <main+0x5e>

00000000800004a6 <kvminithart>:

// Switch h/w page table register to the kernel's page table,
// and enable paging.
void
kvminithart()
{
    800004a6:	1141                	add	sp,sp,-16
    800004a8:	e422                	sd	s0,8(sp)
    800004aa:	0800                	add	s0,sp,16
  w_satp(MAKE_SATP(kernel_pagetable));
    800004ac:	0000c797          	auipc	a5,0xc
    800004b0:	b5c7b783          	ld	a5,-1188(a5) # 8000c008 <kernel_pagetable>
    800004b4:	83b1                	srl	a5,a5,0xc
    800004b6:	577d                	li	a4,-1
    800004b8:	177e                	sll	a4,a4,0x3f
    800004ba:	8fd9                	or	a5,a5,a4
// supervisor address translation and protection;
// holds the address of the page table.
static inline void 
w_satp(uint64 x)
{
  asm volatile("csrw satp, %0" : : "r" (x));
    800004bc:	18079073          	csrw	satp,a5
// flush the TLB.
static inline void
sfence_vma()
{
  // the zero, zero means flush all TLB entries.
  asm volatile("sfence.vma zero, zero");
    800004c0:	12000073          	sfence.vma
  sfence_vma();
}
    800004c4:	6422                	ld	s0,8(sp)
    800004c6:	0141                	add	sp,sp,16
    800004c8:	8082                	ret

00000000800004ca <walk>:
//   21..29 -- 9 bits of level-1 index.
//   12..20 -- 9 bits of level-0 index.
//    0..11 -- 12 bits of byte offset within the page.
pte_t *
walk(pagetable_t pagetable, uint64 va, int alloc)
{
    800004ca:	7139                	add	sp,sp,-64
    800004cc:	fc06                	sd	ra,56(sp)
    800004ce:	f822                	sd	s0,48(sp)
    800004d0:	f426                	sd	s1,40(sp)
    800004d2:	f04a                	sd	s2,32(sp)
    800004d4:	ec4e                	sd	s3,24(sp)
    800004d6:	e852                	sd	s4,16(sp)
    800004d8:	e456                	sd	s5,8(sp)
    800004da:	e05a                	sd	s6,0(sp)
    800004dc:	0080                	add	s0,sp,64
    800004de:	84aa                	mv	s1,a0
    800004e0:	89ae                	mv	s3,a1
    800004e2:	8ab2                	mv	s5,a2
  if(va >= MAXVA)
    800004e4:	57fd                	li	a5,-1
    800004e6:	83e9                	srl	a5,a5,0x1a
    800004e8:	4a79                	li	s4,30
    panic("walk");

  for(int level = 2; level > 0; level--) {
    800004ea:	4b31                	li	s6,12
  if(va >= MAXVA)
    800004ec:	04b7f263          	bgeu	a5,a1,80000530 <walk+0x66>
    panic("walk");
    800004f0:	0000b517          	auipc	a0,0xb
    800004f4:	b8050513          	add	a0,a0,-1152 # 8000b070 <etext+0x70>
    800004f8:	00009097          	auipc	ra,0x9
    800004fc:	de0080e7          	jalr	-544(ra) # 800092d8 <panic>
    pte_t *pte = &pagetable[PX(level, va)];
    if(*pte & PTE_V) {
      pagetable = (pagetable_t)PTE2PA(*pte);
    } else {
      if(!alloc || (pagetable = (pde_t*)kalloc()) == 0)
    80000500:	060a8663          	beqz	s5,8000056c <walk+0xa2>
    80000504:	00000097          	auipc	ra,0x0
    80000508:	c16080e7          	jalr	-1002(ra) # 8000011a <kalloc>
    8000050c:	84aa                	mv	s1,a0
    8000050e:	c529                	beqz	a0,80000558 <walk+0x8e>
        return 0;
      memset(pagetable, 0, PGSIZE);
    80000510:	6605                	lui	a2,0x1
    80000512:	4581                	li	a1,0
    80000514:	00000097          	auipc	ra,0x0
    80000518:	c66080e7          	jalr	-922(ra) # 8000017a <memset>
      *pte = PA2PTE(pagetable) | PTE_V;
    8000051c:	00c4d793          	srl	a5,s1,0xc
    80000520:	07aa                	sll	a5,a5,0xa
    80000522:	0017e793          	or	a5,a5,1
    80000526:	00f93023          	sd	a5,0(s2)
  for(int level = 2; level > 0; level--) {
    8000052a:	3a5d                	addw	s4,s4,-9 # ffffffffffffeff7 <end+0xffffffff7ffb7a27>
    8000052c:	036a0063          	beq	s4,s6,8000054c <walk+0x82>
    pte_t *pte = &pagetable[PX(level, va)];
    80000530:	0149d933          	srl	s2,s3,s4
    80000534:	1ff97913          	and	s2,s2,511
    80000538:	090e                	sll	s2,s2,0x3
    8000053a:	9926                	add	s2,s2,s1
    if(*pte & PTE_V) {
    8000053c:	00093483          	ld	s1,0(s2)
    80000540:	0014f793          	and	a5,s1,1
    80000544:	dfd5                	beqz	a5,80000500 <walk+0x36>
      pagetable = (pagetable_t)PTE2PA(*pte);
    80000546:	80a9                	srl	s1,s1,0xa
    80000548:	04b2                	sll	s1,s1,0xc
    8000054a:	b7c5                	j	8000052a <walk+0x60>
    }
  }
  return &pagetable[PX(0, va)];
    8000054c:	00c9d513          	srl	a0,s3,0xc
    80000550:	1ff57513          	and	a0,a0,511
    80000554:	050e                	sll	a0,a0,0x3
    80000556:	9526                	add	a0,a0,s1
}
    80000558:	70e2                	ld	ra,56(sp)
    8000055a:	7442                	ld	s0,48(sp)
    8000055c:	74a2                	ld	s1,40(sp)
    8000055e:	7902                	ld	s2,32(sp)
    80000560:	69e2                	ld	s3,24(sp)
    80000562:	6a42                	ld	s4,16(sp)
    80000564:	6aa2                	ld	s5,8(sp)
    80000566:	6b02                	ld	s6,0(sp)
    80000568:	6121                	add	sp,sp,64
    8000056a:	8082                	ret
        return 0;
    8000056c:	4501                	li	a0,0
    8000056e:	b7ed                	j	80000558 <walk+0x8e>

0000000080000570 <walkaddr>:
walkaddr(pagetable_t pagetable, uint64 va)
{
  pte_t *pte;
  uint64 pa;

  if(va >= MAXVA)
    80000570:	57fd                	li	a5,-1
    80000572:	83e9                	srl	a5,a5,0x1a
    80000574:	00b7f463          	bgeu	a5,a1,8000057c <walkaddr+0xc>
    return 0;
    80000578:	4501                	li	a0,0
    return 0;
  if((*pte & PTE_U) == 0)
    return 0;
  pa = PTE2PA(*pte);
  return pa;
}
    8000057a:	8082                	ret
{
    8000057c:	1141                	add	sp,sp,-16
    8000057e:	e406                	sd	ra,8(sp)
    80000580:	e022                	sd	s0,0(sp)
    80000582:	0800                	add	s0,sp,16
  pte = walk(pagetable, va, 0);
    80000584:	4601                	li	a2,0
    80000586:	00000097          	auipc	ra,0x0
    8000058a:	f44080e7          	jalr	-188(ra) # 800004ca <walk>
  if(pte == 0)
    8000058e:	c105                	beqz	a0,800005ae <walkaddr+0x3e>
  if((*pte & PTE_V) == 0)
    80000590:	611c                	ld	a5,0(a0)
  if((*pte & PTE_U) == 0)
    80000592:	0117f693          	and	a3,a5,17
    80000596:	4745                	li	a4,17
    return 0;
    80000598:	4501                	li	a0,0
  if((*pte & PTE_U) == 0)
    8000059a:	00e68663          	beq	a3,a4,800005a6 <walkaddr+0x36>
}
    8000059e:	60a2                	ld	ra,8(sp)
    800005a0:	6402                	ld	s0,0(sp)
    800005a2:	0141                	add	sp,sp,16
    800005a4:	8082                	ret
  pa = PTE2PA(*pte);
    800005a6:	83a9                	srl	a5,a5,0xa
    800005a8:	00c79513          	sll	a0,a5,0xc
  return pa;
    800005ac:	bfcd                	j	8000059e <walkaddr+0x2e>
    return 0;
    800005ae:	4501                	li	a0,0
    800005b0:	b7fd                	j	8000059e <walkaddr+0x2e>

00000000800005b2 <mappages>:
// physical addresses starting at pa. va and size might not
// be page-aligned. Returns 0 on success, -1 if walk() couldn't
// allocate a needed page-table page.
int
mappages(pagetable_t pagetable, uint64 va, uint64 size, uint64 pa, int perm)
{
    800005b2:	715d                	add	sp,sp,-80
    800005b4:	e486                	sd	ra,72(sp)
    800005b6:	e0a2                	sd	s0,64(sp)
    800005b8:	fc26                	sd	s1,56(sp)
    800005ba:	f84a                	sd	s2,48(sp)
    800005bc:	f44e                	sd	s3,40(sp)
    800005be:	f052                	sd	s4,32(sp)
    800005c0:	ec56                	sd	s5,24(sp)
    800005c2:	e85a                	sd	s6,16(sp)
    800005c4:	e45e                	sd	s7,8(sp)
    800005c6:	0880                	add	s0,sp,80
    800005c8:	8aaa                	mv	s5,a0
    800005ca:	8b3a                	mv	s6,a4
  uint64 a, last;
  pte_t *pte;

  a = PGROUNDDOWN(va);
    800005cc:	777d                	lui	a4,0xfffff
    800005ce:	00e5f7b3          	and	a5,a1,a4
  last = PGROUNDDOWN(va + size - 1);
    800005d2:	fff60993          	add	s3,a2,-1 # fff <_entry-0x7ffff001>
    800005d6:	99ae                	add	s3,s3,a1
    800005d8:	00e9f9b3          	and	s3,s3,a4
  a = PGROUNDDOWN(va);
    800005dc:	893e                	mv	s2,a5
    800005de:	40f68a33          	sub	s4,a3,a5
    if(*pte & PTE_V)
      panic("remap");
    *pte = PA2PTE(pa) | perm | PTE_V;
    if(a == last)
      break;
    a += PGSIZE;
    800005e2:	6b85                	lui	s7,0x1
    800005e4:	014904b3          	add	s1,s2,s4
    if((pte = walk(pagetable, a, 1)) == 0)
    800005e8:	4605                	li	a2,1
    800005ea:	85ca                	mv	a1,s2
    800005ec:	8556                	mv	a0,s5
    800005ee:	00000097          	auipc	ra,0x0
    800005f2:	edc080e7          	jalr	-292(ra) # 800004ca <walk>
    800005f6:	c51d                	beqz	a0,80000624 <mappages+0x72>
    if(*pte & PTE_V)
    800005f8:	611c                	ld	a5,0(a0)
    800005fa:	8b85                	and	a5,a5,1
    800005fc:	ef81                	bnez	a5,80000614 <mappages+0x62>
    *pte = PA2PTE(pa) | perm | PTE_V;
    800005fe:	80b1                	srl	s1,s1,0xc
    80000600:	04aa                	sll	s1,s1,0xa
    80000602:	0164e4b3          	or	s1,s1,s6
    80000606:	0014e493          	or	s1,s1,1
    8000060a:	e104                	sd	s1,0(a0)
    if(a == last)
    8000060c:	03390863          	beq	s2,s3,8000063c <mappages+0x8a>
    a += PGSIZE;
    80000610:	995e                	add	s2,s2,s7
    if((pte = walk(pagetable, a, 1)) == 0)
    80000612:	bfc9                	j	800005e4 <mappages+0x32>
      panic("remap");
    80000614:	0000b517          	auipc	a0,0xb
    80000618:	a6450513          	add	a0,a0,-1436 # 8000b078 <etext+0x78>
    8000061c:	00009097          	auipc	ra,0x9
    80000620:	cbc080e7          	jalr	-836(ra) # 800092d8 <panic>
      return -1;
    80000624:	557d                	li	a0,-1
    pa += PGSIZE;
  }
  return 0;
}
    80000626:	60a6                	ld	ra,72(sp)
    80000628:	6406                	ld	s0,64(sp)
    8000062a:	74e2                	ld	s1,56(sp)
    8000062c:	7942                	ld	s2,48(sp)
    8000062e:	79a2                	ld	s3,40(sp)
    80000630:	7a02                	ld	s4,32(sp)
    80000632:	6ae2                	ld	s5,24(sp)
    80000634:	6b42                	ld	s6,16(sp)
    80000636:	6ba2                	ld	s7,8(sp)
    80000638:	6161                	add	sp,sp,80
    8000063a:	8082                	ret
  return 0;
    8000063c:	4501                	li	a0,0
    8000063e:	b7e5                	j	80000626 <mappages+0x74>

0000000080000640 <kvmmap>:
{
    80000640:	1141                	add	sp,sp,-16
    80000642:	e406                	sd	ra,8(sp)
    80000644:	e022                	sd	s0,0(sp)
    80000646:	0800                	add	s0,sp,16
    80000648:	87b6                	mv	a5,a3
  if(mappages(kpgtbl, va, sz, pa, perm) != 0)
    8000064a:	86b2                	mv	a3,a2
    8000064c:	863e                	mv	a2,a5
    8000064e:	00000097          	auipc	ra,0x0
    80000652:	f64080e7          	jalr	-156(ra) # 800005b2 <mappages>
    80000656:	e509                	bnez	a0,80000660 <kvmmap+0x20>
}
    80000658:	60a2                	ld	ra,8(sp)
    8000065a:	6402                	ld	s0,0(sp)
    8000065c:	0141                	add	sp,sp,16
    8000065e:	8082                	ret
    panic("kvmmap");
    80000660:	0000b517          	auipc	a0,0xb
    80000664:	a2050513          	add	a0,a0,-1504 # 8000b080 <etext+0x80>
    80000668:	00009097          	auipc	ra,0x9
    8000066c:	c70080e7          	jalr	-912(ra) # 800092d8 <panic>

0000000080000670 <kvmmake>:
{
    80000670:	1101                	add	sp,sp,-32
    80000672:	ec06                	sd	ra,24(sp)
    80000674:	e822                	sd	s0,16(sp)
    80000676:	e426                	sd	s1,8(sp)
    80000678:	e04a                	sd	s2,0(sp)
    8000067a:	1000                	add	s0,sp,32
  kpgtbl = (pagetable_t) kalloc();
    8000067c:	00000097          	auipc	ra,0x0
    80000680:	a9e080e7          	jalr	-1378(ra) # 8000011a <kalloc>
    80000684:	84aa                	mv	s1,a0
  memset(kpgtbl, 0, PGSIZE);
    80000686:	6605                	lui	a2,0x1
    80000688:	4581                	li	a1,0
    8000068a:	00000097          	auipc	ra,0x0
    8000068e:	af0080e7          	jalr	-1296(ra) # 8000017a <memset>
  kvmmap(kpgtbl, UART0, UART0, PGSIZE, PTE_R | PTE_W);
    80000692:	4719                	li	a4,6
    80000694:	6685                	lui	a3,0x1
    80000696:	10000637          	lui	a2,0x10000
    8000069a:	100005b7          	lui	a1,0x10000
    8000069e:	8526                	mv	a0,s1
    800006a0:	00000097          	auipc	ra,0x0
    800006a4:	fa0080e7          	jalr	-96(ra) # 80000640 <kvmmap>
  kvmmap(kpgtbl, VIRTIO0, VIRTIO0, PGSIZE, PTE_R | PTE_W);
    800006a8:	4719                	li	a4,6
    800006aa:	6685                	lui	a3,0x1
    800006ac:	10001637          	lui	a2,0x10001
    800006b0:	100015b7          	lui	a1,0x10001
    800006b4:	8526                	mv	a0,s1
    800006b6:	00000097          	auipc	ra,0x0
    800006ba:	f8a080e7          	jalr	-118(ra) # 80000640 <kvmmap>
  kvmmap(kpgtbl, 0x30000000L, 0x30000000L, 0x10000000, PTE_R | PTE_W);
    800006be:	4719                	li	a4,6
    800006c0:	100006b7          	lui	a3,0x10000
    800006c4:	30000637          	lui	a2,0x30000
    800006c8:	300005b7          	lui	a1,0x30000
    800006cc:	8526                	mv	a0,s1
    800006ce:	00000097          	auipc	ra,0x0
    800006d2:	f72080e7          	jalr	-142(ra) # 80000640 <kvmmap>
  kvmmap(kpgtbl, 0x40000000L, 0x40000000L, 0x20000, PTE_R | PTE_W);
    800006d6:	4719                	li	a4,6
    800006d8:	000206b7          	lui	a3,0x20
    800006dc:	40000637          	lui	a2,0x40000
    800006e0:	400005b7          	lui	a1,0x40000
    800006e4:	8526                	mv	a0,s1
    800006e6:	00000097          	auipc	ra,0x0
    800006ea:	f5a080e7          	jalr	-166(ra) # 80000640 <kvmmap>
  kvmmap(kpgtbl, PLIC, PLIC, 0x400000, PTE_R | PTE_W);
    800006ee:	4719                	li	a4,6
    800006f0:	004006b7          	lui	a3,0x400
    800006f4:	0c000637          	lui	a2,0xc000
    800006f8:	0c0005b7          	lui	a1,0xc000
    800006fc:	8526                	mv	a0,s1
    800006fe:	00000097          	auipc	ra,0x0
    80000702:	f42080e7          	jalr	-190(ra) # 80000640 <kvmmap>
  kvmmap(kpgtbl, KERNBASE, KERNBASE, (uint64)etext-KERNBASE, PTE_R | PTE_X);
    80000706:	0000b917          	auipc	s2,0xb
    8000070a:	8fa90913          	add	s2,s2,-1798 # 8000b000 <etext>
    8000070e:	4729                	li	a4,10
    80000710:	8000b697          	auipc	a3,0x8000b
    80000714:	8f068693          	add	a3,a3,-1808 # b000 <_entry-0x7fff5000>
    80000718:	4605                	li	a2,1
    8000071a:	067e                	sll	a2,a2,0x1f
    8000071c:	85b2                	mv	a1,a2
    8000071e:	8526                	mv	a0,s1
    80000720:	00000097          	auipc	ra,0x0
    80000724:	f20080e7          	jalr	-224(ra) # 80000640 <kvmmap>
  kvmmap(kpgtbl, (uint64)etext, (uint64)etext, PHYSTOP-(uint64)etext, PTE_R | PTE_W);
    80000728:	46c5                	li	a3,17
    8000072a:	06ee                	sll	a3,a3,0x1b
    8000072c:	4719                	li	a4,6
    8000072e:	412686b3          	sub	a3,a3,s2
    80000732:	864a                	mv	a2,s2
    80000734:	85ca                	mv	a1,s2
    80000736:	8526                	mv	a0,s1
    80000738:	00000097          	auipc	ra,0x0
    8000073c:	f08080e7          	jalr	-248(ra) # 80000640 <kvmmap>
  kvmmap(kpgtbl, TRAMPOLINE, (uint64)trampoline, PGSIZE, PTE_R | PTE_X);
    80000740:	4729                	li	a4,10
    80000742:	6685                	lui	a3,0x1
    80000744:	0000a617          	auipc	a2,0xa
    80000748:	8bc60613          	add	a2,a2,-1860 # 8000a000 <_trampoline>
    8000074c:	040005b7          	lui	a1,0x4000
    80000750:	15fd                	add	a1,a1,-1 # 3ffffff <_entry-0x7c000001>
    80000752:	05b2                	sll	a1,a1,0xc
    80000754:	8526                	mv	a0,s1
    80000756:	00000097          	auipc	ra,0x0
    8000075a:	eea080e7          	jalr	-278(ra) # 80000640 <kvmmap>
  proc_mapstacks(kpgtbl);
    8000075e:	8526                	mv	a0,s1
    80000760:	00000097          	auipc	ra,0x0
    80000764:	67c080e7          	jalr	1660(ra) # 80000ddc <proc_mapstacks>
}
    80000768:	8526                	mv	a0,s1
    8000076a:	60e2                	ld	ra,24(sp)
    8000076c:	6442                	ld	s0,16(sp)
    8000076e:	64a2                	ld	s1,8(sp)
    80000770:	6902                	ld	s2,0(sp)
    80000772:	6105                	add	sp,sp,32
    80000774:	8082                	ret

0000000080000776 <kvminit>:
{
    80000776:	1141                	add	sp,sp,-16
    80000778:	e406                	sd	ra,8(sp)
    8000077a:	e022                	sd	s0,0(sp)
    8000077c:	0800                	add	s0,sp,16
  kernel_pagetable = kvmmake();
    8000077e:	00000097          	auipc	ra,0x0
    80000782:	ef2080e7          	jalr	-270(ra) # 80000670 <kvmmake>
    80000786:	0000c797          	auipc	a5,0xc
    8000078a:	88a7b123          	sd	a0,-1918(a5) # 8000c008 <kernel_pagetable>
}
    8000078e:	60a2                	ld	ra,8(sp)
    80000790:	6402                	ld	s0,0(sp)
    80000792:	0141                	add	sp,sp,16
    80000794:	8082                	ret

0000000080000796 <uvmunmap>:
// Remove npages of mappings starting from va. va must be
// page-aligned. The mappings must exist.
// Optionally free the physical memory.
void
uvmunmap(pagetable_t pagetable, uint64 va, uint64 npages, int do_free)
{
    80000796:	715d                	add	sp,sp,-80
    80000798:	e486                	sd	ra,72(sp)
    8000079a:	e0a2                	sd	s0,64(sp)
    8000079c:	0880                	add	s0,sp,80
  uint64 a;
  pte_t *pte;

  if((va % PGSIZE) != 0)
    8000079e:	03459793          	sll	a5,a1,0x34
    800007a2:	e39d                	bnez	a5,800007c8 <uvmunmap+0x32>
    800007a4:	f84a                	sd	s2,48(sp)
    800007a6:	f44e                	sd	s3,40(sp)
    800007a8:	f052                	sd	s4,32(sp)
    800007aa:	ec56                	sd	s5,24(sp)
    800007ac:	e85a                	sd	s6,16(sp)
    800007ae:	e45e                	sd	s7,8(sp)
    800007b0:	8a2a                	mv	s4,a0
    800007b2:	892e                	mv	s2,a1
    800007b4:	8ab6                	mv	s5,a3
    panic("uvmunmap: not aligned");

  for(a = va; a < va + npages*PGSIZE; a += PGSIZE){
    800007b6:	0632                	sll	a2,a2,0xc
    800007b8:	00b609b3          	add	s3,a2,a1
      panic("uvmunmap: walk");
    if((*pte & PTE_V) == 0) {
      printf("va=%p pte=%p\n", a, *pte);
      panic("uvmunmap: not mapped");
    }
    if(PTE_FLAGS(*pte) == PTE_V)
    800007bc:	4b85                	li	s7,1
  for(a = va; a < va + npages*PGSIZE; a += PGSIZE){
    800007be:	6b05                	lui	s6,0x1
    800007c0:	0b35f563          	bgeu	a1,s3,8000086a <uvmunmap+0xd4>
    800007c4:	fc26                	sd	s1,56(sp)
    800007c6:	a0b5                	j	80000832 <uvmunmap+0x9c>
    800007c8:	fc26                	sd	s1,56(sp)
    800007ca:	f84a                	sd	s2,48(sp)
    800007cc:	f44e                	sd	s3,40(sp)
    800007ce:	f052                	sd	s4,32(sp)
    800007d0:	ec56                	sd	s5,24(sp)
    800007d2:	e85a                	sd	s6,16(sp)
    800007d4:	e45e                	sd	s7,8(sp)
    panic("uvmunmap: not aligned");
    800007d6:	0000b517          	auipc	a0,0xb
    800007da:	8b250513          	add	a0,a0,-1870 # 8000b088 <etext+0x88>
    800007de:	00009097          	auipc	ra,0x9
    800007e2:	afa080e7          	jalr	-1286(ra) # 800092d8 <panic>
      panic("uvmunmap: walk");
    800007e6:	0000b517          	auipc	a0,0xb
    800007ea:	8ba50513          	add	a0,a0,-1862 # 8000b0a0 <etext+0xa0>
    800007ee:	00009097          	auipc	ra,0x9
    800007f2:	aea080e7          	jalr	-1302(ra) # 800092d8 <panic>
      printf("va=%p pte=%p\n", a, *pte);
    800007f6:	85ca                	mv	a1,s2
    800007f8:	0000b517          	auipc	a0,0xb
    800007fc:	8b850513          	add	a0,a0,-1864 # 8000b0b0 <etext+0xb0>
    80000800:	00009097          	auipc	ra,0x9
    80000804:	b22080e7          	jalr	-1246(ra) # 80009322 <printf>
      panic("uvmunmap: not mapped");
    80000808:	0000b517          	auipc	a0,0xb
    8000080c:	8b850513          	add	a0,a0,-1864 # 8000b0c0 <etext+0xc0>
    80000810:	00009097          	auipc	ra,0x9
    80000814:	ac8080e7          	jalr	-1336(ra) # 800092d8 <panic>
      panic("uvmunmap: not a leaf");
    80000818:	0000b517          	auipc	a0,0xb
    8000081c:	8c050513          	add	a0,a0,-1856 # 8000b0d8 <etext+0xd8>
    80000820:	00009097          	auipc	ra,0x9
    80000824:	ab8080e7          	jalr	-1352(ra) # 800092d8 <panic>
    if(do_free){
      uint64 pa = PTE2PA(*pte);
      kfree((void*)pa);
    }
    *pte = 0;
    80000828:	0004b023          	sd	zero,0(s1)
  for(a = va; a < va + npages*PGSIZE; a += PGSIZE){
    8000082c:	995a                	add	s2,s2,s6
    8000082e:	03397d63          	bgeu	s2,s3,80000868 <uvmunmap+0xd2>
    if((pte = walk(pagetable, a, 0)) == 0)
    80000832:	4601                	li	a2,0
    80000834:	85ca                	mv	a1,s2
    80000836:	8552                	mv	a0,s4
    80000838:	00000097          	auipc	ra,0x0
    8000083c:	c92080e7          	jalr	-878(ra) # 800004ca <walk>
    80000840:	84aa                	mv	s1,a0
    80000842:	d155                	beqz	a0,800007e6 <uvmunmap+0x50>
    if((*pte & PTE_V) == 0) {
    80000844:	6110                	ld	a2,0(a0)
    80000846:	00167793          	and	a5,a2,1
    8000084a:	d7d5                	beqz	a5,800007f6 <uvmunmap+0x60>
    if(PTE_FLAGS(*pte) == PTE_V)
    8000084c:	3ff67793          	and	a5,a2,1023
    80000850:	fd7784e3          	beq	a5,s7,80000818 <uvmunmap+0x82>
    if(do_free){
    80000854:	fc0a8ae3          	beqz	s5,80000828 <uvmunmap+0x92>
      uint64 pa = PTE2PA(*pte);
    80000858:	8229                	srl	a2,a2,0xa
      kfree((void*)pa);
    8000085a:	00c61513          	sll	a0,a2,0xc
    8000085e:	fffff097          	auipc	ra,0xfffff
    80000862:	7be080e7          	jalr	1982(ra) # 8000001c <kfree>
    80000866:	b7c9                	j	80000828 <uvmunmap+0x92>
    80000868:	74e2                	ld	s1,56(sp)
    8000086a:	7942                	ld	s2,48(sp)
    8000086c:	79a2                	ld	s3,40(sp)
    8000086e:	7a02                	ld	s4,32(sp)
    80000870:	6ae2                	ld	s5,24(sp)
    80000872:	6b42                	ld	s6,16(sp)
    80000874:	6ba2                	ld	s7,8(sp)
  }
}
    80000876:	60a6                	ld	ra,72(sp)
    80000878:	6406                	ld	s0,64(sp)
    8000087a:	6161                	add	sp,sp,80
    8000087c:	8082                	ret

000000008000087e <uvmcreate>:

// create an empty user page table.
// returns 0 if out of memory.
pagetable_t
uvmcreate()
{
    8000087e:	1101                	add	sp,sp,-32
    80000880:	ec06                	sd	ra,24(sp)
    80000882:	e822                	sd	s0,16(sp)
    80000884:	e426                	sd	s1,8(sp)
    80000886:	1000                	add	s0,sp,32
  pagetable_t pagetable;
  pagetable = (pagetable_t) kalloc();
    80000888:	00000097          	auipc	ra,0x0
    8000088c:	892080e7          	jalr	-1902(ra) # 8000011a <kalloc>
    80000890:	84aa                	mv	s1,a0
  if(pagetable == 0)
    80000892:	c519                	beqz	a0,800008a0 <uvmcreate+0x22>
    return 0;
  memset(pagetable, 0, PGSIZE);
    80000894:	6605                	lui	a2,0x1
    80000896:	4581                	li	a1,0
    80000898:	00000097          	auipc	ra,0x0
    8000089c:	8e2080e7          	jalr	-1822(ra) # 8000017a <memset>
  return pagetable;
}
    800008a0:	8526                	mv	a0,s1
    800008a2:	60e2                	ld	ra,24(sp)
    800008a4:	6442                	ld	s0,16(sp)
    800008a6:	64a2                	ld	s1,8(sp)
    800008a8:	6105                	add	sp,sp,32
    800008aa:	8082                	ret

00000000800008ac <uvminit>:
// Load the user initcode into address 0 of pagetable,
// for the very first process.
// sz must be less than a page.
void
uvminit(pagetable_t pagetable, uchar *src, uint sz)
{
    800008ac:	7179                	add	sp,sp,-48
    800008ae:	f406                	sd	ra,40(sp)
    800008b0:	f022                	sd	s0,32(sp)
    800008b2:	ec26                	sd	s1,24(sp)
    800008b4:	e84a                	sd	s2,16(sp)
    800008b6:	e44e                	sd	s3,8(sp)
    800008b8:	e052                	sd	s4,0(sp)
    800008ba:	1800                	add	s0,sp,48
  char *mem;

  if(sz >= PGSIZE)
    800008bc:	6785                	lui	a5,0x1
    800008be:	04f67863          	bgeu	a2,a5,8000090e <uvminit+0x62>
    800008c2:	8a2a                	mv	s4,a0
    800008c4:	89ae                	mv	s3,a1
    800008c6:	84b2                	mv	s1,a2
    panic("inituvm: more than a page");
  mem = kalloc();
    800008c8:	00000097          	auipc	ra,0x0
    800008cc:	852080e7          	jalr	-1966(ra) # 8000011a <kalloc>
    800008d0:	892a                	mv	s2,a0
  memset(mem, 0, PGSIZE);
    800008d2:	6605                	lui	a2,0x1
    800008d4:	4581                	li	a1,0
    800008d6:	00000097          	auipc	ra,0x0
    800008da:	8a4080e7          	jalr	-1884(ra) # 8000017a <memset>
  mappages(pagetable, 0, PGSIZE, (uint64)mem, PTE_W|PTE_R|PTE_X|PTE_U);
    800008de:	4779                	li	a4,30
    800008e0:	86ca                	mv	a3,s2
    800008e2:	6605                	lui	a2,0x1
    800008e4:	4581                	li	a1,0
    800008e6:	8552                	mv	a0,s4
    800008e8:	00000097          	auipc	ra,0x0
    800008ec:	cca080e7          	jalr	-822(ra) # 800005b2 <mappages>
  memmove(mem, src, sz);
    800008f0:	8626                	mv	a2,s1
    800008f2:	85ce                	mv	a1,s3
    800008f4:	854a                	mv	a0,s2
    800008f6:	00000097          	auipc	ra,0x0
    800008fa:	8e0080e7          	jalr	-1824(ra) # 800001d6 <memmove>
}
    800008fe:	70a2                	ld	ra,40(sp)
    80000900:	7402                	ld	s0,32(sp)
    80000902:	64e2                	ld	s1,24(sp)
    80000904:	6942                	ld	s2,16(sp)
    80000906:	69a2                	ld	s3,8(sp)
    80000908:	6a02                	ld	s4,0(sp)
    8000090a:	6145                	add	sp,sp,48
    8000090c:	8082                	ret
    panic("inituvm: more than a page");
    8000090e:	0000a517          	auipc	a0,0xa
    80000912:	7e250513          	add	a0,a0,2018 # 8000b0f0 <etext+0xf0>
    80000916:	00009097          	auipc	ra,0x9
    8000091a:	9c2080e7          	jalr	-1598(ra) # 800092d8 <panic>

000000008000091e <uvmdealloc>:
// newsz.  oldsz and newsz need not be page-aligned, nor does newsz
// need to be less than oldsz.  oldsz can be larger than the actual
// process size.  Returns the new process size.
uint64
uvmdealloc(pagetable_t pagetable, uint64 oldsz, uint64 newsz)
{
    8000091e:	1101                	add	sp,sp,-32
    80000920:	ec06                	sd	ra,24(sp)
    80000922:	e822                	sd	s0,16(sp)
    80000924:	e426                	sd	s1,8(sp)
    80000926:	1000                	add	s0,sp,32
  if(newsz >= oldsz)
    return oldsz;
    80000928:	84ae                	mv	s1,a1
  if(newsz >= oldsz)
    8000092a:	00b67d63          	bgeu	a2,a1,80000944 <uvmdealloc+0x26>
    8000092e:	84b2                	mv	s1,a2

  if(PGROUNDUP(newsz) < PGROUNDUP(oldsz)){
    80000930:	6785                	lui	a5,0x1
    80000932:	17fd                	add	a5,a5,-1 # fff <_entry-0x7ffff001>
    80000934:	00f60733          	add	a4,a2,a5
    80000938:	76fd                	lui	a3,0xfffff
    8000093a:	8f75                	and	a4,a4,a3
    8000093c:	97ae                	add	a5,a5,a1
    8000093e:	8ff5                	and	a5,a5,a3
    80000940:	00f76863          	bltu	a4,a5,80000950 <uvmdealloc+0x32>
    int npages = (PGROUNDUP(oldsz) - PGROUNDUP(newsz)) / PGSIZE;
    uvmunmap(pagetable, PGROUNDUP(newsz), npages, 1);
  }

  return newsz;
}
    80000944:	8526                	mv	a0,s1
    80000946:	60e2                	ld	ra,24(sp)
    80000948:	6442                	ld	s0,16(sp)
    8000094a:	64a2                	ld	s1,8(sp)
    8000094c:	6105                	add	sp,sp,32
    8000094e:	8082                	ret
    int npages = (PGROUNDUP(oldsz) - PGROUNDUP(newsz)) / PGSIZE;
    80000950:	8f99                	sub	a5,a5,a4
    80000952:	83b1                	srl	a5,a5,0xc
    uvmunmap(pagetable, PGROUNDUP(newsz), npages, 1);
    80000954:	4685                	li	a3,1
    80000956:	0007861b          	sext.w	a2,a5
    8000095a:	85ba                	mv	a1,a4
    8000095c:	00000097          	auipc	ra,0x0
    80000960:	e3a080e7          	jalr	-454(ra) # 80000796 <uvmunmap>
    80000964:	b7c5                	j	80000944 <uvmdealloc+0x26>

0000000080000966 <uvmalloc>:
  if(newsz < oldsz)
    80000966:	0ab66563          	bltu	a2,a1,80000a10 <uvmalloc+0xaa>
{
    8000096a:	7139                	add	sp,sp,-64
    8000096c:	fc06                	sd	ra,56(sp)
    8000096e:	f822                	sd	s0,48(sp)
    80000970:	ec4e                	sd	s3,24(sp)
    80000972:	e852                	sd	s4,16(sp)
    80000974:	e456                	sd	s5,8(sp)
    80000976:	0080                	add	s0,sp,64
    80000978:	8aaa                	mv	s5,a0
    8000097a:	8a32                	mv	s4,a2
  oldsz = PGROUNDUP(oldsz);
    8000097c:	6785                	lui	a5,0x1
    8000097e:	17fd                	add	a5,a5,-1 # fff <_entry-0x7ffff001>
    80000980:	95be                	add	a1,a1,a5
    80000982:	77fd                	lui	a5,0xfffff
    80000984:	00f5f9b3          	and	s3,a1,a5
  for(a = oldsz; a < newsz; a += PGSIZE){
    80000988:	08c9f663          	bgeu	s3,a2,80000a14 <uvmalloc+0xae>
    8000098c:	f426                	sd	s1,40(sp)
    8000098e:	f04a                	sd	s2,32(sp)
    80000990:	894e                	mv	s2,s3
    mem = kalloc();
    80000992:	fffff097          	auipc	ra,0xfffff
    80000996:	788080e7          	jalr	1928(ra) # 8000011a <kalloc>
    8000099a:	84aa                	mv	s1,a0
    if(mem == 0){
    8000099c:	c90d                	beqz	a0,800009ce <uvmalloc+0x68>
    memset(mem, 0, PGSIZE);
    8000099e:	6605                	lui	a2,0x1
    800009a0:	4581                	li	a1,0
    800009a2:	fffff097          	auipc	ra,0xfffff
    800009a6:	7d8080e7          	jalr	2008(ra) # 8000017a <memset>
    if(mappages(pagetable, a, PGSIZE, (uint64)mem, PTE_W|PTE_X|PTE_R|PTE_U) != 0){
    800009aa:	4779                	li	a4,30
    800009ac:	86a6                	mv	a3,s1
    800009ae:	6605                	lui	a2,0x1
    800009b0:	85ca                	mv	a1,s2
    800009b2:	8556                	mv	a0,s5
    800009b4:	00000097          	auipc	ra,0x0
    800009b8:	bfe080e7          	jalr	-1026(ra) # 800005b2 <mappages>
    800009bc:	e915                	bnez	a0,800009f0 <uvmalloc+0x8a>
  for(a = oldsz; a < newsz; a += PGSIZE){
    800009be:	6785                	lui	a5,0x1
    800009c0:	993e                	add	s2,s2,a5
    800009c2:	fd4968e3          	bltu	s2,s4,80000992 <uvmalloc+0x2c>
  return newsz;
    800009c6:	8552                	mv	a0,s4
    800009c8:	74a2                	ld	s1,40(sp)
    800009ca:	7902                	ld	s2,32(sp)
    800009cc:	a819                	j	800009e2 <uvmalloc+0x7c>
      uvmdealloc(pagetable, a, oldsz);
    800009ce:	864e                	mv	a2,s3
    800009d0:	85ca                	mv	a1,s2
    800009d2:	8556                	mv	a0,s5
    800009d4:	00000097          	auipc	ra,0x0
    800009d8:	f4a080e7          	jalr	-182(ra) # 8000091e <uvmdealloc>
      return 0;
    800009dc:	4501                	li	a0,0
    800009de:	74a2                	ld	s1,40(sp)
    800009e0:	7902                	ld	s2,32(sp)
}
    800009e2:	70e2                	ld	ra,56(sp)
    800009e4:	7442                	ld	s0,48(sp)
    800009e6:	69e2                	ld	s3,24(sp)
    800009e8:	6a42                	ld	s4,16(sp)
    800009ea:	6aa2                	ld	s5,8(sp)
    800009ec:	6121                	add	sp,sp,64
    800009ee:	8082                	ret
      kfree(mem);
    800009f0:	8526                	mv	a0,s1
    800009f2:	fffff097          	auipc	ra,0xfffff
    800009f6:	62a080e7          	jalr	1578(ra) # 8000001c <kfree>
      uvmdealloc(pagetable, a, oldsz);
    800009fa:	864e                	mv	a2,s3
    800009fc:	85ca                	mv	a1,s2
    800009fe:	8556                	mv	a0,s5
    80000a00:	00000097          	auipc	ra,0x0
    80000a04:	f1e080e7          	jalr	-226(ra) # 8000091e <uvmdealloc>
      return 0;
    80000a08:	4501                	li	a0,0
    80000a0a:	74a2                	ld	s1,40(sp)
    80000a0c:	7902                	ld	s2,32(sp)
    80000a0e:	bfd1                	j	800009e2 <uvmalloc+0x7c>
    return oldsz;
    80000a10:	852e                	mv	a0,a1
}
    80000a12:	8082                	ret
  return newsz;
    80000a14:	8532                	mv	a0,a2
    80000a16:	b7f1                	j	800009e2 <uvmalloc+0x7c>

0000000080000a18 <freewalk>:

// Recursively free page-table pages.
// All leaf mappings must already have been removed.
void
freewalk(pagetable_t pagetable)
{
    80000a18:	7179                	add	sp,sp,-48
    80000a1a:	f406                	sd	ra,40(sp)
    80000a1c:	f022                	sd	s0,32(sp)
    80000a1e:	ec26                	sd	s1,24(sp)
    80000a20:	e84a                	sd	s2,16(sp)
    80000a22:	e44e                	sd	s3,8(sp)
    80000a24:	e052                	sd	s4,0(sp)
    80000a26:	1800                	add	s0,sp,48
    80000a28:	8a2a                	mv	s4,a0
  // there are 2^9 = 512 PTEs in a page table.
  for(int i = 0; i < 512; i++){
    80000a2a:	84aa                	mv	s1,a0
    80000a2c:	6905                	lui	s2,0x1
    80000a2e:	992a                	add	s2,s2,a0
    pte_t pte = pagetable[i];
    if((pte & PTE_V) && (pte & (PTE_R|PTE_W|PTE_X)) == 0){
    80000a30:	4985                	li	s3,1
    80000a32:	a829                	j	80000a4c <freewalk+0x34>
      // this PTE points to a lower-level page table.
      uint64 child = PTE2PA(pte);
    80000a34:	83a9                	srl	a5,a5,0xa
      freewalk((pagetable_t)child);
    80000a36:	00c79513          	sll	a0,a5,0xc
    80000a3a:	00000097          	auipc	ra,0x0
    80000a3e:	fde080e7          	jalr	-34(ra) # 80000a18 <freewalk>
      pagetable[i] = 0;
    80000a42:	0004b023          	sd	zero,0(s1)
  for(int i = 0; i < 512; i++){
    80000a46:	04a1                	add	s1,s1,8
    80000a48:	03248163          	beq	s1,s2,80000a6a <freewalk+0x52>
    pte_t pte = pagetable[i];
    80000a4c:	609c                	ld	a5,0(s1)
    if((pte & PTE_V) && (pte & (PTE_R|PTE_W|PTE_X)) == 0){
    80000a4e:	00f7f713          	and	a4,a5,15
    80000a52:	ff3701e3          	beq	a4,s3,80000a34 <freewalk+0x1c>
    } else if(pte & PTE_V){
    80000a56:	8b85                	and	a5,a5,1
    80000a58:	d7fd                	beqz	a5,80000a46 <freewalk+0x2e>
      panic("freewalk: leaf");
    80000a5a:	0000a517          	auipc	a0,0xa
    80000a5e:	6b650513          	add	a0,a0,1718 # 8000b110 <etext+0x110>
    80000a62:	00009097          	auipc	ra,0x9
    80000a66:	876080e7          	jalr	-1930(ra) # 800092d8 <panic>
    }
  }
  kfree((void*)pagetable);
    80000a6a:	8552                	mv	a0,s4
    80000a6c:	fffff097          	auipc	ra,0xfffff
    80000a70:	5b0080e7          	jalr	1456(ra) # 8000001c <kfree>
}
    80000a74:	70a2                	ld	ra,40(sp)
    80000a76:	7402                	ld	s0,32(sp)
    80000a78:	64e2                	ld	s1,24(sp)
    80000a7a:	6942                	ld	s2,16(sp)
    80000a7c:	69a2                	ld	s3,8(sp)
    80000a7e:	6a02                	ld	s4,0(sp)
    80000a80:	6145                	add	sp,sp,48
    80000a82:	8082                	ret

0000000080000a84 <uvmfree>:

// Free user memory pages,
// then free page-table pages.
void
uvmfree(pagetable_t pagetable, uint64 sz)
{
    80000a84:	1101                	add	sp,sp,-32
    80000a86:	ec06                	sd	ra,24(sp)
    80000a88:	e822                	sd	s0,16(sp)
    80000a8a:	e426                	sd	s1,8(sp)
    80000a8c:	1000                	add	s0,sp,32
    80000a8e:	84aa                	mv	s1,a0
  if(sz > 0)
    80000a90:	e999                	bnez	a1,80000aa6 <uvmfree+0x22>
    uvmunmap(pagetable, 0, PGROUNDUP(sz)/PGSIZE, 1);
  freewalk(pagetable);
    80000a92:	8526                	mv	a0,s1
    80000a94:	00000097          	auipc	ra,0x0
    80000a98:	f84080e7          	jalr	-124(ra) # 80000a18 <freewalk>
}
    80000a9c:	60e2                	ld	ra,24(sp)
    80000a9e:	6442                	ld	s0,16(sp)
    80000aa0:	64a2                	ld	s1,8(sp)
    80000aa2:	6105                	add	sp,sp,32
    80000aa4:	8082                	ret
    uvmunmap(pagetable, 0, PGROUNDUP(sz)/PGSIZE, 1);
    80000aa6:	6785                	lui	a5,0x1
    80000aa8:	17fd                	add	a5,a5,-1 # fff <_entry-0x7ffff001>
    80000aaa:	95be                	add	a1,a1,a5
    80000aac:	4685                	li	a3,1
    80000aae:	00c5d613          	srl	a2,a1,0xc
    80000ab2:	4581                	li	a1,0
    80000ab4:	00000097          	auipc	ra,0x0
    80000ab8:	ce2080e7          	jalr	-798(ra) # 80000796 <uvmunmap>
    80000abc:	bfd9                	j	80000a92 <uvmfree+0xe>

0000000080000abe <uvmcopy>:
  pte_t *pte;
  uint64 pa, i;
  uint flags;
  char *mem;

  for(i = 0; i < sz; i += PGSIZE){
    80000abe:	c679                	beqz	a2,80000b8c <uvmcopy+0xce>
{
    80000ac0:	715d                	add	sp,sp,-80
    80000ac2:	e486                	sd	ra,72(sp)
    80000ac4:	e0a2                	sd	s0,64(sp)
    80000ac6:	fc26                	sd	s1,56(sp)
    80000ac8:	f84a                	sd	s2,48(sp)
    80000aca:	f44e                	sd	s3,40(sp)
    80000acc:	f052                	sd	s4,32(sp)
    80000ace:	ec56                	sd	s5,24(sp)
    80000ad0:	e85a                	sd	s6,16(sp)
    80000ad2:	e45e                	sd	s7,8(sp)
    80000ad4:	0880                	add	s0,sp,80
    80000ad6:	8b2a                	mv	s6,a0
    80000ad8:	8aae                	mv	s5,a1
    80000ada:	8a32                	mv	s4,a2
  for(i = 0; i < sz; i += PGSIZE){
    80000adc:	4981                	li	s3,0
    if((pte = walk(old, i, 0)) == 0)
    80000ade:	4601                	li	a2,0
    80000ae0:	85ce                	mv	a1,s3
    80000ae2:	855a                	mv	a0,s6
    80000ae4:	00000097          	auipc	ra,0x0
    80000ae8:	9e6080e7          	jalr	-1562(ra) # 800004ca <walk>
    80000aec:	c531                	beqz	a0,80000b38 <uvmcopy+0x7a>
      panic("uvmcopy: pte should exist");
    if((*pte & PTE_V) == 0)
    80000aee:	6118                	ld	a4,0(a0)
    80000af0:	00177793          	and	a5,a4,1
    80000af4:	cbb1                	beqz	a5,80000b48 <uvmcopy+0x8a>
      panic("uvmcopy: page not present");
    pa = PTE2PA(*pte);
    80000af6:	00a75593          	srl	a1,a4,0xa
    80000afa:	00c59b93          	sll	s7,a1,0xc
    flags = PTE_FLAGS(*pte);
    80000afe:	3ff77493          	and	s1,a4,1023
    if((mem = kalloc()) == 0)
    80000b02:	fffff097          	auipc	ra,0xfffff
    80000b06:	618080e7          	jalr	1560(ra) # 8000011a <kalloc>
    80000b0a:	892a                	mv	s2,a0
    80000b0c:	c939                	beqz	a0,80000b62 <uvmcopy+0xa4>
      goto err;
    memmove(mem, (char*)pa, PGSIZE);
    80000b0e:	6605                	lui	a2,0x1
    80000b10:	85de                	mv	a1,s7
    80000b12:	fffff097          	auipc	ra,0xfffff
    80000b16:	6c4080e7          	jalr	1732(ra) # 800001d6 <memmove>
    if(mappages(new, i, PGSIZE, (uint64)mem, flags) != 0){
    80000b1a:	8726                	mv	a4,s1
    80000b1c:	86ca                	mv	a3,s2
    80000b1e:	6605                	lui	a2,0x1
    80000b20:	85ce                	mv	a1,s3
    80000b22:	8556                	mv	a0,s5
    80000b24:	00000097          	auipc	ra,0x0
    80000b28:	a8e080e7          	jalr	-1394(ra) # 800005b2 <mappages>
    80000b2c:	e515                	bnez	a0,80000b58 <uvmcopy+0x9a>
  for(i = 0; i < sz; i += PGSIZE){
    80000b2e:	6785                	lui	a5,0x1
    80000b30:	99be                	add	s3,s3,a5
    80000b32:	fb49e6e3          	bltu	s3,s4,80000ade <uvmcopy+0x20>
    80000b36:	a081                	j	80000b76 <uvmcopy+0xb8>
      panic("uvmcopy: pte should exist");
    80000b38:	0000a517          	auipc	a0,0xa
    80000b3c:	5e850513          	add	a0,a0,1512 # 8000b120 <etext+0x120>
    80000b40:	00008097          	auipc	ra,0x8
    80000b44:	798080e7          	jalr	1944(ra) # 800092d8 <panic>
      panic("uvmcopy: page not present");
    80000b48:	0000a517          	auipc	a0,0xa
    80000b4c:	5f850513          	add	a0,a0,1528 # 8000b140 <etext+0x140>
    80000b50:	00008097          	auipc	ra,0x8
    80000b54:	788080e7          	jalr	1928(ra) # 800092d8 <panic>
      kfree(mem);
    80000b58:	854a                	mv	a0,s2
    80000b5a:	fffff097          	auipc	ra,0xfffff
    80000b5e:	4c2080e7          	jalr	1218(ra) # 8000001c <kfree>
    }
  }
  return 0;

 err:
  uvmunmap(new, 0, i / PGSIZE, 1);
    80000b62:	4685                	li	a3,1
    80000b64:	00c9d613          	srl	a2,s3,0xc
    80000b68:	4581                	li	a1,0
    80000b6a:	8556                	mv	a0,s5
    80000b6c:	00000097          	auipc	ra,0x0
    80000b70:	c2a080e7          	jalr	-982(ra) # 80000796 <uvmunmap>
  return -1;
    80000b74:	557d                	li	a0,-1
}
    80000b76:	60a6                	ld	ra,72(sp)
    80000b78:	6406                	ld	s0,64(sp)
    80000b7a:	74e2                	ld	s1,56(sp)
    80000b7c:	7942                	ld	s2,48(sp)
    80000b7e:	79a2                	ld	s3,40(sp)
    80000b80:	7a02                	ld	s4,32(sp)
    80000b82:	6ae2                	ld	s5,24(sp)
    80000b84:	6b42                	ld	s6,16(sp)
    80000b86:	6ba2                	ld	s7,8(sp)
    80000b88:	6161                	add	sp,sp,80
    80000b8a:	8082                	ret
  return 0;
    80000b8c:	4501                	li	a0,0
}
    80000b8e:	8082                	ret

0000000080000b90 <uvmclear>:

// mark a PTE invalid for user access.
// used by exec for the user stack guard page.
void
uvmclear(pagetable_t pagetable, uint64 va)
{
    80000b90:	1141                	add	sp,sp,-16
    80000b92:	e406                	sd	ra,8(sp)
    80000b94:	e022                	sd	s0,0(sp)
    80000b96:	0800                	add	s0,sp,16
  pte_t *pte;
  
  pte = walk(pagetable, va, 0);
    80000b98:	4601                	li	a2,0
    80000b9a:	00000097          	auipc	ra,0x0
    80000b9e:	930080e7          	jalr	-1744(ra) # 800004ca <walk>
  if(pte == 0)
    80000ba2:	c901                	beqz	a0,80000bb2 <uvmclear+0x22>
    panic("uvmclear");
  *pte &= ~PTE_U;
    80000ba4:	611c                	ld	a5,0(a0)
    80000ba6:	9bbd                	and	a5,a5,-17
    80000ba8:	e11c                	sd	a5,0(a0)
}
    80000baa:	60a2                	ld	ra,8(sp)
    80000bac:	6402                	ld	s0,0(sp)
    80000bae:	0141                	add	sp,sp,16
    80000bb0:	8082                	ret
    panic("uvmclear");
    80000bb2:	0000a517          	auipc	a0,0xa
    80000bb6:	5ae50513          	add	a0,a0,1454 # 8000b160 <etext+0x160>
    80000bba:	00008097          	auipc	ra,0x8
    80000bbe:	71e080e7          	jalr	1822(ra) # 800092d8 <panic>

0000000080000bc2 <copyout>:
int
copyout(pagetable_t pagetable, uint64 dstva, char *src, uint64 len)
{
  uint64 n, va0, pa0;

  while(len > 0){
    80000bc2:	c6bd                	beqz	a3,80000c30 <copyout+0x6e>
{
    80000bc4:	715d                	add	sp,sp,-80
    80000bc6:	e486                	sd	ra,72(sp)
    80000bc8:	e0a2                	sd	s0,64(sp)
    80000bca:	fc26                	sd	s1,56(sp)
    80000bcc:	f84a                	sd	s2,48(sp)
    80000bce:	f44e                	sd	s3,40(sp)
    80000bd0:	f052                	sd	s4,32(sp)
    80000bd2:	ec56                	sd	s5,24(sp)
    80000bd4:	e85a                	sd	s6,16(sp)
    80000bd6:	e45e                	sd	s7,8(sp)
    80000bd8:	e062                	sd	s8,0(sp)
    80000bda:	0880                	add	s0,sp,80
    80000bdc:	8b2a                	mv	s6,a0
    80000bde:	8c2e                	mv	s8,a1
    80000be0:	8a32                	mv	s4,a2
    80000be2:	89b6                	mv	s3,a3
    va0 = PGROUNDDOWN(dstva);
    80000be4:	7bfd                	lui	s7,0xfffff
    pa0 = walkaddr(pagetable, va0);
    if(pa0 == 0)
      return -1;
    n = PGSIZE - (dstva - va0);
    80000be6:	6a85                	lui	s5,0x1
    80000be8:	a015                	j	80000c0c <copyout+0x4a>
    if(n > len)
      n = len;
    memmove((void *)(pa0 + (dstva - va0)), src, n);
    80000bea:	9562                	add	a0,a0,s8
    80000bec:	0004861b          	sext.w	a2,s1
    80000bf0:	85d2                	mv	a1,s4
    80000bf2:	41250533          	sub	a0,a0,s2
    80000bf6:	fffff097          	auipc	ra,0xfffff
    80000bfa:	5e0080e7          	jalr	1504(ra) # 800001d6 <memmove>

    len -= n;
    80000bfe:	409989b3          	sub	s3,s3,s1
    src += n;
    80000c02:	9a26                	add	s4,s4,s1
    dstva = va0 + PGSIZE;
    80000c04:	01590c33          	add	s8,s2,s5
  while(len > 0){
    80000c08:	02098263          	beqz	s3,80000c2c <copyout+0x6a>
    va0 = PGROUNDDOWN(dstva);
    80000c0c:	017c7933          	and	s2,s8,s7
    pa0 = walkaddr(pagetable, va0);
    80000c10:	85ca                	mv	a1,s2
    80000c12:	855a                	mv	a0,s6
    80000c14:	00000097          	auipc	ra,0x0
    80000c18:	95c080e7          	jalr	-1700(ra) # 80000570 <walkaddr>
    if(pa0 == 0)
    80000c1c:	cd01                	beqz	a0,80000c34 <copyout+0x72>
    n = PGSIZE - (dstva - va0);
    80000c1e:	418904b3          	sub	s1,s2,s8
    80000c22:	94d6                	add	s1,s1,s5
    if(n > len)
    80000c24:	fc99f3e3          	bgeu	s3,s1,80000bea <copyout+0x28>
    80000c28:	84ce                	mv	s1,s3
    80000c2a:	b7c1                	j	80000bea <copyout+0x28>
  }
  return 0;
    80000c2c:	4501                	li	a0,0
    80000c2e:	a021                	j	80000c36 <copyout+0x74>
    80000c30:	4501                	li	a0,0
}
    80000c32:	8082                	ret
      return -1;
    80000c34:	557d                	li	a0,-1
}
    80000c36:	60a6                	ld	ra,72(sp)
    80000c38:	6406                	ld	s0,64(sp)
    80000c3a:	74e2                	ld	s1,56(sp)
    80000c3c:	7942                	ld	s2,48(sp)
    80000c3e:	79a2                	ld	s3,40(sp)
    80000c40:	7a02                	ld	s4,32(sp)
    80000c42:	6ae2                	ld	s5,24(sp)
    80000c44:	6b42                	ld	s6,16(sp)
    80000c46:	6ba2                	ld	s7,8(sp)
    80000c48:	6c02                	ld	s8,0(sp)
    80000c4a:	6161                	add	sp,sp,80
    80000c4c:	8082                	ret

0000000080000c4e <copyin>:
int
copyin(pagetable_t pagetable, char *dst, uint64 srcva, uint64 len)
{
  uint64 n, va0, pa0;
  
  while(len > 0){
    80000c4e:	caa5                	beqz	a3,80000cbe <copyin+0x70>
{
    80000c50:	715d                	add	sp,sp,-80
    80000c52:	e486                	sd	ra,72(sp)
    80000c54:	e0a2                	sd	s0,64(sp)
    80000c56:	fc26                	sd	s1,56(sp)
    80000c58:	f84a                	sd	s2,48(sp)
    80000c5a:	f44e                	sd	s3,40(sp)
    80000c5c:	f052                	sd	s4,32(sp)
    80000c5e:	ec56                	sd	s5,24(sp)
    80000c60:	e85a                	sd	s6,16(sp)
    80000c62:	e45e                	sd	s7,8(sp)
    80000c64:	e062                	sd	s8,0(sp)
    80000c66:	0880                	add	s0,sp,80
    80000c68:	8b2a                	mv	s6,a0
    80000c6a:	8a2e                	mv	s4,a1
    80000c6c:	8c32                	mv	s8,a2
    80000c6e:	89b6                	mv	s3,a3
    va0 = PGROUNDDOWN(srcva);
    80000c70:	7bfd                	lui	s7,0xfffff
    pa0 = walkaddr(pagetable, va0);
    if(pa0 == 0)
      return -1;
    n = PGSIZE - (srcva - va0);
    80000c72:	6a85                	lui	s5,0x1
    80000c74:	a01d                	j	80000c9a <copyin+0x4c>
    if(n > len)
      n = len;
    memmove(dst, (void *)(pa0 + (srcva - va0)), n);
    80000c76:	018505b3          	add	a1,a0,s8
    80000c7a:	0004861b          	sext.w	a2,s1
    80000c7e:	412585b3          	sub	a1,a1,s2
    80000c82:	8552                	mv	a0,s4
    80000c84:	fffff097          	auipc	ra,0xfffff
    80000c88:	552080e7          	jalr	1362(ra) # 800001d6 <memmove>

    len -= n;
    80000c8c:	409989b3          	sub	s3,s3,s1
    dst += n;
    80000c90:	9a26                	add	s4,s4,s1
    srcva = va0 + PGSIZE;
    80000c92:	01590c33          	add	s8,s2,s5
  while(len > 0){
    80000c96:	02098263          	beqz	s3,80000cba <copyin+0x6c>
    va0 = PGROUNDDOWN(srcva);
    80000c9a:	017c7933          	and	s2,s8,s7
    pa0 = walkaddr(pagetable, va0);
    80000c9e:	85ca                	mv	a1,s2
    80000ca0:	855a                	mv	a0,s6
    80000ca2:	00000097          	auipc	ra,0x0
    80000ca6:	8ce080e7          	jalr	-1842(ra) # 80000570 <walkaddr>
    if(pa0 == 0)
    80000caa:	cd01                	beqz	a0,80000cc2 <copyin+0x74>
    n = PGSIZE - (srcva - va0);
    80000cac:	418904b3          	sub	s1,s2,s8
    80000cb0:	94d6                	add	s1,s1,s5
    if(n > len)
    80000cb2:	fc99f2e3          	bgeu	s3,s1,80000c76 <copyin+0x28>
    80000cb6:	84ce                	mv	s1,s3
    80000cb8:	bf7d                	j	80000c76 <copyin+0x28>
  }
  return 0;
    80000cba:	4501                	li	a0,0
    80000cbc:	a021                	j	80000cc4 <copyin+0x76>
    80000cbe:	4501                	li	a0,0
}
    80000cc0:	8082                	ret
      return -1;
    80000cc2:	557d                	li	a0,-1
}
    80000cc4:	60a6                	ld	ra,72(sp)
    80000cc6:	6406                	ld	s0,64(sp)
    80000cc8:	74e2                	ld	s1,56(sp)
    80000cca:	7942                	ld	s2,48(sp)
    80000ccc:	79a2                	ld	s3,40(sp)
    80000cce:	7a02                	ld	s4,32(sp)
    80000cd0:	6ae2                	ld	s5,24(sp)
    80000cd2:	6b42                	ld	s6,16(sp)
    80000cd4:	6ba2                	ld	s7,8(sp)
    80000cd6:	6c02                	ld	s8,0(sp)
    80000cd8:	6161                	add	sp,sp,80
    80000cda:	8082                	ret

0000000080000cdc <copyinstr>:
copyinstr(pagetable_t pagetable, char *dst, uint64 srcva, uint64 max)
{
  uint64 n, va0, pa0;
  int got_null = 0;

  while(got_null == 0 && max > 0){
    80000cdc:	cacd                	beqz	a3,80000d8e <copyinstr+0xb2>
{
    80000cde:	715d                	add	sp,sp,-80
    80000ce0:	e486                	sd	ra,72(sp)
    80000ce2:	e0a2                	sd	s0,64(sp)
    80000ce4:	fc26                	sd	s1,56(sp)
    80000ce6:	f84a                	sd	s2,48(sp)
    80000ce8:	f44e                	sd	s3,40(sp)
    80000cea:	f052                	sd	s4,32(sp)
    80000cec:	ec56                	sd	s5,24(sp)
    80000cee:	e85a                	sd	s6,16(sp)
    80000cf0:	e45e                	sd	s7,8(sp)
    80000cf2:	0880                	add	s0,sp,80
    80000cf4:	8a2a                	mv	s4,a0
    80000cf6:	8b2e                	mv	s6,a1
    80000cf8:	8bb2                	mv	s7,a2
    80000cfa:	8936                	mv	s2,a3
    va0 = PGROUNDDOWN(srcva);
    80000cfc:	7afd                	lui	s5,0xfffff
    pa0 = walkaddr(pagetable, va0);
    if(pa0 == 0)
      return -1;
    n = PGSIZE - (srcva - va0);
    80000cfe:	6985                	lui	s3,0x1
    80000d00:	a825                	j	80000d38 <copyinstr+0x5c>
      n = max;

    char *p = (char *) (pa0 + (srcva - va0));
    while(n > 0){
      if(*p == '\0'){
        *dst = '\0';
    80000d02:	00078023          	sb	zero,0(a5) # 1000 <_entry-0x7ffff000>
    80000d06:	4785                	li	a5,1
      dst++;
    }

    srcva = va0 + PGSIZE;
  }
  if(got_null){
    80000d08:	37fd                	addw	a5,a5,-1
    80000d0a:	0007851b          	sext.w	a0,a5
    return 0;
  } else {
    return -1;
  }
}
    80000d0e:	60a6                	ld	ra,72(sp)
    80000d10:	6406                	ld	s0,64(sp)
    80000d12:	74e2                	ld	s1,56(sp)
    80000d14:	7942                	ld	s2,48(sp)
    80000d16:	79a2                	ld	s3,40(sp)
    80000d18:	7a02                	ld	s4,32(sp)
    80000d1a:	6ae2                	ld	s5,24(sp)
    80000d1c:	6b42                	ld	s6,16(sp)
    80000d1e:	6ba2                	ld	s7,8(sp)
    80000d20:	6161                	add	sp,sp,80
    80000d22:	8082                	ret
    80000d24:	fff90713          	add	a4,s2,-1 # fff <_entry-0x7ffff001>
    80000d28:	9742                	add	a4,a4,a6
      --max;
    80000d2a:	40b70933          	sub	s2,a4,a1
    srcva = va0 + PGSIZE;
    80000d2e:	01348bb3          	add	s7,s1,s3
  while(got_null == 0 && max > 0){
    80000d32:	04e58663          	beq	a1,a4,80000d7e <copyinstr+0xa2>
{
    80000d36:	8b3e                	mv	s6,a5
    va0 = PGROUNDDOWN(srcva);
    80000d38:	015bf4b3          	and	s1,s7,s5
    pa0 = walkaddr(pagetable, va0);
    80000d3c:	85a6                	mv	a1,s1
    80000d3e:	8552                	mv	a0,s4
    80000d40:	00000097          	auipc	ra,0x0
    80000d44:	830080e7          	jalr	-2000(ra) # 80000570 <walkaddr>
    if(pa0 == 0)
    80000d48:	cd0d                	beqz	a0,80000d82 <copyinstr+0xa6>
    n = PGSIZE - (srcva - va0);
    80000d4a:	417486b3          	sub	a3,s1,s7
    80000d4e:	96ce                	add	a3,a3,s3
    if(n > max)
    80000d50:	00d97363          	bgeu	s2,a3,80000d56 <copyinstr+0x7a>
    80000d54:	86ca                	mv	a3,s2
    char *p = (char *) (pa0 + (srcva - va0));
    80000d56:	955e                	add	a0,a0,s7
    80000d58:	8d05                	sub	a0,a0,s1
    while(n > 0){
    80000d5a:	c695                	beqz	a3,80000d86 <copyinstr+0xaa>
    80000d5c:	87da                	mv	a5,s6
    80000d5e:	885a                	mv	a6,s6
      if(*p == '\0'){
    80000d60:	41650633          	sub	a2,a0,s6
    while(n > 0){
    80000d64:	96da                	add	a3,a3,s6
    80000d66:	85be                	mv	a1,a5
      if(*p == '\0'){
    80000d68:	00f60733          	add	a4,a2,a5
    80000d6c:	00074703          	lbu	a4,0(a4) # fffffffffffff000 <end+0xffffffff7ffb7a30>
    80000d70:	db49                	beqz	a4,80000d02 <copyinstr+0x26>
        *dst = *p;
    80000d72:	00e78023          	sb	a4,0(a5)
      dst++;
    80000d76:	0785                	add	a5,a5,1
    while(n > 0){
    80000d78:	fed797e3          	bne	a5,a3,80000d66 <copyinstr+0x8a>
    80000d7c:	b765                	j	80000d24 <copyinstr+0x48>
    80000d7e:	4781                	li	a5,0
    80000d80:	b761                	j	80000d08 <copyinstr+0x2c>
      return -1;
    80000d82:	557d                	li	a0,-1
    80000d84:	b769                	j	80000d0e <copyinstr+0x32>
    srcva = va0 + PGSIZE;
    80000d86:	6b85                	lui	s7,0x1
    80000d88:	9ba6                	add	s7,s7,s1
    80000d8a:	87da                	mv	a5,s6
    80000d8c:	b76d                	j	80000d36 <copyinstr+0x5a>
  int got_null = 0;
    80000d8e:	4781                	li	a5,0
  if(got_null){
    80000d90:	37fd                	addw	a5,a5,-1
    80000d92:	0007851b          	sext.w	a0,a5
}
    80000d96:	8082                	ret

0000000080000d98 <wakeup1>:

// Wake up p if it is sleeping in wait(); used by exit().
// Caller must hold p->lock.
static void
wakeup1(struct proc *p)
{
    80000d98:	1101                	add	sp,sp,-32
    80000d9a:	ec06                	sd	ra,24(sp)
    80000d9c:	e822                	sd	s0,16(sp)
    80000d9e:	e426                	sd	s1,8(sp)
    80000da0:	1000                	add	s0,sp,32
    80000da2:	84aa                	mv	s1,a0
  if(!holding(&p->lock))
    80000da4:	00009097          	auipc	ra,0x9
    80000da8:	a54080e7          	jalr	-1452(ra) # 800097f8 <holding>
    80000dac:	c909                	beqz	a0,80000dbe <wakeup1+0x26>
    panic("wakeup1");
  if(p->chan == p && p->state == SLEEPING) {
    80000dae:	749c                	ld	a5,40(s1)
    80000db0:	00978f63          	beq	a5,s1,80000dce <wakeup1+0x36>
    p->state = RUNNABLE;
  }
}
    80000db4:	60e2                	ld	ra,24(sp)
    80000db6:	6442                	ld	s0,16(sp)
    80000db8:	64a2                	ld	s1,8(sp)
    80000dba:	6105                	add	sp,sp,32
    80000dbc:	8082                	ret
    panic("wakeup1");
    80000dbe:	0000a517          	auipc	a0,0xa
    80000dc2:	3b250513          	add	a0,a0,946 # 8000b170 <etext+0x170>
    80000dc6:	00008097          	auipc	ra,0x8
    80000dca:	512080e7          	jalr	1298(ra) # 800092d8 <panic>
  if(p->chan == p && p->state == SLEEPING) {
    80000dce:	4c98                	lw	a4,24(s1)
    80000dd0:	4785                	li	a5,1
    80000dd2:	fef711e3          	bne	a4,a5,80000db4 <wakeup1+0x1c>
    p->state = RUNNABLE;
    80000dd6:	4789                	li	a5,2
    80000dd8:	cc9c                	sw	a5,24(s1)
}
    80000dda:	bfe9                	j	80000db4 <wakeup1+0x1c>

0000000080000ddc <proc_mapstacks>:
proc_mapstacks(pagetable_t kpgtbl) {
    80000ddc:	7139                	add	sp,sp,-64
    80000dde:	fc06                	sd	ra,56(sp)
    80000de0:	f822                	sd	s0,48(sp)
    80000de2:	f426                	sd	s1,40(sp)
    80000de4:	f04a                	sd	s2,32(sp)
    80000de6:	ec4e                	sd	s3,24(sp)
    80000de8:	e852                	sd	s4,16(sp)
    80000dea:	e456                	sd	s5,8(sp)
    80000dec:	e05a                	sd	s6,0(sp)
    80000dee:	0080                	add	s0,sp,64
    80000df0:	8a2a                	mv	s4,a0
  for(p = proc; p < &proc[NPROC]; p++) {
    80000df2:	0000b497          	auipc	s1,0xb
    80000df6:	69648493          	add	s1,s1,1686 # 8000c488 <proc>
    uint64 va = KSTACK((int) (p - proc));
    80000dfa:	8b26                	mv	s6,s1
    80000dfc:	fa540937          	lui	s2,0xfa540
    80000e00:	a9590913          	add	s2,s2,-1387 # fffffffffa53fa95 <end+0xffffffff7a4f84c5>
    80000e04:	094a                	sll	s2,s2,0x12
    80000e06:	a9590913          	add	s2,s2,-1387
    80000e0a:	094a                	sll	s2,s2,0x12
    80000e0c:	a9590913          	add	s2,s2,-1387
    80000e10:	040009b7          	lui	s3,0x4000
    80000e14:	19fd                	add	s3,s3,-1 # 3ffffff <_entry-0x7c000001>
    80000e16:	09b2                	sll	s3,s3,0xc
  for(p = proc; p < &proc[NPROC]; p++) {
    80000e18:	00023a97          	auipc	s5,0x23
    80000e1c:	070a8a93          	add	s5,s5,112 # 80023e88 <tickslock>
    char *pa = kalloc();
    80000e20:	fffff097          	auipc	ra,0xfffff
    80000e24:	2fa080e7          	jalr	762(ra) # 8000011a <kalloc>
    80000e28:	862a                	mv	a2,a0
    if(pa == 0)
    80000e2a:	c121                	beqz	a0,80000e6a <proc_mapstacks+0x8e>
    uint64 va = KSTACK((int) (p - proc));
    80000e2c:	416485b3          	sub	a1,s1,s6
    80000e30:	858d                	sra	a1,a1,0x3
    80000e32:	032585b3          	mul	a1,a1,s2
    80000e36:	2585                	addw	a1,a1,1
    80000e38:	00d5959b          	sllw	a1,a1,0xd
    kvmmap(kpgtbl, va, (uint64)pa, PGSIZE, PTE_R | PTE_W);
    80000e3c:	4719                	li	a4,6
    80000e3e:	6685                	lui	a3,0x1
    80000e40:	40b985b3          	sub	a1,s3,a1
    80000e44:	8552                	mv	a0,s4
    80000e46:	fffff097          	auipc	ra,0xfffff
    80000e4a:	7fa080e7          	jalr	2042(ra) # 80000640 <kvmmap>
  for(p = proc; p < &proc[NPROC]; p++) {
    80000e4e:	5e848493          	add	s1,s1,1512
    80000e52:	fd5497e3          	bne	s1,s5,80000e20 <proc_mapstacks+0x44>
}
    80000e56:	70e2                	ld	ra,56(sp)
    80000e58:	7442                	ld	s0,48(sp)
    80000e5a:	74a2                	ld	s1,40(sp)
    80000e5c:	7902                	ld	s2,32(sp)
    80000e5e:	69e2                	ld	s3,24(sp)
    80000e60:	6a42                	ld	s4,16(sp)
    80000e62:	6aa2                	ld	s5,8(sp)
    80000e64:	6b02                	ld	s6,0(sp)
    80000e66:	6121                	add	sp,sp,64
    80000e68:	8082                	ret
      panic("kalloc");
    80000e6a:	0000a517          	auipc	a0,0xa
    80000e6e:	30e50513          	add	a0,a0,782 # 8000b178 <etext+0x178>
    80000e72:	00008097          	auipc	ra,0x8
    80000e76:	466080e7          	jalr	1126(ra) # 800092d8 <panic>

0000000080000e7a <procinit>:
{
    80000e7a:	7139                	add	sp,sp,-64
    80000e7c:	fc06                	sd	ra,56(sp)
    80000e7e:	f822                	sd	s0,48(sp)
    80000e80:	f426                	sd	s1,40(sp)
    80000e82:	f04a                	sd	s2,32(sp)
    80000e84:	ec4e                	sd	s3,24(sp)
    80000e86:	e852                	sd	s4,16(sp)
    80000e88:	e456                	sd	s5,8(sp)
    80000e8a:	e05a                	sd	s6,0(sp)
    80000e8c:	0080                	add	s0,sp,64
  initlock(&pid_lock, "nextpid");
    80000e8e:	0000a597          	auipc	a1,0xa
    80000e92:	2f258593          	add	a1,a1,754 # 8000b180 <etext+0x180>
    80000e96:	0000b517          	auipc	a0,0xb
    80000e9a:	1da50513          	add	a0,a0,474 # 8000c070 <pid_lock>
    80000e9e:	00009097          	auipc	ra,0x9
    80000ea2:	944080e7          	jalr	-1724(ra) # 800097e2 <initlock>
  for(p = proc; p < &proc[NPROC]; p++) {
    80000ea6:	0000b497          	auipc	s1,0xb
    80000eaa:	5e248493          	add	s1,s1,1506 # 8000c488 <proc>
      initlock(&p->lock, "proc");
    80000eae:	0000ab17          	auipc	s6,0xa
    80000eb2:	2dab0b13          	add	s6,s6,730 # 8000b188 <etext+0x188>
      p->kstack = KSTACK((int) (p - proc));
    80000eb6:	8aa6                	mv	s5,s1
    80000eb8:	fa540937          	lui	s2,0xfa540
    80000ebc:	a9590913          	add	s2,s2,-1387 # fffffffffa53fa95 <end+0xffffffff7a4f84c5>
    80000ec0:	094a                	sll	s2,s2,0x12
    80000ec2:	a9590913          	add	s2,s2,-1387
    80000ec6:	094a                	sll	s2,s2,0x12
    80000ec8:	a9590913          	add	s2,s2,-1387
    80000ecc:	040009b7          	lui	s3,0x4000
    80000ed0:	19fd                	add	s3,s3,-1 # 3ffffff <_entry-0x7c000001>
    80000ed2:	09b2                	sll	s3,s3,0xc
  for(p = proc; p < &proc[NPROC]; p++) {
    80000ed4:	00023a17          	auipc	s4,0x23
    80000ed8:	fb4a0a13          	add	s4,s4,-76 # 80023e88 <tickslock>
      initlock(&p->lock, "proc");
    80000edc:	85da                	mv	a1,s6
    80000ede:	8526                	mv	a0,s1
    80000ee0:	00009097          	auipc	ra,0x9
    80000ee4:	902080e7          	jalr	-1790(ra) # 800097e2 <initlock>
      p->kstack = KSTACK((int) (p - proc));
    80000ee8:	415487b3          	sub	a5,s1,s5
    80000eec:	878d                	sra	a5,a5,0x3
    80000eee:	032787b3          	mul	a5,a5,s2
    80000ef2:	2785                	addw	a5,a5,1
    80000ef4:	00d7979b          	sllw	a5,a5,0xd
    80000ef8:	40f987b3          	sub	a5,s3,a5
    80000efc:	e0bc                	sd	a5,64(s1)
  for(p = proc; p < &proc[NPROC]; p++) {
    80000efe:	5e848493          	add	s1,s1,1512
    80000f02:	fd449de3          	bne	s1,s4,80000edc <procinit+0x62>
}
    80000f06:	70e2                	ld	ra,56(sp)
    80000f08:	7442                	ld	s0,48(sp)
    80000f0a:	74a2                	ld	s1,40(sp)
    80000f0c:	7902                	ld	s2,32(sp)
    80000f0e:	69e2                	ld	s3,24(sp)
    80000f10:	6a42                	ld	s4,16(sp)
    80000f12:	6aa2                	ld	s5,8(sp)
    80000f14:	6b02                	ld	s6,0(sp)
    80000f16:	6121                	add	sp,sp,64
    80000f18:	8082                	ret

0000000080000f1a <cpuid>:
{
    80000f1a:	1141                	add	sp,sp,-16
    80000f1c:	e422                	sd	s0,8(sp)
    80000f1e:	0800                	add	s0,sp,16
  asm volatile("mv %0, tp" : "=r" (x) );
    80000f20:	8512                	mv	a0,tp
}
    80000f22:	2501                	sext.w	a0,a0
    80000f24:	6422                	ld	s0,8(sp)
    80000f26:	0141                	add	sp,sp,16
    80000f28:	8082                	ret

0000000080000f2a <mycpu>:
mycpu(void) {
    80000f2a:	1141                	add	sp,sp,-16
    80000f2c:	e422                	sd	s0,8(sp)
    80000f2e:	0800                	add	s0,sp,16
    80000f30:	8792                	mv	a5,tp
  struct cpu *c = &cpus[id];
    80000f32:	2781                	sext.w	a5,a5
    80000f34:	079e                	sll	a5,a5,0x7
}
    80000f36:	0000b517          	auipc	a0,0xb
    80000f3a:	15250513          	add	a0,a0,338 # 8000c088 <cpus>
    80000f3e:	953e                	add	a0,a0,a5
    80000f40:	6422                	ld	s0,8(sp)
    80000f42:	0141                	add	sp,sp,16
    80000f44:	8082                	ret

0000000080000f46 <myproc>:
myproc(void) {
    80000f46:	1101                	add	sp,sp,-32
    80000f48:	ec06                	sd	ra,24(sp)
    80000f4a:	e822                	sd	s0,16(sp)
    80000f4c:	e426                	sd	s1,8(sp)
    80000f4e:	1000                	add	s0,sp,32
  push_off();
    80000f50:	00009097          	auipc	ra,0x9
    80000f54:	8d6080e7          	jalr	-1834(ra) # 80009826 <push_off>
    80000f58:	8792                	mv	a5,tp
  struct proc *p = c->proc;
    80000f5a:	2781                	sext.w	a5,a5
    80000f5c:	079e                	sll	a5,a5,0x7
    80000f5e:	0000b717          	auipc	a4,0xb
    80000f62:	11270713          	add	a4,a4,274 # 8000c070 <pid_lock>
    80000f66:	97ba                	add	a5,a5,a4
    80000f68:	6f84                	ld	s1,24(a5)
  pop_off();
    80000f6a:	00009097          	auipc	ra,0x9
    80000f6e:	96e080e7          	jalr	-1682(ra) # 800098d8 <pop_off>
}
    80000f72:	8526                	mv	a0,s1
    80000f74:	60e2                	ld	ra,24(sp)
    80000f76:	6442                	ld	s0,16(sp)
    80000f78:	64a2                	ld	s1,8(sp)
    80000f7a:	6105                	add	sp,sp,32
    80000f7c:	8082                	ret

0000000080000f7e <forkret>:
{
    80000f7e:	1141                	add	sp,sp,-16
    80000f80:	e406                	sd	ra,8(sp)
    80000f82:	e022                	sd	s0,0(sp)
    80000f84:	0800                	add	s0,sp,16
  release(&myproc()->lock);
    80000f86:	00000097          	auipc	ra,0x0
    80000f8a:	fc0080e7          	jalr	-64(ra) # 80000f46 <myproc>
    80000f8e:	00009097          	auipc	ra,0x9
    80000f92:	9aa080e7          	jalr	-1622(ra) # 80009938 <release>
  if (first) {
    80000f96:	0000b797          	auipc	a5,0xb
    80000f9a:	bba7a783          	lw	a5,-1094(a5) # 8000bb50 <first.1>
    80000f9e:	eb89                	bnez	a5,80000fb0 <forkret+0x32>
  usertrapret();
    80000fa0:	00001097          	auipc	ra,0x1
    80000fa4:	c1e080e7          	jalr	-994(ra) # 80001bbe <usertrapret>
}
    80000fa8:	60a2                	ld	ra,8(sp)
    80000faa:	6402                	ld	s0,0(sp)
    80000fac:	0141                	add	sp,sp,16
    80000fae:	8082                	ret
    first = 0;
    80000fb0:	0000b797          	auipc	a5,0xb
    80000fb4:	ba07a023          	sw	zero,-1120(a5) # 8000bb50 <first.1>
    fsinit(ROOTDEV);
    80000fb8:	4505                	li	a0,1
    80000fba:	00002097          	auipc	ra,0x2
    80000fbe:	99a080e7          	jalr	-1638(ra) # 80002954 <fsinit>
    80000fc2:	bff9                	j	80000fa0 <forkret+0x22>

0000000080000fc4 <allocpid>:
allocpid() {
    80000fc4:	1101                	add	sp,sp,-32
    80000fc6:	ec06                	sd	ra,24(sp)
    80000fc8:	e822                	sd	s0,16(sp)
    80000fca:	e426                	sd	s1,8(sp)
    80000fcc:	e04a                	sd	s2,0(sp)
    80000fce:	1000                	add	s0,sp,32
  acquire(&pid_lock);
    80000fd0:	0000b917          	auipc	s2,0xb
    80000fd4:	0a090913          	add	s2,s2,160 # 8000c070 <pid_lock>
    80000fd8:	854a                	mv	a0,s2
    80000fda:	00009097          	auipc	ra,0x9
    80000fde:	898080e7          	jalr	-1896(ra) # 80009872 <acquire>
  pid = nextpid;
    80000fe2:	0000b797          	auipc	a5,0xb
    80000fe6:	b7278793          	add	a5,a5,-1166 # 8000bb54 <nextpid>
    80000fea:	4384                	lw	s1,0(a5)
  nextpid = nextpid + 1;
    80000fec:	0014871b          	addw	a4,s1,1
    80000ff0:	c398                	sw	a4,0(a5)
  release(&pid_lock);
    80000ff2:	854a                	mv	a0,s2
    80000ff4:	00009097          	auipc	ra,0x9
    80000ff8:	944080e7          	jalr	-1724(ra) # 80009938 <release>
}
    80000ffc:	8526                	mv	a0,s1
    80000ffe:	60e2                	ld	ra,24(sp)
    80001000:	6442                	ld	s0,16(sp)
    80001002:	64a2                	ld	s1,8(sp)
    80001004:	6902                	ld	s2,0(sp)
    80001006:	6105                	add	sp,sp,32
    80001008:	8082                	ret

000000008000100a <proc_pagetable>:
{
    8000100a:	1101                	add	sp,sp,-32
    8000100c:	ec06                	sd	ra,24(sp)
    8000100e:	e822                	sd	s0,16(sp)
    80001010:	e426                	sd	s1,8(sp)
    80001012:	e04a                	sd	s2,0(sp)
    80001014:	1000                	add	s0,sp,32
    80001016:	892a                	mv	s2,a0
  pagetable = uvmcreate();
    80001018:	00000097          	auipc	ra,0x0
    8000101c:	866080e7          	jalr	-1946(ra) # 8000087e <uvmcreate>
    80001020:	84aa                	mv	s1,a0
  if(pagetable == 0)
    80001022:	c121                	beqz	a0,80001062 <proc_pagetable+0x58>
  if(mappages(pagetable, TRAMPOLINE, PGSIZE,
    80001024:	4729                	li	a4,10
    80001026:	00009697          	auipc	a3,0x9
    8000102a:	fda68693          	add	a3,a3,-38 # 8000a000 <_trampoline>
    8000102e:	6605                	lui	a2,0x1
    80001030:	040005b7          	lui	a1,0x4000
    80001034:	15fd                	add	a1,a1,-1 # 3ffffff <_entry-0x7c000001>
    80001036:	05b2                	sll	a1,a1,0xc
    80001038:	fffff097          	auipc	ra,0xfffff
    8000103c:	57a080e7          	jalr	1402(ra) # 800005b2 <mappages>
    80001040:	02054863          	bltz	a0,80001070 <proc_pagetable+0x66>
  if(mappages(pagetable, TRAPFRAME, PGSIZE,
    80001044:	4719                	li	a4,6
    80001046:	05893683          	ld	a3,88(s2)
    8000104a:	6605                	lui	a2,0x1
    8000104c:	020005b7          	lui	a1,0x2000
    80001050:	15fd                	add	a1,a1,-1 # 1ffffff <_entry-0x7e000001>
    80001052:	05b6                	sll	a1,a1,0xd
    80001054:	8526                	mv	a0,s1
    80001056:	fffff097          	auipc	ra,0xfffff
    8000105a:	55c080e7          	jalr	1372(ra) # 800005b2 <mappages>
    8000105e:	02054163          	bltz	a0,80001080 <proc_pagetable+0x76>
}
    80001062:	8526                	mv	a0,s1
    80001064:	60e2                	ld	ra,24(sp)
    80001066:	6442                	ld	s0,16(sp)
    80001068:	64a2                	ld	s1,8(sp)
    8000106a:	6902                	ld	s2,0(sp)
    8000106c:	6105                	add	sp,sp,32
    8000106e:	8082                	ret
    uvmfree(pagetable, 0);
    80001070:	4581                	li	a1,0
    80001072:	8526                	mv	a0,s1
    80001074:	00000097          	auipc	ra,0x0
    80001078:	a10080e7          	jalr	-1520(ra) # 80000a84 <uvmfree>
    return 0;
    8000107c:	4481                	li	s1,0
    8000107e:	b7d5                	j	80001062 <proc_pagetable+0x58>
    uvmunmap(pagetable, TRAMPOLINE, 1, 0);
    80001080:	4681                	li	a3,0
    80001082:	4605                	li	a2,1
    80001084:	040005b7          	lui	a1,0x4000
    80001088:	15fd                	add	a1,a1,-1 # 3ffffff <_entry-0x7c000001>
    8000108a:	05b2                	sll	a1,a1,0xc
    8000108c:	8526                	mv	a0,s1
    8000108e:	fffff097          	auipc	ra,0xfffff
    80001092:	708080e7          	jalr	1800(ra) # 80000796 <uvmunmap>
    uvmfree(pagetable, 0);
    80001096:	4581                	li	a1,0
    80001098:	8526                	mv	a0,s1
    8000109a:	00000097          	auipc	ra,0x0
    8000109e:	9ea080e7          	jalr	-1558(ra) # 80000a84 <uvmfree>
    return 0;
    800010a2:	4481                	li	s1,0
    800010a4:	bf7d                	j	80001062 <proc_pagetable+0x58>

00000000800010a6 <proc_freepagetable>:
{
    800010a6:	1101                	add	sp,sp,-32
    800010a8:	ec06                	sd	ra,24(sp)
    800010aa:	e822                	sd	s0,16(sp)
    800010ac:	e426                	sd	s1,8(sp)
    800010ae:	e04a                	sd	s2,0(sp)
    800010b0:	1000                	add	s0,sp,32
    800010b2:	84aa                	mv	s1,a0
    800010b4:	892e                	mv	s2,a1
  uvmunmap(pagetable, TRAMPOLINE, 1, 0);
    800010b6:	4681                	li	a3,0
    800010b8:	4605                	li	a2,1
    800010ba:	040005b7          	lui	a1,0x4000
    800010be:	15fd                	add	a1,a1,-1 # 3ffffff <_entry-0x7c000001>
    800010c0:	05b2                	sll	a1,a1,0xc
    800010c2:	fffff097          	auipc	ra,0xfffff
    800010c6:	6d4080e7          	jalr	1748(ra) # 80000796 <uvmunmap>
  uvmunmap(pagetable, TRAPFRAME, 1, 0);
    800010ca:	4681                	li	a3,0
    800010cc:	4605                	li	a2,1
    800010ce:	020005b7          	lui	a1,0x2000
    800010d2:	15fd                	add	a1,a1,-1 # 1ffffff <_entry-0x7e000001>
    800010d4:	05b6                	sll	a1,a1,0xd
    800010d6:	8526                	mv	a0,s1
    800010d8:	fffff097          	auipc	ra,0xfffff
    800010dc:	6be080e7          	jalr	1726(ra) # 80000796 <uvmunmap>
  uvmfree(pagetable, sz);
    800010e0:	85ca                	mv	a1,s2
    800010e2:	8526                	mv	a0,s1
    800010e4:	00000097          	auipc	ra,0x0
    800010e8:	9a0080e7          	jalr	-1632(ra) # 80000a84 <uvmfree>
}
    800010ec:	60e2                	ld	ra,24(sp)
    800010ee:	6442                	ld	s0,16(sp)
    800010f0:	64a2                	ld	s1,8(sp)
    800010f2:	6902                	ld	s2,0(sp)
    800010f4:	6105                	add	sp,sp,32
    800010f6:	8082                	ret

00000000800010f8 <freeproc>:
{
    800010f8:	1101                	add	sp,sp,-32
    800010fa:	ec06                	sd	ra,24(sp)
    800010fc:	e822                	sd	s0,16(sp)
    800010fe:	e426                	sd	s1,8(sp)
    80001100:	1000                	add	s0,sp,32
    80001102:	84aa                	mv	s1,a0
  if(p->trapframe)
    80001104:	6d28                	ld	a0,88(a0)
    80001106:	c509                	beqz	a0,80001110 <freeproc+0x18>
    kfree((void*)p->trapframe);
    80001108:	fffff097          	auipc	ra,0xfffff
    8000110c:	f14080e7          	jalr	-236(ra) # 8000001c <kfree>
  p->trapframe = 0;
    80001110:	0404bc23          	sd	zero,88(s1)
  if(p->pagetable)
    80001114:	68a8                	ld	a0,80(s1)
    80001116:	c511                	beqz	a0,80001122 <freeproc+0x2a>
    proc_freepagetable(p->pagetable, p->sz);
    80001118:	64ac                	ld	a1,72(s1)
    8000111a:	00000097          	auipc	ra,0x0
    8000111e:	f8c080e7          	jalr	-116(ra) # 800010a6 <proc_freepagetable>
  p->pagetable = 0;
    80001122:	0404b823          	sd	zero,80(s1)
  p->sz = 0;
    80001126:	0404b423          	sd	zero,72(s1)
  p->pid = 0;
    8000112a:	0204ac23          	sw	zero,56(s1)
  p->parent = 0;
    8000112e:	0204b023          	sd	zero,32(s1)
  p->name[0] = 0;
    80001132:	5c048c23          	sb	zero,1496(s1)
  p->chan = 0;
    80001136:	0204b423          	sd	zero,40(s1)
  p->killed = 0;
    8000113a:	0204a823          	sw	zero,48(s1)
  p->xstate = 0;
    8000113e:	0204aa23          	sw	zero,52(s1)
  p->state = UNUSED;
    80001142:	0004ac23          	sw	zero,24(s1)
}
    80001146:	60e2                	ld	ra,24(sp)
    80001148:	6442                	ld	s0,16(sp)
    8000114a:	64a2                	ld	s1,8(sp)
    8000114c:	6105                	add	sp,sp,32
    8000114e:	8082                	ret

0000000080001150 <allocproc>:
{
    80001150:	1101                	add	sp,sp,-32
    80001152:	ec06                	sd	ra,24(sp)
    80001154:	e822                	sd	s0,16(sp)
    80001156:	e426                	sd	s1,8(sp)
    80001158:	e04a                	sd	s2,0(sp)
    8000115a:	1000                	add	s0,sp,32
  for(p = proc; p < &proc[NPROC]; p++) {
    8000115c:	0000b497          	auipc	s1,0xb
    80001160:	32c48493          	add	s1,s1,812 # 8000c488 <proc>
    80001164:	00023917          	auipc	s2,0x23
    80001168:	d2490913          	add	s2,s2,-732 # 80023e88 <tickslock>
    acquire(&p->lock);
    8000116c:	8526                	mv	a0,s1
    8000116e:	00008097          	auipc	ra,0x8
    80001172:	704080e7          	jalr	1796(ra) # 80009872 <acquire>
    if(p->state == UNUSED) {
    80001176:	4c9c                	lw	a5,24(s1)
    80001178:	cf81                	beqz	a5,80001190 <allocproc+0x40>
      release(&p->lock);
    8000117a:	8526                	mv	a0,s1
    8000117c:	00008097          	auipc	ra,0x8
    80001180:	7bc080e7          	jalr	1980(ra) # 80009938 <release>
  for(p = proc; p < &proc[NPROC]; p++) {
    80001184:	5e848493          	add	s1,s1,1512
    80001188:	ff2492e3          	bne	s1,s2,8000116c <allocproc+0x1c>
  return 0;
    8000118c:	4481                	li	s1,0
    8000118e:	a0b9                	j	800011dc <allocproc+0x8c>
  p->pid = allocpid();
    80001190:	00000097          	auipc	ra,0x0
    80001194:	e34080e7          	jalr	-460(ra) # 80000fc4 <allocpid>
    80001198:	dc88                	sw	a0,56(s1)
  if((p->trapframe = (struct trapframe *)kalloc()) == 0){
    8000119a:	fffff097          	auipc	ra,0xfffff
    8000119e:	f80080e7          	jalr	-128(ra) # 8000011a <kalloc>
    800011a2:	892a                	mv	s2,a0
    800011a4:	eca8                	sd	a0,88(s1)
    800011a6:	c131                	beqz	a0,800011ea <allocproc+0x9a>
  p->pagetable = proc_pagetable(p);
    800011a8:	8526                	mv	a0,s1
    800011aa:	00000097          	auipc	ra,0x0
    800011ae:	e60080e7          	jalr	-416(ra) # 8000100a <proc_pagetable>
    800011b2:	892a                	mv	s2,a0
    800011b4:	e8a8                	sd	a0,80(s1)
  if(p->pagetable == 0){
    800011b6:	c129                	beqz	a0,800011f8 <allocproc+0xa8>
  memset(&p->context, 0, sizeof(p->context));
    800011b8:	07000613          	li	a2,112
    800011bc:	4581                	li	a1,0
    800011be:	06048513          	add	a0,s1,96
    800011c2:	fffff097          	auipc	ra,0xfffff
    800011c6:	fb8080e7          	jalr	-72(ra) # 8000017a <memset>
  p->context.ra = (uint64)forkret;
    800011ca:	00000797          	auipc	a5,0x0
    800011ce:	db478793          	add	a5,a5,-588 # 80000f7e <forkret>
    800011d2:	f0bc                	sd	a5,96(s1)
  p->context.sp = p->kstack + PGSIZE;
    800011d4:	60bc                	ld	a5,64(s1)
    800011d6:	6705                	lui	a4,0x1
    800011d8:	97ba                	add	a5,a5,a4
    800011da:	f4bc                	sd	a5,104(s1)
}
    800011dc:	8526                	mv	a0,s1
    800011de:	60e2                	ld	ra,24(sp)
    800011e0:	6442                	ld	s0,16(sp)
    800011e2:	64a2                	ld	s1,8(sp)
    800011e4:	6902                	ld	s2,0(sp)
    800011e6:	6105                	add	sp,sp,32
    800011e8:	8082                	ret
    release(&p->lock);
    800011ea:	8526                	mv	a0,s1
    800011ec:	00008097          	auipc	ra,0x8
    800011f0:	74c080e7          	jalr	1868(ra) # 80009938 <release>
    return 0;
    800011f4:	84ca                	mv	s1,s2
    800011f6:	b7dd                	j	800011dc <allocproc+0x8c>
    freeproc(p);
    800011f8:	8526                	mv	a0,s1
    800011fa:	00000097          	auipc	ra,0x0
    800011fe:	efe080e7          	jalr	-258(ra) # 800010f8 <freeproc>
    release(&p->lock);
    80001202:	8526                	mv	a0,s1
    80001204:	00008097          	auipc	ra,0x8
    80001208:	734080e7          	jalr	1844(ra) # 80009938 <release>
    return 0;
    8000120c:	84ca                	mv	s1,s2
    8000120e:	b7f9                	j	800011dc <allocproc+0x8c>

0000000080001210 <userinit>:
{
    80001210:	1101                	add	sp,sp,-32
    80001212:	ec06                	sd	ra,24(sp)
    80001214:	e822                	sd	s0,16(sp)
    80001216:	e426                	sd	s1,8(sp)
    80001218:	1000                	add	s0,sp,32
  p = allocproc();
    8000121a:	00000097          	auipc	ra,0x0
    8000121e:	f36080e7          	jalr	-202(ra) # 80001150 <allocproc>
    80001222:	84aa                	mv	s1,a0
  initproc = p;
    80001224:	0000b797          	auipc	a5,0xb
    80001228:	dea7b623          	sd	a0,-532(a5) # 8000c010 <initproc>
  uvminit(p->pagetable, initcode, sizeof(initcode));
    8000122c:	03400613          	li	a2,52
    80001230:	0000b597          	auipc	a1,0xb
    80001234:	94058593          	add	a1,a1,-1728 # 8000bb70 <initcode>
    80001238:	6928                	ld	a0,80(a0)
    8000123a:	fffff097          	auipc	ra,0xfffff
    8000123e:	672080e7          	jalr	1650(ra) # 800008ac <uvminit>
  p->sz = PGSIZE;
    80001242:	6785                	lui	a5,0x1
    80001244:	e4bc                	sd	a5,72(s1)
  p->trapframe->epc = 0;      // user program counter
    80001246:	6cb8                	ld	a4,88(s1)
    80001248:	00073c23          	sd	zero,24(a4) # 1018 <_entry-0x7fffefe8>
  p->trapframe->sp = PGSIZE;  // user stack pointer
    8000124c:	6cb8                	ld	a4,88(s1)
    8000124e:	fb1c                	sd	a5,48(a4)
  safestrcpy(p->name, "initcode", sizeof(p->name));
    80001250:	4641                	li	a2,16
    80001252:	0000a597          	auipc	a1,0xa
    80001256:	f3e58593          	add	a1,a1,-194 # 8000b190 <etext+0x190>
    8000125a:	5d848513          	add	a0,s1,1496
    8000125e:	fffff097          	auipc	ra,0xfffff
    80001262:	066080e7          	jalr	102(ra) # 800002c4 <safestrcpy>
  p->cwd = namei("/");
    80001266:	0000a517          	auipc	a0,0xa
    8000126a:	f3a50513          	add	a0,a0,-198 # 8000b1a0 <etext+0x1a0>
    8000126e:	00002097          	auipc	ra,0x2
    80001272:	12c080e7          	jalr	300(ra) # 8000339a <namei>
    80001276:	5ca4b823          	sd	a0,1488(s1)
  p->state = RUNNABLE;
    8000127a:	4789                	li	a5,2
    8000127c:	cc9c                	sw	a5,24(s1)
  release(&p->lock);
    8000127e:	8526                	mv	a0,s1
    80001280:	00008097          	auipc	ra,0x8
    80001284:	6b8080e7          	jalr	1720(ra) # 80009938 <release>
}
    80001288:	60e2                	ld	ra,24(sp)
    8000128a:	6442                	ld	s0,16(sp)
    8000128c:	64a2                	ld	s1,8(sp)
    8000128e:	6105                	add	sp,sp,32
    80001290:	8082                	ret

0000000080001292 <growproc>:
{
    80001292:	1101                	add	sp,sp,-32
    80001294:	ec06                	sd	ra,24(sp)
    80001296:	e822                	sd	s0,16(sp)
    80001298:	e426                	sd	s1,8(sp)
    8000129a:	e04a                	sd	s2,0(sp)
    8000129c:	1000                	add	s0,sp,32
    8000129e:	84aa                	mv	s1,a0
  struct proc *p = myproc();
    800012a0:	00000097          	auipc	ra,0x0
    800012a4:	ca6080e7          	jalr	-858(ra) # 80000f46 <myproc>
    800012a8:	892a                	mv	s2,a0
  sz = p->sz;
    800012aa:	652c                	ld	a1,72(a0)
    800012ac:	0005879b          	sext.w	a5,a1
  if(n > 0){
    800012b0:	00904f63          	bgtz	s1,800012ce <growproc+0x3c>
  } else if(n < 0){
    800012b4:	0204cd63          	bltz	s1,800012ee <growproc+0x5c>
  p->sz = sz;
    800012b8:	1782                	sll	a5,a5,0x20
    800012ba:	9381                	srl	a5,a5,0x20
    800012bc:	04f93423          	sd	a5,72(s2)
  return 0;
    800012c0:	4501                	li	a0,0
}
    800012c2:	60e2                	ld	ra,24(sp)
    800012c4:	6442                	ld	s0,16(sp)
    800012c6:	64a2                	ld	s1,8(sp)
    800012c8:	6902                	ld	s2,0(sp)
    800012ca:	6105                	add	sp,sp,32
    800012cc:	8082                	ret
    if((sz = uvmalloc(p->pagetable, sz, sz + n)) == 0) {
    800012ce:	00f4863b          	addw	a2,s1,a5
    800012d2:	1602                	sll	a2,a2,0x20
    800012d4:	9201                	srl	a2,a2,0x20
    800012d6:	1582                	sll	a1,a1,0x20
    800012d8:	9181                	srl	a1,a1,0x20
    800012da:	6928                	ld	a0,80(a0)
    800012dc:	fffff097          	auipc	ra,0xfffff
    800012e0:	68a080e7          	jalr	1674(ra) # 80000966 <uvmalloc>
    800012e4:	0005079b          	sext.w	a5,a0
    800012e8:	fbe1                	bnez	a5,800012b8 <growproc+0x26>
      return -1;
    800012ea:	557d                	li	a0,-1
    800012ec:	bfd9                	j	800012c2 <growproc+0x30>
    sz = uvmdealloc(p->pagetable, sz, sz + n);
    800012ee:	00f4863b          	addw	a2,s1,a5
    800012f2:	1602                	sll	a2,a2,0x20
    800012f4:	9201                	srl	a2,a2,0x20
    800012f6:	1582                	sll	a1,a1,0x20
    800012f8:	9181                	srl	a1,a1,0x20
    800012fa:	6928                	ld	a0,80(a0)
    800012fc:	fffff097          	auipc	ra,0xfffff
    80001300:	622080e7          	jalr	1570(ra) # 8000091e <uvmdealloc>
    80001304:	0005079b          	sext.w	a5,a0
    80001308:	bf45                	j	800012b8 <growproc+0x26>

000000008000130a <fork>:
{
    8000130a:	7139                	add	sp,sp,-64
    8000130c:	fc06                	sd	ra,56(sp)
    8000130e:	f822                	sd	s0,48(sp)
    80001310:	f426                	sd	s1,40(sp)
    80001312:	e456                	sd	s5,8(sp)
    80001314:	0080                	add	s0,sp,64
  struct proc *p = myproc();
    80001316:	00000097          	auipc	ra,0x0
    8000131a:	c30080e7          	jalr	-976(ra) # 80000f46 <myproc>
    8000131e:	8aaa                	mv	s5,a0
  if((np = allocproc()) == 0){
    80001320:	00000097          	auipc	ra,0x0
    80001324:	e30080e7          	jalr	-464(ra) # 80001150 <allocproc>
    80001328:	c57d                	beqz	a0,80001416 <fork+0x10c>
    8000132a:	e852                	sd	s4,16(sp)
    8000132c:	8a2a                	mv	s4,a0
  if(uvmcopy(p->pagetable, np->pagetable, p->sz) < 0){
    8000132e:	048ab603          	ld	a2,72(s5)
    80001332:	692c                	ld	a1,80(a0)
    80001334:	050ab503          	ld	a0,80(s5)
    80001338:	fffff097          	auipc	ra,0xfffff
    8000133c:	786080e7          	jalr	1926(ra) # 80000abe <uvmcopy>
    80001340:	04054c63          	bltz	a0,80001398 <fork+0x8e>
    80001344:	f04a                	sd	s2,32(sp)
    80001346:	ec4e                	sd	s3,24(sp)
  np->sz = p->sz;
    80001348:	048ab783          	ld	a5,72(s5)
    8000134c:	04fa3423          	sd	a5,72(s4)
  np->parent = p;
    80001350:	035a3023          	sd	s5,32(s4)
  *(np->trapframe) = *(p->trapframe);
    80001354:	058ab683          	ld	a3,88(s5)
    80001358:	87b6                	mv	a5,a3
    8000135a:	058a3703          	ld	a4,88(s4)
    8000135e:	12068693          	add	a3,a3,288
    80001362:	0007b803          	ld	a6,0(a5) # 1000 <_entry-0x7ffff000>
    80001366:	6788                	ld	a0,8(a5)
    80001368:	6b8c                	ld	a1,16(a5)
    8000136a:	6f90                	ld	a2,24(a5)
    8000136c:	01073023          	sd	a6,0(a4)
    80001370:	e708                	sd	a0,8(a4)
    80001372:	eb0c                	sd	a1,16(a4)
    80001374:	ef10                	sd	a2,24(a4)
    80001376:	02078793          	add	a5,a5,32
    8000137a:	02070713          	add	a4,a4,32
    8000137e:	fed792e3          	bne	a5,a3,80001362 <fork+0x58>
  np->trapframe->a0 = 0;
    80001382:	058a3783          	ld	a5,88(s4)
    80001386:	0607b823          	sd	zero,112(a5)
  for(i = 0; i < NOFILE; i++)
    8000138a:	0d0a8493          	add	s1,s5,208
    8000138e:	0d0a0913          	add	s2,s4,208
    80001392:	5d0a8993          	add	s3,s5,1488
    80001396:	a805                	j	800013c6 <fork+0xbc>
    freeproc(np);
    80001398:	8552                	mv	a0,s4
    8000139a:	00000097          	auipc	ra,0x0
    8000139e:	d5e080e7          	jalr	-674(ra) # 800010f8 <freeproc>
    release(&np->lock);
    800013a2:	8552                	mv	a0,s4
    800013a4:	00008097          	auipc	ra,0x8
    800013a8:	594080e7          	jalr	1428(ra) # 80009938 <release>
    return -1;
    800013ac:	54fd                	li	s1,-1
    800013ae:	6a42                	ld	s4,16(sp)
    800013b0:	a8a1                	j	80001408 <fork+0xfe>
      np->ofile[i] = filedup(p->ofile[i]);
    800013b2:	00002097          	auipc	ra,0x2
    800013b6:	668080e7          	jalr	1640(ra) # 80003a1a <filedup>
    800013ba:	00a93023          	sd	a0,0(s2)
  for(i = 0; i < NOFILE; i++)
    800013be:	04a1                	add	s1,s1,8
    800013c0:	0921                	add	s2,s2,8
    800013c2:	01348563          	beq	s1,s3,800013cc <fork+0xc2>
    if(p->ofile[i])
    800013c6:	6088                	ld	a0,0(s1)
    800013c8:	f56d                	bnez	a0,800013b2 <fork+0xa8>
    800013ca:	bfd5                	j	800013be <fork+0xb4>
  np->cwd = idup(p->cwd);
    800013cc:	5d0ab503          	ld	a0,1488(s5)
    800013d0:	00001097          	auipc	ra,0x1
    800013d4:	7ba080e7          	jalr	1978(ra) # 80002b8a <idup>
    800013d8:	5caa3823          	sd	a0,1488(s4)
  safestrcpy(np->name, p->name, sizeof(p->name));
    800013dc:	4641                	li	a2,16
    800013de:	5d8a8593          	add	a1,s5,1496
    800013e2:	5d8a0513          	add	a0,s4,1496
    800013e6:	fffff097          	auipc	ra,0xfffff
    800013ea:	ede080e7          	jalr	-290(ra) # 800002c4 <safestrcpy>
  pid = np->pid;
    800013ee:	038a2483          	lw	s1,56(s4)
  np->state = RUNNABLE;
    800013f2:	4789                	li	a5,2
    800013f4:	00fa2c23          	sw	a5,24(s4)
  release(&np->lock);
    800013f8:	8552                	mv	a0,s4
    800013fa:	00008097          	auipc	ra,0x8
    800013fe:	53e080e7          	jalr	1342(ra) # 80009938 <release>
  return pid;
    80001402:	7902                	ld	s2,32(sp)
    80001404:	69e2                	ld	s3,24(sp)
    80001406:	6a42                	ld	s4,16(sp)
}
    80001408:	8526                	mv	a0,s1
    8000140a:	70e2                	ld	ra,56(sp)
    8000140c:	7442                	ld	s0,48(sp)
    8000140e:	74a2                	ld	s1,40(sp)
    80001410:	6aa2                	ld	s5,8(sp)
    80001412:	6121                	add	sp,sp,64
    80001414:	8082                	ret
    return -1;
    80001416:	54fd                	li	s1,-1
    80001418:	bfc5                	j	80001408 <fork+0xfe>

000000008000141a <reparent>:
{
    8000141a:	7179                	add	sp,sp,-48
    8000141c:	f406                	sd	ra,40(sp)
    8000141e:	f022                	sd	s0,32(sp)
    80001420:	ec26                	sd	s1,24(sp)
    80001422:	e84a                	sd	s2,16(sp)
    80001424:	e44e                	sd	s3,8(sp)
    80001426:	e052                	sd	s4,0(sp)
    80001428:	1800                	add	s0,sp,48
    8000142a:	892a                	mv	s2,a0
  for(pp = proc; pp < &proc[NPROC]; pp++){
    8000142c:	0000b497          	auipc	s1,0xb
    80001430:	05c48493          	add	s1,s1,92 # 8000c488 <proc>
      pp->parent = initproc;
    80001434:	0000ba17          	auipc	s4,0xb
    80001438:	bdca0a13          	add	s4,s4,-1060 # 8000c010 <initproc>
  for(pp = proc; pp < &proc[NPROC]; pp++){
    8000143c:	00023997          	auipc	s3,0x23
    80001440:	a4c98993          	add	s3,s3,-1460 # 80023e88 <tickslock>
    80001444:	a029                	j	8000144e <reparent+0x34>
    80001446:	5e848493          	add	s1,s1,1512
    8000144a:	03348363          	beq	s1,s3,80001470 <reparent+0x56>
    if(pp->parent == p){
    8000144e:	709c                	ld	a5,32(s1)
    80001450:	ff279be3          	bne	a5,s2,80001446 <reparent+0x2c>
      acquire(&pp->lock);
    80001454:	8526                	mv	a0,s1
    80001456:	00008097          	auipc	ra,0x8
    8000145a:	41c080e7          	jalr	1052(ra) # 80009872 <acquire>
      pp->parent = initproc;
    8000145e:	000a3783          	ld	a5,0(s4)
    80001462:	f09c                	sd	a5,32(s1)
      release(&pp->lock);
    80001464:	8526                	mv	a0,s1
    80001466:	00008097          	auipc	ra,0x8
    8000146a:	4d2080e7          	jalr	1234(ra) # 80009938 <release>
    8000146e:	bfe1                	j	80001446 <reparent+0x2c>
}
    80001470:	70a2                	ld	ra,40(sp)
    80001472:	7402                	ld	s0,32(sp)
    80001474:	64e2                	ld	s1,24(sp)
    80001476:	6942                	ld	s2,16(sp)
    80001478:	69a2                	ld	s3,8(sp)
    8000147a:	6a02                	ld	s4,0(sp)
    8000147c:	6145                	add	sp,sp,48
    8000147e:	8082                	ret

0000000080001480 <scheduler>:
{
    80001480:	715d                	add	sp,sp,-80
    80001482:	e486                	sd	ra,72(sp)
    80001484:	e0a2                	sd	s0,64(sp)
    80001486:	fc26                	sd	s1,56(sp)
    80001488:	f84a                	sd	s2,48(sp)
    8000148a:	f44e                	sd	s3,40(sp)
    8000148c:	f052                	sd	s4,32(sp)
    8000148e:	ec56                	sd	s5,24(sp)
    80001490:	e85a                	sd	s6,16(sp)
    80001492:	e45e                	sd	s7,8(sp)
    80001494:	e062                	sd	s8,0(sp)
    80001496:	0880                	add	s0,sp,80
    80001498:	8792                	mv	a5,tp
  int id = r_tp();
    8000149a:	2781                	sext.w	a5,a5
  c->proc = 0;
    8000149c:	00779b93          	sll	s7,a5,0x7
    800014a0:	0000b717          	auipc	a4,0xb
    800014a4:	bd070713          	add	a4,a4,-1072 # 8000c070 <pid_lock>
    800014a8:	975e                	add	a4,a4,s7
    800014aa:	00073c23          	sd	zero,24(a4)
        swtch(&c->context, &p->context);
    800014ae:	0000b717          	auipc	a4,0xb
    800014b2:	be270713          	add	a4,a4,-1054 # 8000c090 <cpus+0x8>
    800014b6:	9bba                	add	s7,s7,a4
    int nproc = 0;
    800014b8:	4c01                	li	s8,0
      if(p->state == RUNNABLE) {
    800014ba:	4a09                	li	s4,2
        c->proc = p;
    800014bc:	079e                	sll	a5,a5,0x7
    800014be:	0000ba97          	auipc	s5,0xb
    800014c2:	bb2a8a93          	add	s5,s5,-1102 # 8000c070 <pid_lock>
    800014c6:	9abe                	add	s5,s5,a5
    for(p = proc; p < &proc[NPROC]; p++) {
    800014c8:	00023997          	auipc	s3,0x23
    800014cc:	9c098993          	add	s3,s3,-1600 # 80023e88 <tickslock>
    800014d0:	a8a1                	j	80001528 <scheduler+0xa8>
      release(&p->lock);
    800014d2:	8526                	mv	a0,s1
    800014d4:	00008097          	auipc	ra,0x8
    800014d8:	464080e7          	jalr	1124(ra) # 80009938 <release>
    for(p = proc; p < &proc[NPROC]; p++) {
    800014dc:	5e848493          	add	s1,s1,1512
    800014e0:	03348a63          	beq	s1,s3,80001514 <scheduler+0x94>
      acquire(&p->lock);
    800014e4:	8526                	mv	a0,s1
    800014e6:	00008097          	auipc	ra,0x8
    800014ea:	38c080e7          	jalr	908(ra) # 80009872 <acquire>
      if(p->state != UNUSED) {
    800014ee:	4c9c                	lw	a5,24(s1)
    800014f0:	d3ed                	beqz	a5,800014d2 <scheduler+0x52>
        nproc++;
    800014f2:	2905                	addw	s2,s2,1
      if(p->state == RUNNABLE) {
    800014f4:	fd479fe3          	bne	a5,s4,800014d2 <scheduler+0x52>
        p->state = RUNNING;
    800014f8:	0164ac23          	sw	s6,24(s1)
        c->proc = p;
    800014fc:	009abc23          	sd	s1,24(s5)
        swtch(&c->context, &p->context);
    80001500:	06048593          	add	a1,s1,96
    80001504:	855e                	mv	a0,s7
    80001506:	00000097          	auipc	ra,0x0
    8000150a:	60e080e7          	jalr	1550(ra) # 80001b14 <swtch>
        c->proc = 0;
    8000150e:	000abc23          	sd	zero,24(s5)
    80001512:	b7c1                	j	800014d2 <scheduler+0x52>
    if(nproc <= 2) {   // only init and sh exist
    80001514:	012a4a63          	blt	s4,s2,80001528 <scheduler+0xa8>
  asm volatile("csrr %0, sstatus" : "=r" (x) );
    80001518:	100027f3          	csrr	a5,sstatus
  w_sstatus(r_sstatus() | SSTATUS_SIE);
    8000151c:	0027e793          	or	a5,a5,2
  asm volatile("csrw sstatus, %0" : : "r" (x));
    80001520:	10079073          	csrw	sstatus,a5
      asm volatile("wfi");
    80001524:	10500073          	wfi
  asm volatile("csrr %0, sstatus" : "=r" (x) );
    80001528:	100027f3          	csrr	a5,sstatus
  w_sstatus(r_sstatus() | SSTATUS_SIE);
    8000152c:	0027e793          	or	a5,a5,2
  asm volatile("csrw sstatus, %0" : : "r" (x));
    80001530:	10079073          	csrw	sstatus,a5
    int nproc = 0;
    80001534:	8962                	mv	s2,s8
    for(p = proc; p < &proc[NPROC]; p++) {
    80001536:	0000b497          	auipc	s1,0xb
    8000153a:	f5248493          	add	s1,s1,-174 # 8000c488 <proc>
        p->state = RUNNING;
    8000153e:	4b0d                	li	s6,3
    80001540:	b755                	j	800014e4 <scheduler+0x64>

0000000080001542 <sched>:
{
    80001542:	7179                	add	sp,sp,-48
    80001544:	f406                	sd	ra,40(sp)
    80001546:	f022                	sd	s0,32(sp)
    80001548:	ec26                	sd	s1,24(sp)
    8000154a:	e84a                	sd	s2,16(sp)
    8000154c:	e44e                	sd	s3,8(sp)
    8000154e:	1800                	add	s0,sp,48
  struct proc *p = myproc();
    80001550:	00000097          	auipc	ra,0x0
    80001554:	9f6080e7          	jalr	-1546(ra) # 80000f46 <myproc>
    80001558:	84aa                	mv	s1,a0
  if(!holding(&p->lock))
    8000155a:	00008097          	auipc	ra,0x8
    8000155e:	29e080e7          	jalr	670(ra) # 800097f8 <holding>
    80001562:	c93d                	beqz	a0,800015d8 <sched+0x96>
  asm volatile("mv %0, tp" : "=r" (x) );
    80001564:	8792                	mv	a5,tp
  if(mycpu()->noff != 1)
    80001566:	2781                	sext.w	a5,a5
    80001568:	079e                	sll	a5,a5,0x7
    8000156a:	0000b717          	auipc	a4,0xb
    8000156e:	b0670713          	add	a4,a4,-1274 # 8000c070 <pid_lock>
    80001572:	97ba                	add	a5,a5,a4
    80001574:	0907a703          	lw	a4,144(a5)
    80001578:	4785                	li	a5,1
    8000157a:	06f71763          	bne	a4,a5,800015e8 <sched+0xa6>
  if(p->state == RUNNING)
    8000157e:	4c98                	lw	a4,24(s1)
    80001580:	478d                	li	a5,3
    80001582:	06f70b63          	beq	a4,a5,800015f8 <sched+0xb6>
  asm volatile("csrr %0, sstatus" : "=r" (x) );
    80001586:	100027f3          	csrr	a5,sstatus
  return (x & SSTATUS_SIE) != 0;
    8000158a:	8b89                	and	a5,a5,2
  if(intr_get())
    8000158c:	efb5                	bnez	a5,80001608 <sched+0xc6>
  asm volatile("mv %0, tp" : "=r" (x) );
    8000158e:	8792                	mv	a5,tp
  intena = mycpu()->intena;
    80001590:	0000b917          	auipc	s2,0xb
    80001594:	ae090913          	add	s2,s2,-1312 # 8000c070 <pid_lock>
    80001598:	2781                	sext.w	a5,a5
    8000159a:	079e                	sll	a5,a5,0x7
    8000159c:	97ca                	add	a5,a5,s2
    8000159e:	0947a983          	lw	s3,148(a5)
    800015a2:	8792                	mv	a5,tp
  swtch(&p->context, &mycpu()->context);
    800015a4:	2781                	sext.w	a5,a5
    800015a6:	079e                	sll	a5,a5,0x7
    800015a8:	0000b597          	auipc	a1,0xb
    800015ac:	ae858593          	add	a1,a1,-1304 # 8000c090 <cpus+0x8>
    800015b0:	95be                	add	a1,a1,a5
    800015b2:	06048513          	add	a0,s1,96
    800015b6:	00000097          	auipc	ra,0x0
    800015ba:	55e080e7          	jalr	1374(ra) # 80001b14 <swtch>
    800015be:	8792                	mv	a5,tp
  mycpu()->intena = intena;
    800015c0:	2781                	sext.w	a5,a5
    800015c2:	079e                	sll	a5,a5,0x7
    800015c4:	993e                	add	s2,s2,a5
    800015c6:	09392a23          	sw	s3,148(s2)
}
    800015ca:	70a2                	ld	ra,40(sp)
    800015cc:	7402                	ld	s0,32(sp)
    800015ce:	64e2                	ld	s1,24(sp)
    800015d0:	6942                	ld	s2,16(sp)
    800015d2:	69a2                	ld	s3,8(sp)
    800015d4:	6145                	add	sp,sp,48
    800015d6:	8082                	ret
    panic("sched p->lock");
    800015d8:	0000a517          	auipc	a0,0xa
    800015dc:	bd050513          	add	a0,a0,-1072 # 8000b1a8 <etext+0x1a8>
    800015e0:	00008097          	auipc	ra,0x8
    800015e4:	cf8080e7          	jalr	-776(ra) # 800092d8 <panic>
    panic("sched locks");
    800015e8:	0000a517          	auipc	a0,0xa
    800015ec:	bd050513          	add	a0,a0,-1072 # 8000b1b8 <etext+0x1b8>
    800015f0:	00008097          	auipc	ra,0x8
    800015f4:	ce8080e7          	jalr	-792(ra) # 800092d8 <panic>
    panic("sched running");
    800015f8:	0000a517          	auipc	a0,0xa
    800015fc:	bd050513          	add	a0,a0,-1072 # 8000b1c8 <etext+0x1c8>
    80001600:	00008097          	auipc	ra,0x8
    80001604:	cd8080e7          	jalr	-808(ra) # 800092d8 <panic>
    panic("sched interruptible");
    80001608:	0000a517          	auipc	a0,0xa
    8000160c:	bd050513          	add	a0,a0,-1072 # 8000b1d8 <etext+0x1d8>
    80001610:	00008097          	auipc	ra,0x8
    80001614:	cc8080e7          	jalr	-824(ra) # 800092d8 <panic>

0000000080001618 <exit>:
{
    80001618:	7179                	add	sp,sp,-48
    8000161a:	f406                	sd	ra,40(sp)
    8000161c:	f022                	sd	s0,32(sp)
    8000161e:	ec26                	sd	s1,24(sp)
    80001620:	e84a                	sd	s2,16(sp)
    80001622:	e44e                	sd	s3,8(sp)
    80001624:	e052                	sd	s4,0(sp)
    80001626:	1800                	add	s0,sp,48
    80001628:	8a2a                	mv	s4,a0
  struct proc *p = myproc();
    8000162a:	00000097          	auipc	ra,0x0
    8000162e:	91c080e7          	jalr	-1764(ra) # 80000f46 <myproc>
    80001632:	89aa                	mv	s3,a0
  if(p == initproc)
    80001634:	0000b797          	auipc	a5,0xb
    80001638:	9dc7b783          	ld	a5,-1572(a5) # 8000c010 <initproc>
    8000163c:	0d050493          	add	s1,a0,208
    80001640:	5d050913          	add	s2,a0,1488
    80001644:	02a79363          	bne	a5,a0,8000166a <exit+0x52>
    panic("init exiting");
    80001648:	0000a517          	auipc	a0,0xa
    8000164c:	ba850513          	add	a0,a0,-1112 # 8000b1f0 <etext+0x1f0>
    80001650:	00008097          	auipc	ra,0x8
    80001654:	c88080e7          	jalr	-888(ra) # 800092d8 <panic>
      fileclose(f);
    80001658:	00002097          	auipc	ra,0x2
    8000165c:	414080e7          	jalr	1044(ra) # 80003a6c <fileclose>
      p->ofile[fd] = 0;
    80001660:	0004b023          	sd	zero,0(s1)
  for(int fd = 0; fd < NOFILE; fd++){
    80001664:	04a1                	add	s1,s1,8
    80001666:	01248563          	beq	s1,s2,80001670 <exit+0x58>
    if(p->ofile[fd]){
    8000166a:	6088                	ld	a0,0(s1)
    8000166c:	f575                	bnez	a0,80001658 <exit+0x40>
    8000166e:	bfdd                	j	80001664 <exit+0x4c>
  begin_op();
    80001670:	00002097          	auipc	ra,0x2
    80001674:	f2a080e7          	jalr	-214(ra) # 8000359a <begin_op>
  iput(p->cwd);
    80001678:	5d09b503          	ld	a0,1488(s3)
    8000167c:	00001097          	auipc	ra,0x1
    80001680:	70a080e7          	jalr	1802(ra) # 80002d86 <iput>
  end_op();
    80001684:	00002097          	auipc	ra,0x2
    80001688:	f90080e7          	jalr	-112(ra) # 80003614 <end_op>
  p->cwd = 0;
    8000168c:	5c09b823          	sd	zero,1488(s3)
  acquire(&initproc->lock);
    80001690:	0000b497          	auipc	s1,0xb
    80001694:	98048493          	add	s1,s1,-1664 # 8000c010 <initproc>
    80001698:	6088                	ld	a0,0(s1)
    8000169a:	00008097          	auipc	ra,0x8
    8000169e:	1d8080e7          	jalr	472(ra) # 80009872 <acquire>
  wakeup1(initproc);
    800016a2:	6088                	ld	a0,0(s1)
    800016a4:	fffff097          	auipc	ra,0xfffff
    800016a8:	6f4080e7          	jalr	1780(ra) # 80000d98 <wakeup1>
  release(&initproc->lock);
    800016ac:	6088                	ld	a0,0(s1)
    800016ae:	00008097          	auipc	ra,0x8
    800016b2:	28a080e7          	jalr	650(ra) # 80009938 <release>
  acquire(&p->lock);
    800016b6:	854e                	mv	a0,s3
    800016b8:	00008097          	auipc	ra,0x8
    800016bc:	1ba080e7          	jalr	442(ra) # 80009872 <acquire>
  struct proc *original_parent = p->parent;
    800016c0:	0209b483          	ld	s1,32(s3)
  release(&p->lock);
    800016c4:	854e                	mv	a0,s3
    800016c6:	00008097          	auipc	ra,0x8
    800016ca:	272080e7          	jalr	626(ra) # 80009938 <release>
  acquire(&original_parent->lock);
    800016ce:	8526                	mv	a0,s1
    800016d0:	00008097          	auipc	ra,0x8
    800016d4:	1a2080e7          	jalr	418(ra) # 80009872 <acquire>
  acquire(&p->lock);
    800016d8:	854e                	mv	a0,s3
    800016da:	00008097          	auipc	ra,0x8
    800016de:	198080e7          	jalr	408(ra) # 80009872 <acquire>
  reparent(p);
    800016e2:	854e                	mv	a0,s3
    800016e4:	00000097          	auipc	ra,0x0
    800016e8:	d36080e7          	jalr	-714(ra) # 8000141a <reparent>
  wakeup1(original_parent);
    800016ec:	8526                	mv	a0,s1
    800016ee:	fffff097          	auipc	ra,0xfffff
    800016f2:	6aa080e7          	jalr	1706(ra) # 80000d98 <wakeup1>
  p->xstate = status;
    800016f6:	0349aa23          	sw	s4,52(s3)
  p->state = ZOMBIE;
    800016fa:	4791                	li	a5,4
    800016fc:	00f9ac23          	sw	a5,24(s3)
  release(&original_parent->lock);
    80001700:	8526                	mv	a0,s1
    80001702:	00008097          	auipc	ra,0x8
    80001706:	236080e7          	jalr	566(ra) # 80009938 <release>
  sched();
    8000170a:	00000097          	auipc	ra,0x0
    8000170e:	e38080e7          	jalr	-456(ra) # 80001542 <sched>
  panic("zombie exit");
    80001712:	0000a517          	auipc	a0,0xa
    80001716:	aee50513          	add	a0,a0,-1298 # 8000b200 <etext+0x200>
    8000171a:	00008097          	auipc	ra,0x8
    8000171e:	bbe080e7          	jalr	-1090(ra) # 800092d8 <panic>

0000000080001722 <yield>:
{
    80001722:	1101                	add	sp,sp,-32
    80001724:	ec06                	sd	ra,24(sp)
    80001726:	e822                	sd	s0,16(sp)
    80001728:	e426                	sd	s1,8(sp)
    8000172a:	1000                	add	s0,sp,32
  struct proc *p = myproc();
    8000172c:	00000097          	auipc	ra,0x0
    80001730:	81a080e7          	jalr	-2022(ra) # 80000f46 <myproc>
    80001734:	84aa                	mv	s1,a0
  acquire(&p->lock);
    80001736:	00008097          	auipc	ra,0x8
    8000173a:	13c080e7          	jalr	316(ra) # 80009872 <acquire>
  p->state = RUNNABLE;
    8000173e:	4789                	li	a5,2
    80001740:	cc9c                	sw	a5,24(s1)
  sched();
    80001742:	00000097          	auipc	ra,0x0
    80001746:	e00080e7          	jalr	-512(ra) # 80001542 <sched>
  release(&p->lock);
    8000174a:	8526                	mv	a0,s1
    8000174c:	00008097          	auipc	ra,0x8
    80001750:	1ec080e7          	jalr	492(ra) # 80009938 <release>
}
    80001754:	60e2                	ld	ra,24(sp)
    80001756:	6442                	ld	s0,16(sp)
    80001758:	64a2                	ld	s1,8(sp)
    8000175a:	6105                	add	sp,sp,32
    8000175c:	8082                	ret

000000008000175e <sleep>:
{
    8000175e:	7179                	add	sp,sp,-48
    80001760:	f406                	sd	ra,40(sp)
    80001762:	f022                	sd	s0,32(sp)
    80001764:	ec26                	sd	s1,24(sp)
    80001766:	e84a                	sd	s2,16(sp)
    80001768:	e44e                	sd	s3,8(sp)
    8000176a:	1800                	add	s0,sp,48
    8000176c:	89aa                	mv	s3,a0
    8000176e:	892e                	mv	s2,a1
  struct proc *p = myproc();
    80001770:	fffff097          	auipc	ra,0xfffff
    80001774:	7d6080e7          	jalr	2006(ra) # 80000f46 <myproc>
    80001778:	84aa                	mv	s1,a0
  if(lk != &p->lock){  //DOC: sleeplock0
    8000177a:	05250663          	beq	a0,s2,800017c6 <sleep+0x68>
    acquire(&p->lock);  //DOC: sleeplock1
    8000177e:	00008097          	auipc	ra,0x8
    80001782:	0f4080e7          	jalr	244(ra) # 80009872 <acquire>
    release(lk);
    80001786:	854a                	mv	a0,s2
    80001788:	00008097          	auipc	ra,0x8
    8000178c:	1b0080e7          	jalr	432(ra) # 80009938 <release>
  p->chan = chan;
    80001790:	0334b423          	sd	s3,40(s1)
  p->state = SLEEPING;
    80001794:	4785                	li	a5,1
    80001796:	cc9c                	sw	a5,24(s1)
  sched();
    80001798:	00000097          	auipc	ra,0x0
    8000179c:	daa080e7          	jalr	-598(ra) # 80001542 <sched>
  p->chan = 0;
    800017a0:	0204b423          	sd	zero,40(s1)
    release(&p->lock);
    800017a4:	8526                	mv	a0,s1
    800017a6:	00008097          	auipc	ra,0x8
    800017aa:	192080e7          	jalr	402(ra) # 80009938 <release>
    acquire(lk);
    800017ae:	854a                	mv	a0,s2
    800017b0:	00008097          	auipc	ra,0x8
    800017b4:	0c2080e7          	jalr	194(ra) # 80009872 <acquire>
}
    800017b8:	70a2                	ld	ra,40(sp)
    800017ba:	7402                	ld	s0,32(sp)
    800017bc:	64e2                	ld	s1,24(sp)
    800017be:	6942                	ld	s2,16(sp)
    800017c0:	69a2                	ld	s3,8(sp)
    800017c2:	6145                	add	sp,sp,48
    800017c4:	8082                	ret
  p->chan = chan;
    800017c6:	03353423          	sd	s3,40(a0)
  p->state = SLEEPING;
    800017ca:	4785                	li	a5,1
    800017cc:	cd1c                	sw	a5,24(a0)
  sched();
    800017ce:	00000097          	auipc	ra,0x0
    800017d2:	d74080e7          	jalr	-652(ra) # 80001542 <sched>
  p->chan = 0;
    800017d6:	0204b423          	sd	zero,40(s1)
  if(lk != &p->lock){
    800017da:	bff9                	j	800017b8 <sleep+0x5a>

00000000800017dc <wait>:
{
    800017dc:	715d                	add	sp,sp,-80
    800017de:	e486                	sd	ra,72(sp)
    800017e0:	e0a2                	sd	s0,64(sp)
    800017e2:	fc26                	sd	s1,56(sp)
    800017e4:	f84a                	sd	s2,48(sp)
    800017e6:	f44e                	sd	s3,40(sp)
    800017e8:	f052                	sd	s4,32(sp)
    800017ea:	ec56                	sd	s5,24(sp)
    800017ec:	e85a                	sd	s6,16(sp)
    800017ee:	e45e                	sd	s7,8(sp)
    800017f0:	0880                	add	s0,sp,80
    800017f2:	8b2a                	mv	s6,a0
  struct proc *p = myproc();
    800017f4:	fffff097          	auipc	ra,0xfffff
    800017f8:	752080e7          	jalr	1874(ra) # 80000f46 <myproc>
    800017fc:	892a                	mv	s2,a0
  acquire(&p->lock);
    800017fe:	00008097          	auipc	ra,0x8
    80001802:	074080e7          	jalr	116(ra) # 80009872 <acquire>
    havekids = 0;
    80001806:	4b81                	li	s7,0
        if(np->state == ZOMBIE){
    80001808:	4a11                	li	s4,4
        havekids = 1;
    8000180a:	4a85                	li	s5,1
    for(np = proc; np < &proc[NPROC]; np++){
    8000180c:	00022997          	auipc	s3,0x22
    80001810:	67c98993          	add	s3,s3,1660 # 80023e88 <tickslock>
    80001814:	a845                	j	800018c4 <wait+0xe8>
          pid = np->pid;
    80001816:	0384a983          	lw	s3,56(s1)
          if(addr != 0 && copyout(p->pagetable, addr, (char *)&np->xstate,
    8000181a:	000b0e63          	beqz	s6,80001836 <wait+0x5a>
    8000181e:	4691                	li	a3,4
    80001820:	03448613          	add	a2,s1,52
    80001824:	85da                	mv	a1,s6
    80001826:	05093503          	ld	a0,80(s2)
    8000182a:	fffff097          	auipc	ra,0xfffff
    8000182e:	398080e7          	jalr	920(ra) # 80000bc2 <copyout>
    80001832:	02054d63          	bltz	a0,8000186c <wait+0x90>
          freeproc(np);
    80001836:	8526                	mv	a0,s1
    80001838:	00000097          	auipc	ra,0x0
    8000183c:	8c0080e7          	jalr	-1856(ra) # 800010f8 <freeproc>
          release(&np->lock);
    80001840:	8526                	mv	a0,s1
    80001842:	00008097          	auipc	ra,0x8
    80001846:	0f6080e7          	jalr	246(ra) # 80009938 <release>
          release(&p->lock);
    8000184a:	854a                	mv	a0,s2
    8000184c:	00008097          	auipc	ra,0x8
    80001850:	0ec080e7          	jalr	236(ra) # 80009938 <release>
}
    80001854:	854e                	mv	a0,s3
    80001856:	60a6                	ld	ra,72(sp)
    80001858:	6406                	ld	s0,64(sp)
    8000185a:	74e2                	ld	s1,56(sp)
    8000185c:	7942                	ld	s2,48(sp)
    8000185e:	79a2                	ld	s3,40(sp)
    80001860:	7a02                	ld	s4,32(sp)
    80001862:	6ae2                	ld	s5,24(sp)
    80001864:	6b42                	ld	s6,16(sp)
    80001866:	6ba2                	ld	s7,8(sp)
    80001868:	6161                	add	sp,sp,80
    8000186a:	8082                	ret
            release(&np->lock);
    8000186c:	8526                	mv	a0,s1
    8000186e:	00008097          	auipc	ra,0x8
    80001872:	0ca080e7          	jalr	202(ra) # 80009938 <release>
            release(&p->lock);
    80001876:	854a                	mv	a0,s2
    80001878:	00008097          	auipc	ra,0x8
    8000187c:	0c0080e7          	jalr	192(ra) # 80009938 <release>
            return -1;
    80001880:	59fd                	li	s3,-1
    80001882:	bfc9                	j	80001854 <wait+0x78>
    for(np = proc; np < &proc[NPROC]; np++){
    80001884:	5e848493          	add	s1,s1,1512
    80001888:	03348463          	beq	s1,s3,800018b0 <wait+0xd4>
      if(np->parent == p){
    8000188c:	709c                	ld	a5,32(s1)
    8000188e:	ff279be3          	bne	a5,s2,80001884 <wait+0xa8>
        acquire(&np->lock);
    80001892:	8526                	mv	a0,s1
    80001894:	00008097          	auipc	ra,0x8
    80001898:	fde080e7          	jalr	-34(ra) # 80009872 <acquire>
        if(np->state == ZOMBIE){
    8000189c:	4c9c                	lw	a5,24(s1)
    8000189e:	f7478ce3          	beq	a5,s4,80001816 <wait+0x3a>
        release(&np->lock);
    800018a2:	8526                	mv	a0,s1
    800018a4:	00008097          	auipc	ra,0x8
    800018a8:	094080e7          	jalr	148(ra) # 80009938 <release>
        havekids = 1;
    800018ac:	8756                	mv	a4,s5
    800018ae:	bfd9                	j	80001884 <wait+0xa8>
    if(!havekids || p->killed){
    800018b0:	c305                	beqz	a4,800018d0 <wait+0xf4>
    800018b2:	03092783          	lw	a5,48(s2)
    800018b6:	ef89                	bnez	a5,800018d0 <wait+0xf4>
    sleep(p, &p->lock);  //DOC: wait-sleep
    800018b8:	85ca                	mv	a1,s2
    800018ba:	854a                	mv	a0,s2
    800018bc:	00000097          	auipc	ra,0x0
    800018c0:	ea2080e7          	jalr	-350(ra) # 8000175e <sleep>
    havekids = 0;
    800018c4:	875e                	mv	a4,s7
    for(np = proc; np < &proc[NPROC]; np++){
    800018c6:	0000b497          	auipc	s1,0xb
    800018ca:	bc248493          	add	s1,s1,-1086 # 8000c488 <proc>
    800018ce:	bf7d                	j	8000188c <wait+0xb0>
      release(&p->lock);
    800018d0:	854a                	mv	a0,s2
    800018d2:	00008097          	auipc	ra,0x8
    800018d6:	066080e7          	jalr	102(ra) # 80009938 <release>
      return -1;
    800018da:	59fd                	li	s3,-1
    800018dc:	bfa5                	j	80001854 <wait+0x78>

00000000800018de <wakeup>:
{
    800018de:	7139                	add	sp,sp,-64
    800018e0:	fc06                	sd	ra,56(sp)
    800018e2:	f822                	sd	s0,48(sp)
    800018e4:	f426                	sd	s1,40(sp)
    800018e6:	f04a                	sd	s2,32(sp)
    800018e8:	ec4e                	sd	s3,24(sp)
    800018ea:	e852                	sd	s4,16(sp)
    800018ec:	e456                	sd	s5,8(sp)
    800018ee:	0080                	add	s0,sp,64
    800018f0:	8a2a                	mv	s4,a0
  for(p = proc; p < &proc[NPROC]; p++) {
    800018f2:	0000b497          	auipc	s1,0xb
    800018f6:	b9648493          	add	s1,s1,-1130 # 8000c488 <proc>
    if(p->state == SLEEPING && p->chan == chan) {
    800018fa:	4985                	li	s3,1
      p->state = RUNNABLE;
    800018fc:	4a89                	li	s5,2
  for(p = proc; p < &proc[NPROC]; p++) {
    800018fe:	00022917          	auipc	s2,0x22
    80001902:	58a90913          	add	s2,s2,1418 # 80023e88 <tickslock>
    80001906:	a811                	j	8000191a <wakeup+0x3c>
    release(&p->lock);
    80001908:	8526                	mv	a0,s1
    8000190a:	00008097          	auipc	ra,0x8
    8000190e:	02e080e7          	jalr	46(ra) # 80009938 <release>
  for(p = proc; p < &proc[NPROC]; p++) {
    80001912:	5e848493          	add	s1,s1,1512
    80001916:	03248063          	beq	s1,s2,80001936 <wakeup+0x58>
    acquire(&p->lock);
    8000191a:	8526                	mv	a0,s1
    8000191c:	00008097          	auipc	ra,0x8
    80001920:	f56080e7          	jalr	-170(ra) # 80009872 <acquire>
    if(p->state == SLEEPING && p->chan == chan) {
    80001924:	4c9c                	lw	a5,24(s1)
    80001926:	ff3791e3          	bne	a5,s3,80001908 <wakeup+0x2a>
    8000192a:	749c                	ld	a5,40(s1)
    8000192c:	fd479ee3          	bne	a5,s4,80001908 <wakeup+0x2a>
      p->state = RUNNABLE;
    80001930:	0154ac23          	sw	s5,24(s1)
    80001934:	bfd1                	j	80001908 <wakeup+0x2a>
}
    80001936:	70e2                	ld	ra,56(sp)
    80001938:	7442                	ld	s0,48(sp)
    8000193a:	74a2                	ld	s1,40(sp)
    8000193c:	7902                	ld	s2,32(sp)
    8000193e:	69e2                	ld	s3,24(sp)
    80001940:	6a42                	ld	s4,16(sp)
    80001942:	6aa2                	ld	s5,8(sp)
    80001944:	6121                	add	sp,sp,64
    80001946:	8082                	ret

0000000080001948 <kill>:
// Kill the process with the given pid.
// The victim won't exit until it tries to return
// to user space (see usertrap() in trap.c).
int
kill(int pid)
{
    80001948:	7179                	add	sp,sp,-48
    8000194a:	f406                	sd	ra,40(sp)
    8000194c:	f022                	sd	s0,32(sp)
    8000194e:	ec26                	sd	s1,24(sp)
    80001950:	e84a                	sd	s2,16(sp)
    80001952:	e44e                	sd	s3,8(sp)
    80001954:	1800                	add	s0,sp,48
    80001956:	892a                	mv	s2,a0
  struct proc *p;

  for(p = proc; p < &proc[NPROC]; p++){
    80001958:	0000b497          	auipc	s1,0xb
    8000195c:	b3048493          	add	s1,s1,-1232 # 8000c488 <proc>
    80001960:	00022997          	auipc	s3,0x22
    80001964:	52898993          	add	s3,s3,1320 # 80023e88 <tickslock>
    acquire(&p->lock);
    80001968:	8526                	mv	a0,s1
    8000196a:	00008097          	auipc	ra,0x8
    8000196e:	f08080e7          	jalr	-248(ra) # 80009872 <acquire>
    if(p->pid == pid){
    80001972:	5c9c                	lw	a5,56(s1)
    80001974:	01278d63          	beq	a5,s2,8000198e <kill+0x46>
        p->state = RUNNABLE;
      }
      release(&p->lock);
      return 0;
    }
    release(&p->lock);
    80001978:	8526                	mv	a0,s1
    8000197a:	00008097          	auipc	ra,0x8
    8000197e:	fbe080e7          	jalr	-66(ra) # 80009938 <release>
  for(p = proc; p < &proc[NPROC]; p++){
    80001982:	5e848493          	add	s1,s1,1512
    80001986:	ff3491e3          	bne	s1,s3,80001968 <kill+0x20>
  }
  return -1;
    8000198a:	557d                	li	a0,-1
    8000198c:	a821                	j	800019a4 <kill+0x5c>
      p->killed = 1;
    8000198e:	4785                	li	a5,1
    80001990:	d89c                	sw	a5,48(s1)
      if(p->state == SLEEPING){
    80001992:	4c98                	lw	a4,24(s1)
    80001994:	00f70f63          	beq	a4,a5,800019b2 <kill+0x6a>
      release(&p->lock);
    80001998:	8526                	mv	a0,s1
    8000199a:	00008097          	auipc	ra,0x8
    8000199e:	f9e080e7          	jalr	-98(ra) # 80009938 <release>
      return 0;
    800019a2:	4501                	li	a0,0
}
    800019a4:	70a2                	ld	ra,40(sp)
    800019a6:	7402                	ld	s0,32(sp)
    800019a8:	64e2                	ld	s1,24(sp)
    800019aa:	6942                	ld	s2,16(sp)
    800019ac:	69a2                	ld	s3,8(sp)
    800019ae:	6145                	add	sp,sp,48
    800019b0:	8082                	ret
        p->state = RUNNABLE;
    800019b2:	4789                	li	a5,2
    800019b4:	cc9c                	sw	a5,24(s1)
    800019b6:	b7cd                	j	80001998 <kill+0x50>

00000000800019b8 <either_copyout>:
// Copy to either a user address, or kernel address,
// depending on usr_dst.
// Returns 0 on success, -1 on error.
int
either_copyout(int user_dst, uint64 dst, void *src, uint64 len)
{
    800019b8:	7179                	add	sp,sp,-48
    800019ba:	f406                	sd	ra,40(sp)
    800019bc:	f022                	sd	s0,32(sp)
    800019be:	ec26                	sd	s1,24(sp)
    800019c0:	e84a                	sd	s2,16(sp)
    800019c2:	e44e                	sd	s3,8(sp)
    800019c4:	e052                	sd	s4,0(sp)
    800019c6:	1800                	add	s0,sp,48
    800019c8:	84aa                	mv	s1,a0
    800019ca:	892e                	mv	s2,a1
    800019cc:	89b2                	mv	s3,a2
    800019ce:	8a36                	mv	s4,a3
  struct proc *p = myproc();
    800019d0:	fffff097          	auipc	ra,0xfffff
    800019d4:	576080e7          	jalr	1398(ra) # 80000f46 <myproc>
  if(user_dst){
    800019d8:	c08d                	beqz	s1,800019fa <either_copyout+0x42>
    return copyout(p->pagetable, dst, src, len);
    800019da:	86d2                	mv	a3,s4
    800019dc:	864e                	mv	a2,s3
    800019de:	85ca                	mv	a1,s2
    800019e0:	6928                	ld	a0,80(a0)
    800019e2:	fffff097          	auipc	ra,0xfffff
    800019e6:	1e0080e7          	jalr	480(ra) # 80000bc2 <copyout>
  } else {
    memmove((char *)dst, src, len);
    return 0;
  }
}
    800019ea:	70a2                	ld	ra,40(sp)
    800019ec:	7402                	ld	s0,32(sp)
    800019ee:	64e2                	ld	s1,24(sp)
    800019f0:	6942                	ld	s2,16(sp)
    800019f2:	69a2                	ld	s3,8(sp)
    800019f4:	6a02                	ld	s4,0(sp)
    800019f6:	6145                	add	sp,sp,48
    800019f8:	8082                	ret
    memmove((char *)dst, src, len);
    800019fa:	000a061b          	sext.w	a2,s4
    800019fe:	85ce                	mv	a1,s3
    80001a00:	854a                	mv	a0,s2
    80001a02:	ffffe097          	auipc	ra,0xffffe
    80001a06:	7d4080e7          	jalr	2004(ra) # 800001d6 <memmove>
    return 0;
    80001a0a:	8526                	mv	a0,s1
    80001a0c:	bff9                	j	800019ea <either_copyout+0x32>

0000000080001a0e <either_copyin>:
// Copy from either a user address, or kernel address,
// depending on usr_src.
// Returns 0 on success, -1 on error.
int
either_copyin(void *dst, int user_src, uint64 src, uint64 len)
{
    80001a0e:	7179                	add	sp,sp,-48
    80001a10:	f406                	sd	ra,40(sp)
    80001a12:	f022                	sd	s0,32(sp)
    80001a14:	ec26                	sd	s1,24(sp)
    80001a16:	e84a                	sd	s2,16(sp)
    80001a18:	e44e                	sd	s3,8(sp)
    80001a1a:	e052                	sd	s4,0(sp)
    80001a1c:	1800                	add	s0,sp,48
    80001a1e:	892a                	mv	s2,a0
    80001a20:	84ae                	mv	s1,a1
    80001a22:	89b2                	mv	s3,a2
    80001a24:	8a36                	mv	s4,a3
  struct proc *p = myproc();
    80001a26:	fffff097          	auipc	ra,0xfffff
    80001a2a:	520080e7          	jalr	1312(ra) # 80000f46 <myproc>
  if(user_src){
    80001a2e:	c08d                	beqz	s1,80001a50 <either_copyin+0x42>
    return copyin(p->pagetable, dst, src, len);
    80001a30:	86d2                	mv	a3,s4
    80001a32:	864e                	mv	a2,s3
    80001a34:	85ca                	mv	a1,s2
    80001a36:	6928                	ld	a0,80(a0)
    80001a38:	fffff097          	auipc	ra,0xfffff
    80001a3c:	216080e7          	jalr	534(ra) # 80000c4e <copyin>
  } else {
    memmove(dst, (char*)src, len);
    return 0;
  }
}
    80001a40:	70a2                	ld	ra,40(sp)
    80001a42:	7402                	ld	s0,32(sp)
    80001a44:	64e2                	ld	s1,24(sp)
    80001a46:	6942                	ld	s2,16(sp)
    80001a48:	69a2                	ld	s3,8(sp)
    80001a4a:	6a02                	ld	s4,0(sp)
    80001a4c:	6145                	add	sp,sp,48
    80001a4e:	8082                	ret
    memmove(dst, (char*)src, len);
    80001a50:	000a061b          	sext.w	a2,s4
    80001a54:	85ce                	mv	a1,s3
    80001a56:	854a                	mv	a0,s2
    80001a58:	ffffe097          	auipc	ra,0xffffe
    80001a5c:	77e080e7          	jalr	1918(ra) # 800001d6 <memmove>
    return 0;
    80001a60:	8526                	mv	a0,s1
    80001a62:	bff9                	j	80001a40 <either_copyin+0x32>

0000000080001a64 <procdump>:
// Print a process listing to console.  For debugging.
// Runs when user types ^P on console.
// No lock to avoid wedging a stuck machine further.
void
procdump(void)
{
    80001a64:	715d                	add	sp,sp,-80
    80001a66:	e486                	sd	ra,72(sp)
    80001a68:	e0a2                	sd	s0,64(sp)
    80001a6a:	fc26                	sd	s1,56(sp)
    80001a6c:	f84a                	sd	s2,48(sp)
    80001a6e:	f44e                	sd	s3,40(sp)
    80001a70:	f052                	sd	s4,32(sp)
    80001a72:	ec56                	sd	s5,24(sp)
    80001a74:	e85a                	sd	s6,16(sp)
    80001a76:	e45e                	sd	s7,8(sp)
    80001a78:	0880                	add	s0,sp,80
  [ZOMBIE]    "zombie"
  };
  struct proc *p;
  char *state;

  printf("\n");
    80001a7a:	00009517          	auipc	a0,0x9
    80001a7e:	5be50513          	add	a0,a0,1470 # 8000b038 <etext+0x38>
    80001a82:	00008097          	auipc	ra,0x8
    80001a86:	8a0080e7          	jalr	-1888(ra) # 80009322 <printf>
  for(p = proc; p < &proc[NPROC]; p++){
    80001a8a:	0000b497          	auipc	s1,0xb
    80001a8e:	fd648493          	add	s1,s1,-42 # 8000ca60 <proc+0x5d8>
    80001a92:	00023917          	auipc	s2,0x23
    80001a96:	9ce90913          	add	s2,s2,-1586 # 80024460 <bcache+0x5c0>
    if(p->state == UNUSED)
      continue;
    if(p->state >= 0 && p->state < NELEM(states) && states[p->state])
    80001a9a:	4b11                	li	s6,4
      state = states[p->state];
    else
      state = "???";
    80001a9c:	00009997          	auipc	s3,0x9
    80001aa0:	77498993          	add	s3,s3,1908 # 8000b210 <etext+0x210>
    printf("%d %s %s", p->pid, state, p->name);
    80001aa4:	00009a97          	auipc	s5,0x9
    80001aa8:	774a8a93          	add	s5,s5,1908 # 8000b218 <etext+0x218>
    printf("\n");
    80001aac:	00009a17          	auipc	s4,0x9
    80001ab0:	58ca0a13          	add	s4,s4,1420 # 8000b038 <etext+0x38>
    if(p->state >= 0 && p->state < NELEM(states) && states[p->state])
    80001ab4:	0000ab97          	auipc	s7,0xa
    80001ab8:	e6cb8b93          	add	s7,s7,-404 # 8000b920 <states.0>
    80001abc:	a00d                	j	80001ade <procdump+0x7a>
    printf("%d %s %s", p->pid, state, p->name);
    80001abe:	a606a583          	lw	a1,-1440(a3)
    80001ac2:	8556                	mv	a0,s5
    80001ac4:	00008097          	auipc	ra,0x8
    80001ac8:	85e080e7          	jalr	-1954(ra) # 80009322 <printf>
    printf("\n");
    80001acc:	8552                	mv	a0,s4
    80001ace:	00008097          	auipc	ra,0x8
    80001ad2:	854080e7          	jalr	-1964(ra) # 80009322 <printf>
  for(p = proc; p < &proc[NPROC]; p++){
    80001ad6:	5e848493          	add	s1,s1,1512
    80001ada:	03248263          	beq	s1,s2,80001afe <procdump+0x9a>
    if(p->state == UNUSED)
    80001ade:	86a6                	mv	a3,s1
    80001ae0:	a404a783          	lw	a5,-1472(s1)
    80001ae4:	dbed                	beqz	a5,80001ad6 <procdump+0x72>
      state = "???";
    80001ae6:	864e                	mv	a2,s3
    if(p->state >= 0 && p->state < NELEM(states) && states[p->state])
    80001ae8:	fcfb6be3          	bltu	s6,a5,80001abe <procdump+0x5a>
    80001aec:	02079713          	sll	a4,a5,0x20
    80001af0:	01d75793          	srl	a5,a4,0x1d
    80001af4:	97de                	add	a5,a5,s7
    80001af6:	6390                	ld	a2,0(a5)
    80001af8:	f279                	bnez	a2,80001abe <procdump+0x5a>
      state = "???";
    80001afa:	864e                	mv	a2,s3
    80001afc:	b7c9                	j	80001abe <procdump+0x5a>
  }
}
    80001afe:	60a6                	ld	ra,72(sp)
    80001b00:	6406                	ld	s0,64(sp)
    80001b02:	74e2                	ld	s1,56(sp)
    80001b04:	7942                	ld	s2,48(sp)
    80001b06:	79a2                	ld	s3,40(sp)
    80001b08:	7a02                	ld	s4,32(sp)
    80001b0a:	6ae2                	ld	s5,24(sp)
    80001b0c:	6b42                	ld	s6,16(sp)
    80001b0e:	6ba2                	ld	s7,8(sp)
    80001b10:	6161                	add	sp,sp,80
    80001b12:	8082                	ret

0000000080001b14 <swtch>:
    80001b14:	00153023          	sd	ra,0(a0)
    80001b18:	00253423          	sd	sp,8(a0)
    80001b1c:	e900                	sd	s0,16(a0)
    80001b1e:	ed04                	sd	s1,24(a0)
    80001b20:	03253023          	sd	s2,32(a0)
    80001b24:	03353423          	sd	s3,40(a0)
    80001b28:	03453823          	sd	s4,48(a0)
    80001b2c:	03553c23          	sd	s5,56(a0)
    80001b30:	05653023          	sd	s6,64(a0)
    80001b34:	05753423          	sd	s7,72(a0)
    80001b38:	05853823          	sd	s8,80(a0)
    80001b3c:	05953c23          	sd	s9,88(a0)
    80001b40:	07a53023          	sd	s10,96(a0)
    80001b44:	07b53423          	sd	s11,104(a0)
    80001b48:	0005b083          	ld	ra,0(a1)
    80001b4c:	0085b103          	ld	sp,8(a1)
    80001b50:	6980                	ld	s0,16(a1)
    80001b52:	6d84                	ld	s1,24(a1)
    80001b54:	0205b903          	ld	s2,32(a1)
    80001b58:	0285b983          	ld	s3,40(a1)
    80001b5c:	0305ba03          	ld	s4,48(a1)
    80001b60:	0385ba83          	ld	s5,56(a1)
    80001b64:	0405bb03          	ld	s6,64(a1)
    80001b68:	0485bb83          	ld	s7,72(a1)
    80001b6c:	0505bc03          	ld	s8,80(a1)
    80001b70:	0585bc83          	ld	s9,88(a1)
    80001b74:	0605bd03          	ld	s10,96(a1)
    80001b78:	0685bd83          	ld	s11,104(a1)
    80001b7c:	8082                	ret

0000000080001b7e <trapinit>:

extern int devintr();

void
trapinit(void)
{
    80001b7e:	1141                	add	sp,sp,-16
    80001b80:	e406                	sd	ra,8(sp)
    80001b82:	e022                	sd	s0,0(sp)
    80001b84:	0800                	add	s0,sp,16
  initlock(&tickslock, "time");
    80001b86:	00009597          	auipc	a1,0x9
    80001b8a:	6ca58593          	add	a1,a1,1738 # 8000b250 <etext+0x250>
    80001b8e:	00022517          	auipc	a0,0x22
    80001b92:	2fa50513          	add	a0,a0,762 # 80023e88 <tickslock>
    80001b96:	00008097          	auipc	ra,0x8
    80001b9a:	c4c080e7          	jalr	-948(ra) # 800097e2 <initlock>
}
    80001b9e:	60a2                	ld	ra,8(sp)
    80001ba0:	6402                	ld	s0,0(sp)
    80001ba2:	0141                	add	sp,sp,16
    80001ba4:	8082                	ret

0000000080001ba6 <trapinithart>:

// set up to take exceptions and traps while in the kernel.
void
trapinithart(void)
{
    80001ba6:	1141                	add	sp,sp,-16
    80001ba8:	e422                	sd	s0,8(sp)
    80001baa:	0800                	add	s0,sp,16
  asm volatile("csrw stvec, %0" : : "r" (x));
    80001bac:	00004797          	auipc	a5,0x4
    80001bb0:	aa478793          	add	a5,a5,-1372 # 80005650 <kernelvec>
    80001bb4:	10579073          	csrw	stvec,a5
  w_stvec((uint64)kernelvec);
}
    80001bb8:	6422                	ld	s0,8(sp)
    80001bba:	0141                	add	sp,sp,16
    80001bbc:	8082                	ret

0000000080001bbe <usertrapret>:
//
// return to user space
//
void
usertrapret(void)
{
    80001bbe:	1141                	add	sp,sp,-16
    80001bc0:	e406                	sd	ra,8(sp)
    80001bc2:	e022                	sd	s0,0(sp)
    80001bc4:	0800                	add	s0,sp,16
  struct proc *p = myproc();
    80001bc6:	fffff097          	auipc	ra,0xfffff
    80001bca:	380080e7          	jalr	896(ra) # 80000f46 <myproc>
  asm volatile("csrr %0, sstatus" : "=r" (x) );
    80001bce:	100027f3          	csrr	a5,sstatus
  w_sstatus(r_sstatus() & ~SSTATUS_SIE);
    80001bd2:	9bf5                	and	a5,a5,-3
  asm volatile("csrw sstatus, %0" : : "r" (x));
    80001bd4:	10079073          	csrw	sstatus,a5
  // kerneltrap() to usertrap(), so turn off interrupts until
  // we're back in user space, where usertrap() is correct.
  intr_off();

  // send syscalls, interrupts, and exceptions to trampoline.S
  w_stvec(TRAMPOLINE + (uservec - trampoline));
    80001bd8:	00008697          	auipc	a3,0x8
    80001bdc:	42868693          	add	a3,a3,1064 # 8000a000 <_trampoline>
    80001be0:	00008717          	auipc	a4,0x8
    80001be4:	42070713          	add	a4,a4,1056 # 8000a000 <_trampoline>
    80001be8:	8f15                	sub	a4,a4,a3
    80001bea:	040007b7          	lui	a5,0x4000
    80001bee:	17fd                	add	a5,a5,-1 # 3ffffff <_entry-0x7c000001>
    80001bf0:	07b2                	sll	a5,a5,0xc
    80001bf2:	973e                	add	a4,a4,a5
  asm volatile("csrw stvec, %0" : : "r" (x));
    80001bf4:	10571073          	csrw	stvec,a4

  // set up trapframe values that uservec will need when
  // the process next re-enters the kernel.
  p->trapframe->kernel_satp = r_satp();         // kernel page table
    80001bf8:	6d38                	ld	a4,88(a0)
  asm volatile("csrr %0, satp" : "=r" (x) );
    80001bfa:	18002673          	csrr	a2,satp
    80001bfe:	e310                	sd	a2,0(a4)
  p->trapframe->kernel_sp = p->kstack + PGSIZE; // process's kernel stack
    80001c00:	6d30                	ld	a2,88(a0)
    80001c02:	6138                	ld	a4,64(a0)
    80001c04:	6585                	lui	a1,0x1
    80001c06:	972e                	add	a4,a4,a1
    80001c08:	e618                	sd	a4,8(a2)
  p->trapframe->kernel_trap = (uint64)usertrap;
    80001c0a:	6d38                	ld	a4,88(a0)
    80001c0c:	00000617          	auipc	a2,0x0
    80001c10:	16860613          	add	a2,a2,360 # 80001d74 <usertrap>
    80001c14:	eb10                	sd	a2,16(a4)
  p->trapframe->kernel_hartid = r_tp();         // hartid for cpuid()
    80001c16:	6d38                	ld	a4,88(a0)
  asm volatile("mv %0, tp" : "=r" (x) );
    80001c18:	8612                	mv	a2,tp
    80001c1a:	f310                	sd	a2,32(a4)
  asm volatile("csrr %0, sstatus" : "=r" (x) );
    80001c1c:	10002773          	csrr	a4,sstatus
  // set up the registers that trampoline.S's sret will use
  // to get to user space.
  
  // set S Previous Privilege mode to User.
  unsigned long x = r_sstatus();
  x &= ~SSTATUS_SPP; // clear SPP to 0 for user mode
    80001c20:	eff77713          	and	a4,a4,-257
  x |= SSTATUS_SPIE; // enable interrupts in user mode
    80001c24:	02076713          	or	a4,a4,32
  asm volatile("csrw sstatus, %0" : : "r" (x));
    80001c28:	10071073          	csrw	sstatus,a4
  w_sstatus(x);

  // set S Exception Program Counter to the saved user pc.
  w_sepc(p->trapframe->epc);
    80001c2c:	6d38                	ld	a4,88(a0)
  asm volatile("csrw sepc, %0" : : "r" (x));
    80001c2e:	6f18                	ld	a4,24(a4)
    80001c30:	14171073          	csrw	sepc,a4

  // tell trampoline.S the user page table to switch to.
  uint64 satp = MAKE_SATP(p->pagetable);
    80001c34:	692c                	ld	a1,80(a0)
    80001c36:	81b1                	srl	a1,a1,0xc

  // jump to trampoline.S at the top of memory, which 
  // switches to the user page table, restores user registers,
  // and switches to user mode with sret.
  uint64 fn = TRAMPOLINE + (userret - trampoline);
    80001c38:	00008717          	auipc	a4,0x8
    80001c3c:	45870713          	add	a4,a4,1112 # 8000a090 <userret>
    80001c40:	8f15                	sub	a4,a4,a3
    80001c42:	97ba                	add	a5,a5,a4
  ((void (*)(uint64,uint64))fn)(TRAPFRAME, satp);
    80001c44:	577d                	li	a4,-1
    80001c46:	177e                	sll	a4,a4,0x3f
    80001c48:	8dd9                	or	a1,a1,a4
    80001c4a:	02000537          	lui	a0,0x2000
    80001c4e:	157d                	add	a0,a0,-1 # 1ffffff <_entry-0x7e000001>
    80001c50:	0536                	sll	a0,a0,0xd
    80001c52:	9782                	jalr	a5
}
    80001c54:	60a2                	ld	ra,8(sp)
    80001c56:	6402                	ld	s0,0(sp)
    80001c58:	0141                	add	sp,sp,16
    80001c5a:	8082                	ret

0000000080001c5c <clockintr>:
  w_sstatus(sstatus);
}

void
clockintr()
{
    80001c5c:	1101                	add	sp,sp,-32
    80001c5e:	ec06                	sd	ra,24(sp)
    80001c60:	e822                	sd	s0,16(sp)
    80001c62:	e426                	sd	s1,8(sp)
    80001c64:	1000                	add	s0,sp,32
  acquire(&tickslock);
    80001c66:	00022497          	auipc	s1,0x22
    80001c6a:	22248493          	add	s1,s1,546 # 80023e88 <tickslock>
    80001c6e:	8526                	mv	a0,s1
    80001c70:	00008097          	auipc	ra,0x8
    80001c74:	c02080e7          	jalr	-1022(ra) # 80009872 <acquire>
  ticks++;
    80001c78:	0000a517          	auipc	a0,0xa
    80001c7c:	3a050513          	add	a0,a0,928 # 8000c018 <ticks>
    80001c80:	411c                	lw	a5,0(a0)
    80001c82:	2785                	addw	a5,a5,1
    80001c84:	c11c                	sw	a5,0(a0)
  wakeup(&ticks);
    80001c86:	00000097          	auipc	ra,0x0
    80001c8a:	c58080e7          	jalr	-936(ra) # 800018de <wakeup>
  release(&tickslock);
    80001c8e:	8526                	mv	a0,s1
    80001c90:	00008097          	auipc	ra,0x8
    80001c94:	ca8080e7          	jalr	-856(ra) # 80009938 <release>
}
    80001c98:	60e2                	ld	ra,24(sp)
    80001c9a:	6442                	ld	s0,16(sp)
    80001c9c:	64a2                	ld	s1,8(sp)
    80001c9e:	6105                	add	sp,sp,32
    80001ca0:	8082                	ret

0000000080001ca2 <devintr>:
  asm volatile("csrr %0, scause" : "=r" (x) );
    80001ca2:	142027f3          	csrr	a5,scause
    // the SSIP bit in sip.
    w_sip(r_sip() & ~2);

    return 2;
  } else {
    return 0;
    80001ca6:	4501                	li	a0,0
  if((scause & 0x8000000000000000L) &&
    80001ca8:	0c07d563          	bgez	a5,80001d72 <devintr+0xd0>
{
    80001cac:	1101                	add	sp,sp,-32
    80001cae:	ec06                	sd	ra,24(sp)
    80001cb0:	e822                	sd	s0,16(sp)
    80001cb2:	1000                	add	s0,sp,32
     (scause & 0xff) == 9){
    80001cb4:	0ff7f713          	zext.b	a4,a5
  if((scause & 0x8000000000000000L) &&
    80001cb8:	46a5                	li	a3,9
    80001cba:	00d70c63          	beq	a4,a3,80001cd2 <devintr+0x30>
  } else if(scause == 0x8000000000000001L){
    80001cbe:	577d                	li	a4,-1
    80001cc0:	177e                	sll	a4,a4,0x3f
    80001cc2:	0705                	add	a4,a4,1
    return 0;
    80001cc4:	4501                	li	a0,0
  } else if(scause == 0x8000000000000001L){
    80001cc6:	06e78a63          	beq	a5,a4,80001d3a <devintr+0x98>
  }
}
    80001cca:	60e2                	ld	ra,24(sp)
    80001ccc:	6442                	ld	s0,16(sp)
    80001cce:	6105                	add	sp,sp,32
    80001cd0:	8082                	ret
    80001cd2:	e426                	sd	s1,8(sp)
    int irq = plic_claim();
    80001cd4:	00004097          	auipc	ra,0x4
    80001cd8:	aa2080e7          	jalr	-1374(ra) # 80005776 <plic_claim>
    80001cdc:	84aa                	mv	s1,a0
    if(irq == UART0_IRQ){
    80001cde:	47a9                	li	a5,10
    80001ce0:	00f50d63          	beq	a0,a5,80001cfa <devintr+0x58>
    } else if(irq == VIRTIO0_IRQ){
    80001ce4:	4785                	li	a5,1
    80001ce6:	02f50663          	beq	a0,a5,80001d12 <devintr+0x70>
    else if(irq == E1000_IRQ){
    80001cea:	02100793          	li	a5,33
    80001cee:	02f50763          	beq	a0,a5,80001d1c <devintr+0x7a>
    return 1;
    80001cf2:	4505                	li	a0,1
    else if(irq){
    80001cf4:	e88d                	bnez	s1,80001d26 <devintr+0x84>
    80001cf6:	64a2                	ld	s1,8(sp)
    80001cf8:	bfc9                	j	80001cca <devintr+0x28>
      uartintr();
    80001cfa:	00008097          	auipc	ra,0x8
    80001cfe:	a98080e7          	jalr	-1384(ra) # 80009792 <uartintr>
      plic_complete(irq);
    80001d02:	8526                	mv	a0,s1
    80001d04:	00004097          	auipc	ra,0x4
    80001d08:	a96080e7          	jalr	-1386(ra) # 8000579a <plic_complete>
    return 1;
    80001d0c:	4505                	li	a0,1
    80001d0e:	64a2                	ld	s1,8(sp)
    80001d10:	bf6d                	j	80001cca <devintr+0x28>
      virtio_disk_intr();
    80001d12:	00004097          	auipc	ra,0x4
    80001d16:	f38080e7          	jalr	-200(ra) # 80005c4a <virtio_disk_intr>
    if(irq)
    80001d1a:	b7e5                	j	80001d02 <devintr+0x60>
      e1000_intr();
    80001d1c:	00004097          	auipc	ra,0x4
    80001d20:	2aa080e7          	jalr	682(ra) # 80005fc6 <e1000_intr>
    if(irq)
    80001d24:	bff9                	j	80001d02 <devintr+0x60>
      printf("unexpected interrupt irq=%d\n", irq);
    80001d26:	85a6                	mv	a1,s1
    80001d28:	00009517          	auipc	a0,0x9
    80001d2c:	53050513          	add	a0,a0,1328 # 8000b258 <etext+0x258>
    80001d30:	00007097          	auipc	ra,0x7
    80001d34:	5f2080e7          	jalr	1522(ra) # 80009322 <printf>
    if(irq)
    80001d38:	b7e9                	j	80001d02 <devintr+0x60>
    if(cpuid() == 0){
    80001d3a:	fffff097          	auipc	ra,0xfffff
    80001d3e:	1e0080e7          	jalr	480(ra) # 80000f1a <cpuid>
    80001d42:	ed01                	bnez	a0,80001d5a <devintr+0xb8>
      clockintr();
    80001d44:	00000097          	auipc	ra,0x0
    80001d48:	f18080e7          	jalr	-232(ra) # 80001c5c <clockintr>
  asm volatile("csrr %0, sip" : "=r" (x) );
    80001d4c:	144027f3          	csrr	a5,sip
    w_sip(r_sip() & ~2);
    80001d50:	9bf5                	and	a5,a5,-3
  asm volatile("csrw sip, %0" : : "r" (x));
    80001d52:	14479073          	csrw	sip,a5
    return 2;
    80001d56:	4509                	li	a0,2
    80001d58:	bf8d                	j	80001cca <devintr+0x28>
    }else if(cpuid() == 1) {
    80001d5a:	fffff097          	auipc	ra,0xfffff
    80001d5e:	1c0080e7          	jalr	448(ra) # 80000f1a <cpuid>
    80001d62:	4785                	li	a5,1
    80001d64:	fef514e3          	bne	a0,a5,80001d4c <devintr+0xaa>
      timers_exe_all();
    80001d68:	00007097          	auipc	ra,0x7
    80001d6c:	f5a080e7          	jalr	-166(ra) # 80008cc2 <timers_exe_all>
    80001d70:	bff1                	j	80001d4c <devintr+0xaa>
}
    80001d72:	8082                	ret

0000000080001d74 <usertrap>:
{
    80001d74:	1101                	add	sp,sp,-32
    80001d76:	ec06                	sd	ra,24(sp)
    80001d78:	e822                	sd	s0,16(sp)
    80001d7a:	e426                	sd	s1,8(sp)
    80001d7c:	e04a                	sd	s2,0(sp)
    80001d7e:	1000                	add	s0,sp,32
  asm volatile("csrr %0, sstatus" : "=r" (x) );
    80001d80:	100027f3          	csrr	a5,sstatus
  if((r_sstatus() & SSTATUS_SPP) != 0)
    80001d84:	1007f793          	and	a5,a5,256
    80001d88:	e3b9                	bnez	a5,80001dce <usertrap+0x5a>
  asm volatile("csrw stvec, %0" : : "r" (x));
    80001d8a:	00004797          	auipc	a5,0x4
    80001d8e:	8c678793          	add	a5,a5,-1850 # 80005650 <kernelvec>
    80001d92:	10579073          	csrw	stvec,a5
  struct proc *p = myproc();
    80001d96:	fffff097          	auipc	ra,0xfffff
    80001d9a:	1b0080e7          	jalr	432(ra) # 80000f46 <myproc>
    80001d9e:	84aa                	mv	s1,a0
  p->trapframe->epc = r_sepc();
    80001da0:	6d3c                	ld	a5,88(a0)
  asm volatile("csrr %0, sepc" : "=r" (x) );
    80001da2:	14102773          	csrr	a4,sepc
    80001da6:	ef98                	sd	a4,24(a5)
  asm volatile("csrr %0, scause" : "=r" (x) );
    80001da8:	14202773          	csrr	a4,scause
  if(r_scause() == 8){
    80001dac:	47a1                	li	a5,8
    80001dae:	02f70863          	beq	a4,a5,80001dde <usertrap+0x6a>
  } else if((which_dev = devintr()) != 0){
    80001db2:	00000097          	auipc	ra,0x0
    80001db6:	ef0080e7          	jalr	-272(ra) # 80001ca2 <devintr>
    80001dba:	892a                	mv	s2,a0
    80001dbc:	c551                	beqz	a0,80001e48 <usertrap+0xd4>
  if(lockfree_read4(&p->killed))
    80001dbe:	03048513          	add	a0,s1,48
    80001dc2:	00008097          	auipc	ra,0x8
    80001dc6:	be6080e7          	jalr	-1050(ra) # 800099a8 <lockfree_read4>
    80001dca:	cd21                	beqz	a0,80001e22 <usertrap+0xae>
    80001dcc:	a0b1                	j	80001e18 <usertrap+0xa4>
    panic("usertrap: not from user mode");
    80001dce:	00009517          	auipc	a0,0x9
    80001dd2:	4aa50513          	add	a0,a0,1194 # 8000b278 <etext+0x278>
    80001dd6:	00007097          	auipc	ra,0x7
    80001dda:	502080e7          	jalr	1282(ra) # 800092d8 <panic>
    if(lockfree_read4(&p->killed))
    80001dde:	03050513          	add	a0,a0,48
    80001de2:	00008097          	auipc	ra,0x8
    80001de6:	bc6080e7          	jalr	-1082(ra) # 800099a8 <lockfree_read4>
    80001dea:	e929                	bnez	a0,80001e3c <usertrap+0xc8>
    p->trapframe->epc += 4;
    80001dec:	6cb8                	ld	a4,88(s1)
    80001dee:	6f1c                	ld	a5,24(a4)
    80001df0:	0791                	add	a5,a5,4
    80001df2:	ef1c                	sd	a5,24(a4)
  asm volatile("csrr %0, sstatus" : "=r" (x) );
    80001df4:	100027f3          	csrr	a5,sstatus
  w_sstatus(r_sstatus() | SSTATUS_SIE);
    80001df8:	0027e793          	or	a5,a5,2
  asm volatile("csrw sstatus, %0" : : "r" (x));
    80001dfc:	10079073          	csrw	sstatus,a5
    syscall();
    80001e00:	00000097          	auipc	ra,0x0
    80001e04:	2c8080e7          	jalr	712(ra) # 800020c8 <syscall>
  if(lockfree_read4(&p->killed))
    80001e08:	03048513          	add	a0,s1,48
    80001e0c:	00008097          	auipc	ra,0x8
    80001e10:	b9c080e7          	jalr	-1124(ra) # 800099a8 <lockfree_read4>
    80001e14:	c911                	beqz	a0,80001e28 <usertrap+0xb4>
    80001e16:	4901                	li	s2,0
    exit(-1);
    80001e18:	557d                	li	a0,-1
    80001e1a:	fffff097          	auipc	ra,0xfffff
    80001e1e:	7fe080e7          	jalr	2046(ra) # 80001618 <exit>
  if(which_dev == 2)
    80001e22:	4789                	li	a5,2
    80001e24:	04f90c63          	beq	s2,a5,80001e7c <usertrap+0x108>
  usertrapret();
    80001e28:	00000097          	auipc	ra,0x0
    80001e2c:	d96080e7          	jalr	-618(ra) # 80001bbe <usertrapret>
}
    80001e30:	60e2                	ld	ra,24(sp)
    80001e32:	6442                	ld	s0,16(sp)
    80001e34:	64a2                	ld	s1,8(sp)
    80001e36:	6902                	ld	s2,0(sp)
    80001e38:	6105                	add	sp,sp,32
    80001e3a:	8082                	ret
      exit(-1);
    80001e3c:	557d                	li	a0,-1
    80001e3e:	fffff097          	auipc	ra,0xfffff
    80001e42:	7da080e7          	jalr	2010(ra) # 80001618 <exit>
    80001e46:	b75d                	j	80001dec <usertrap+0x78>
  asm volatile("csrr %0, scause" : "=r" (x) );
    80001e48:	142025f3          	csrr	a1,scause
    printf("usertrap(): unexpected scause %p pid=%d\n", r_scause(), p->pid);
    80001e4c:	5c90                	lw	a2,56(s1)
    80001e4e:	00009517          	auipc	a0,0x9
    80001e52:	44a50513          	add	a0,a0,1098 # 8000b298 <etext+0x298>
    80001e56:	00007097          	auipc	ra,0x7
    80001e5a:	4cc080e7          	jalr	1228(ra) # 80009322 <printf>
  asm volatile("csrr %0, sepc" : "=r" (x) );
    80001e5e:	141025f3          	csrr	a1,sepc
  asm volatile("csrr %0, stval" : "=r" (x) );
    80001e62:	14302673          	csrr	a2,stval
    printf("            sepc=%p stval=%p\n", r_sepc(), r_stval());
    80001e66:	00009517          	auipc	a0,0x9
    80001e6a:	46250513          	add	a0,a0,1122 # 8000b2c8 <etext+0x2c8>
    80001e6e:	00007097          	auipc	ra,0x7
    80001e72:	4b4080e7          	jalr	1204(ra) # 80009322 <printf>
    p->killed = 1;
    80001e76:	4785                	li	a5,1
    80001e78:	d89c                	sw	a5,48(s1)
    80001e7a:	b779                	j	80001e08 <usertrap+0x94>
    yield();
    80001e7c:	00000097          	auipc	ra,0x0
    80001e80:	8a6080e7          	jalr	-1882(ra) # 80001722 <yield>
    80001e84:	b755                	j	80001e28 <usertrap+0xb4>

0000000080001e86 <kerneltrap>:
{
    80001e86:	7179                	add	sp,sp,-48
    80001e88:	f406                	sd	ra,40(sp)
    80001e8a:	f022                	sd	s0,32(sp)
    80001e8c:	ec26                	sd	s1,24(sp)
    80001e8e:	e84a                	sd	s2,16(sp)
    80001e90:	e44e                	sd	s3,8(sp)
    80001e92:	1800                	add	s0,sp,48
  asm volatile("csrr %0, sepc" : "=r" (x) );
    80001e94:	14102973          	csrr	s2,sepc
  asm volatile("csrr %0, sstatus" : "=r" (x) );
    80001e98:	100024f3          	csrr	s1,sstatus
  asm volatile("csrr %0, scause" : "=r" (x) );
    80001e9c:	142029f3          	csrr	s3,scause
  if((sstatus & SSTATUS_SPP) == 0)
    80001ea0:	1004f793          	and	a5,s1,256
    80001ea4:	cb85                	beqz	a5,80001ed4 <kerneltrap+0x4e>
  asm volatile("csrr %0, sstatus" : "=r" (x) );
    80001ea6:	100027f3          	csrr	a5,sstatus
  return (x & SSTATUS_SIE) != 0;
    80001eaa:	8b89                	and	a5,a5,2
  if(intr_get() != 0)
    80001eac:	ef85                	bnez	a5,80001ee4 <kerneltrap+0x5e>
  if((which_dev = devintr()) == 0){
    80001eae:	00000097          	auipc	ra,0x0
    80001eb2:	df4080e7          	jalr	-524(ra) # 80001ca2 <devintr>
    80001eb6:	cd1d                	beqz	a0,80001ef4 <kerneltrap+0x6e>
  if(which_dev == 2 && myproc() != 0 && myproc()->state == RUNNING)
    80001eb8:	4789                	li	a5,2
    80001eba:	06f50a63          	beq	a0,a5,80001f2e <kerneltrap+0xa8>
  asm volatile("csrw sepc, %0" : : "r" (x));
    80001ebe:	14191073          	csrw	sepc,s2
  asm volatile("csrw sstatus, %0" : : "r" (x));
    80001ec2:	10049073          	csrw	sstatus,s1
}
    80001ec6:	70a2                	ld	ra,40(sp)
    80001ec8:	7402                	ld	s0,32(sp)
    80001eca:	64e2                	ld	s1,24(sp)
    80001ecc:	6942                	ld	s2,16(sp)
    80001ece:	69a2                	ld	s3,8(sp)
    80001ed0:	6145                	add	sp,sp,48
    80001ed2:	8082                	ret
    panic("kerneltrap: not from supervisor mode");
    80001ed4:	00009517          	auipc	a0,0x9
    80001ed8:	41450513          	add	a0,a0,1044 # 8000b2e8 <etext+0x2e8>
    80001edc:	00007097          	auipc	ra,0x7
    80001ee0:	3fc080e7          	jalr	1020(ra) # 800092d8 <panic>
    panic("kerneltrap: interrupts enabled");
    80001ee4:	00009517          	auipc	a0,0x9
    80001ee8:	42c50513          	add	a0,a0,1068 # 8000b310 <etext+0x310>
    80001eec:	00007097          	auipc	ra,0x7
    80001ef0:	3ec080e7          	jalr	1004(ra) # 800092d8 <panic>
    printf("scause %p\n", scause);
    80001ef4:	85ce                	mv	a1,s3
    80001ef6:	00009517          	auipc	a0,0x9
    80001efa:	43a50513          	add	a0,a0,1082 # 8000b330 <etext+0x330>
    80001efe:	00007097          	auipc	ra,0x7
    80001f02:	424080e7          	jalr	1060(ra) # 80009322 <printf>
  asm volatile("csrr %0, sepc" : "=r" (x) );
    80001f06:	141025f3          	csrr	a1,sepc
  asm volatile("csrr %0, stval" : "=r" (x) );
    80001f0a:	14302673          	csrr	a2,stval
    printf("sepc=%p stval=%p\n", r_sepc(), r_stval());
    80001f0e:	00009517          	auipc	a0,0x9
    80001f12:	43250513          	add	a0,a0,1074 # 8000b340 <etext+0x340>
    80001f16:	00007097          	auipc	ra,0x7
    80001f1a:	40c080e7          	jalr	1036(ra) # 80009322 <printf>
    panic("kerneltrap");
    80001f1e:	00009517          	auipc	a0,0x9
    80001f22:	43a50513          	add	a0,a0,1082 # 8000b358 <etext+0x358>
    80001f26:	00007097          	auipc	ra,0x7
    80001f2a:	3b2080e7          	jalr	946(ra) # 800092d8 <panic>
  if(which_dev == 2 && myproc() != 0 && myproc()->state == RUNNING)
    80001f2e:	fffff097          	auipc	ra,0xfffff
    80001f32:	018080e7          	jalr	24(ra) # 80000f46 <myproc>
    80001f36:	d541                	beqz	a0,80001ebe <kerneltrap+0x38>
    80001f38:	fffff097          	auipc	ra,0xfffff
    80001f3c:	00e080e7          	jalr	14(ra) # 80000f46 <myproc>
    80001f40:	4d18                	lw	a4,24(a0)
    80001f42:	478d                	li	a5,3
    80001f44:	f6f71de3          	bne	a4,a5,80001ebe <kerneltrap+0x38>
    yield();
    80001f48:	fffff097          	auipc	ra,0xfffff
    80001f4c:	7da080e7          	jalr	2010(ra) # 80001722 <yield>
    80001f50:	b7bd                	j	80001ebe <kerneltrap+0x38>

0000000080001f52 <argraw>:
  return strlen(buf);
}

static uint64
argraw(int n)
{
    80001f52:	1101                	add	sp,sp,-32
    80001f54:	ec06                	sd	ra,24(sp)
    80001f56:	e822                	sd	s0,16(sp)
    80001f58:	e426                	sd	s1,8(sp)
    80001f5a:	1000                	add	s0,sp,32
    80001f5c:	84aa                	mv	s1,a0
  struct proc *p = myproc();
    80001f5e:	fffff097          	auipc	ra,0xfffff
    80001f62:	fe8080e7          	jalr	-24(ra) # 80000f46 <myproc>
  switch (n) {
    80001f66:	4795                	li	a5,5
    80001f68:	0497e163          	bltu	a5,s1,80001faa <argraw+0x58>
    80001f6c:	048a                	sll	s1,s1,0x2
    80001f6e:	0000a717          	auipc	a4,0xa
    80001f72:	9da70713          	add	a4,a4,-1574 # 8000b948 <states.0+0x28>
    80001f76:	94ba                	add	s1,s1,a4
    80001f78:	409c                	lw	a5,0(s1)
    80001f7a:	97ba                	add	a5,a5,a4
    80001f7c:	8782                	jr	a5
  case 0:
    return p->trapframe->a0;
    80001f7e:	6d3c                	ld	a5,88(a0)
    80001f80:	7ba8                	ld	a0,112(a5)
  case 5:
    return p->trapframe->a5;
  }
  panic("argraw");
  return -1;
}
    80001f82:	60e2                	ld	ra,24(sp)
    80001f84:	6442                	ld	s0,16(sp)
    80001f86:	64a2                	ld	s1,8(sp)
    80001f88:	6105                	add	sp,sp,32
    80001f8a:	8082                	ret
    return p->trapframe->a1;
    80001f8c:	6d3c                	ld	a5,88(a0)
    80001f8e:	7fa8                	ld	a0,120(a5)
    80001f90:	bfcd                	j	80001f82 <argraw+0x30>
    return p->trapframe->a2;
    80001f92:	6d3c                	ld	a5,88(a0)
    80001f94:	63c8                	ld	a0,128(a5)
    80001f96:	b7f5                	j	80001f82 <argraw+0x30>
    return p->trapframe->a3;
    80001f98:	6d3c                	ld	a5,88(a0)
    80001f9a:	67c8                	ld	a0,136(a5)
    80001f9c:	b7dd                	j	80001f82 <argraw+0x30>
    return p->trapframe->a4;
    80001f9e:	6d3c                	ld	a5,88(a0)
    80001fa0:	6bc8                	ld	a0,144(a5)
    80001fa2:	b7c5                	j	80001f82 <argraw+0x30>
    return p->trapframe->a5;
    80001fa4:	6d3c                	ld	a5,88(a0)
    80001fa6:	6fc8                	ld	a0,152(a5)
    80001fa8:	bfe9                	j	80001f82 <argraw+0x30>
  panic("argraw");
    80001faa:	00009517          	auipc	a0,0x9
    80001fae:	3be50513          	add	a0,a0,958 # 8000b368 <etext+0x368>
    80001fb2:	00007097          	auipc	ra,0x7
    80001fb6:	326080e7          	jalr	806(ra) # 800092d8 <panic>

0000000080001fba <fetchaddr>:
{
    80001fba:	1101                	add	sp,sp,-32
    80001fbc:	ec06                	sd	ra,24(sp)
    80001fbe:	e822                	sd	s0,16(sp)
    80001fc0:	e426                	sd	s1,8(sp)
    80001fc2:	e04a                	sd	s2,0(sp)
    80001fc4:	1000                	add	s0,sp,32
    80001fc6:	84aa                	mv	s1,a0
    80001fc8:	892e                	mv	s2,a1
  struct proc *p = myproc();
    80001fca:	fffff097          	auipc	ra,0xfffff
    80001fce:	f7c080e7          	jalr	-132(ra) # 80000f46 <myproc>
  if(addr >= p->sz || addr+sizeof(uint64) > p->sz)
    80001fd2:	653c                	ld	a5,72(a0)
    80001fd4:	02f4f863          	bgeu	s1,a5,80002004 <fetchaddr+0x4a>
    80001fd8:	00848713          	add	a4,s1,8
    80001fdc:	02e7e663          	bltu	a5,a4,80002008 <fetchaddr+0x4e>
  if(copyin(p->pagetable, (char *)ip, addr, sizeof(*ip)) != 0)
    80001fe0:	46a1                	li	a3,8
    80001fe2:	8626                	mv	a2,s1
    80001fe4:	85ca                	mv	a1,s2
    80001fe6:	6928                	ld	a0,80(a0)
    80001fe8:	fffff097          	auipc	ra,0xfffff
    80001fec:	c66080e7          	jalr	-922(ra) # 80000c4e <copyin>
    80001ff0:	00a03533          	snez	a0,a0
    80001ff4:	40a00533          	neg	a0,a0
}
    80001ff8:	60e2                	ld	ra,24(sp)
    80001ffa:	6442                	ld	s0,16(sp)
    80001ffc:	64a2                	ld	s1,8(sp)
    80001ffe:	6902                	ld	s2,0(sp)
    80002000:	6105                	add	sp,sp,32
    80002002:	8082                	ret
    return -1;
    80002004:	557d                	li	a0,-1
    80002006:	bfcd                	j	80001ff8 <fetchaddr+0x3e>
    80002008:	557d                	li	a0,-1
    8000200a:	b7fd                	j	80001ff8 <fetchaddr+0x3e>

000000008000200c <fetchstr>:
{
    8000200c:	7179                	add	sp,sp,-48
    8000200e:	f406                	sd	ra,40(sp)
    80002010:	f022                	sd	s0,32(sp)
    80002012:	ec26                	sd	s1,24(sp)
    80002014:	e84a                	sd	s2,16(sp)
    80002016:	e44e                	sd	s3,8(sp)
    80002018:	1800                	add	s0,sp,48
    8000201a:	892a                	mv	s2,a0
    8000201c:	84ae                	mv	s1,a1
    8000201e:	89b2                	mv	s3,a2
  struct proc *p = myproc();
    80002020:	fffff097          	auipc	ra,0xfffff
    80002024:	f26080e7          	jalr	-218(ra) # 80000f46 <myproc>
  int err = copyinstr(p->pagetable, buf, addr, max);
    80002028:	86ce                	mv	a3,s3
    8000202a:	864a                	mv	a2,s2
    8000202c:	85a6                	mv	a1,s1
    8000202e:	6928                	ld	a0,80(a0)
    80002030:	fffff097          	auipc	ra,0xfffff
    80002034:	cac080e7          	jalr	-852(ra) # 80000cdc <copyinstr>
  if(err < 0)
    80002038:	00054763          	bltz	a0,80002046 <fetchstr+0x3a>
  return strlen(buf);
    8000203c:	8526                	mv	a0,s1
    8000203e:	ffffe097          	auipc	ra,0xffffe
    80002042:	2b8080e7          	jalr	696(ra) # 800002f6 <strlen>
}
    80002046:	70a2                	ld	ra,40(sp)
    80002048:	7402                	ld	s0,32(sp)
    8000204a:	64e2                	ld	s1,24(sp)
    8000204c:	6942                	ld	s2,16(sp)
    8000204e:	69a2                	ld	s3,8(sp)
    80002050:	6145                	add	sp,sp,48
    80002052:	8082                	ret

0000000080002054 <argint>:

// Fetch the nth 32-bit system call argument.
int
argint(int n, int *ip)
{
    80002054:	1101                	add	sp,sp,-32
    80002056:	ec06                	sd	ra,24(sp)
    80002058:	e822                	sd	s0,16(sp)
    8000205a:	e426                	sd	s1,8(sp)
    8000205c:	1000                	add	s0,sp,32
    8000205e:	84ae                	mv	s1,a1
  *ip = argraw(n);
    80002060:	00000097          	auipc	ra,0x0
    80002064:	ef2080e7          	jalr	-270(ra) # 80001f52 <argraw>
    80002068:	c088                	sw	a0,0(s1)
  return 0;
}
    8000206a:	4501                	li	a0,0
    8000206c:	60e2                	ld	ra,24(sp)
    8000206e:	6442                	ld	s0,16(sp)
    80002070:	64a2                	ld	s1,8(sp)
    80002072:	6105                	add	sp,sp,32
    80002074:	8082                	ret

0000000080002076 <argaddr>:
// Retrieve an argument as a pointer.
// Doesn't check for legality, since
// copyin/copyout will do that.
int
argaddr(int n, uint64 *ip)
{
    80002076:	1101                	add	sp,sp,-32
    80002078:	ec06                	sd	ra,24(sp)
    8000207a:	e822                	sd	s0,16(sp)
    8000207c:	e426                	sd	s1,8(sp)
    8000207e:	1000                	add	s0,sp,32
    80002080:	84ae                	mv	s1,a1
  *ip = argraw(n);
    80002082:	00000097          	auipc	ra,0x0
    80002086:	ed0080e7          	jalr	-304(ra) # 80001f52 <argraw>
    8000208a:	e088                	sd	a0,0(s1)
  return 0;
}
    8000208c:	4501                	li	a0,0
    8000208e:	60e2                	ld	ra,24(sp)
    80002090:	6442                	ld	s0,16(sp)
    80002092:	64a2                	ld	s1,8(sp)
    80002094:	6105                	add	sp,sp,32
    80002096:	8082                	ret

0000000080002098 <argstr>:
// Fetch the nth word-sized system call argument as a null-terminated string.
// Copies into buf, at most max.
// Returns string length if OK (including nul), -1 if error.
int
argstr(int n, char *buf, int max)
{
    80002098:	1101                	add	sp,sp,-32
    8000209a:	ec06                	sd	ra,24(sp)
    8000209c:	e822                	sd	s0,16(sp)
    8000209e:	e426                	sd	s1,8(sp)
    800020a0:	e04a                	sd	s2,0(sp)
    800020a2:	1000                	add	s0,sp,32
    800020a4:	84ae                	mv	s1,a1
    800020a6:	8932                	mv	s2,a2
  *ip = argraw(n);
    800020a8:	00000097          	auipc	ra,0x0
    800020ac:	eaa080e7          	jalr	-342(ra) # 80001f52 <argraw>
  uint64 addr;
  if(argaddr(n, &addr) < 0)
    return -1;
  return fetchstr(addr, buf, max);
    800020b0:	864a                	mv	a2,s2
    800020b2:	85a6                	mv	a1,s1
    800020b4:	00000097          	auipc	ra,0x0
    800020b8:	f58080e7          	jalr	-168(ra) # 8000200c <fetchstr>
}
    800020bc:	60e2                	ld	ra,24(sp)
    800020be:	6442                	ld	s0,16(sp)
    800020c0:	64a2                	ld	s1,8(sp)
    800020c2:	6902                	ld	s2,0(sp)
    800020c4:	6105                	add	sp,sp,32
    800020c6:	8082                	ret

00000000800020c8 <syscall>:



void
syscall(void)
{
    800020c8:	1101                	add	sp,sp,-32
    800020ca:	ec06                	sd	ra,24(sp)
    800020cc:	e822                	sd	s0,16(sp)
    800020ce:	e426                	sd	s1,8(sp)
    800020d0:	e04a                	sd	s2,0(sp)
    800020d2:	1000                	add	s0,sp,32
  int num;
  struct proc *p = myproc();
    800020d4:	fffff097          	auipc	ra,0xfffff
    800020d8:	e72080e7          	jalr	-398(ra) # 80000f46 <myproc>
    800020dc:	84aa                	mv	s1,a0

  num = p->trapframe->a7;
    800020de:	05853903          	ld	s2,88(a0)
    800020e2:	0a893783          	ld	a5,168(s2)
    800020e6:	0007869b          	sext.w	a3,a5
  if(num > 0 && num < NELEM(syscalls) && syscalls[num]) {
    800020ea:	37fd                	addw	a5,a5,-1
    800020ec:	02100713          	li	a4,33
    800020f0:	00f76f63          	bltu	a4,a5,8000210e <syscall+0x46>
    800020f4:	00369713          	sll	a4,a3,0x3
    800020f8:	0000a797          	auipc	a5,0xa
    800020fc:	86878793          	add	a5,a5,-1944 # 8000b960 <syscalls>
    80002100:	97ba                	add	a5,a5,a4
    80002102:	639c                	ld	a5,0(a5)
    80002104:	c789                	beqz	a5,8000210e <syscall+0x46>
    p->trapframe->a0 = syscalls[num]();
    80002106:	9782                	jalr	a5
    80002108:	06a93823          	sd	a0,112(s2)
    8000210c:	a839                	j	8000212a <syscall+0x62>
  } else {
    printf("%d %s: unknown sys call %d\n",
    8000210e:	5d848613          	add	a2,s1,1496
    80002112:	5c8c                	lw	a1,56(s1)
    80002114:	00009517          	auipc	a0,0x9
    80002118:	25c50513          	add	a0,a0,604 # 8000b370 <etext+0x370>
    8000211c:	00007097          	auipc	ra,0x7
    80002120:	206080e7          	jalr	518(ra) # 80009322 <printf>
            p->pid, p->name, num);
    p->trapframe->a0 = -1;
    80002124:	6cbc                	ld	a5,88(s1)
    80002126:	577d                	li	a4,-1
    80002128:	fbb8                	sd	a4,112(a5)
  }
}
    8000212a:	60e2                	ld	ra,24(sp)
    8000212c:	6442                	ld	s0,16(sp)
    8000212e:	64a2                	ld	s1,8(sp)
    80002130:	6902                	ld	s2,0(sp)
    80002132:	6105                	add	sp,sp,32
    80002134:	8082                	ret

0000000080002136 <sys_exit>:
#include "spinlock.h"
#include "proc.h"

uint64
sys_exit(void)
{
    80002136:	1101                	add	sp,sp,-32
    80002138:	ec06                	sd	ra,24(sp)
    8000213a:	e822                	sd	s0,16(sp)
    8000213c:	1000                	add	s0,sp,32
  int n;
  if(argint(0, &n) < 0)
    8000213e:	fec40593          	add	a1,s0,-20
    80002142:	4501                	li	a0,0
    80002144:	00000097          	auipc	ra,0x0
    80002148:	f10080e7          	jalr	-240(ra) # 80002054 <argint>
    return -1;
    8000214c:	57fd                	li	a5,-1
  if(argint(0, &n) < 0)
    8000214e:	00054963          	bltz	a0,80002160 <sys_exit+0x2a>
  exit(n);
    80002152:	fec42503          	lw	a0,-20(s0)
    80002156:	fffff097          	auipc	ra,0xfffff
    8000215a:	4c2080e7          	jalr	1218(ra) # 80001618 <exit>
  return 0;  // not reached
    8000215e:	4781                	li	a5,0
}
    80002160:	853e                	mv	a0,a5
    80002162:	60e2                	ld	ra,24(sp)
    80002164:	6442                	ld	s0,16(sp)
    80002166:	6105                	add	sp,sp,32
    80002168:	8082                	ret

000000008000216a <sys_getpid>:

uint64
sys_getpid(void)
{
    8000216a:	1141                	add	sp,sp,-16
    8000216c:	e406                	sd	ra,8(sp)
    8000216e:	e022                	sd	s0,0(sp)
    80002170:	0800                	add	s0,sp,16
  return myproc()->pid;
    80002172:	fffff097          	auipc	ra,0xfffff
    80002176:	dd4080e7          	jalr	-556(ra) # 80000f46 <myproc>
}
    8000217a:	5d08                	lw	a0,56(a0)
    8000217c:	60a2                	ld	ra,8(sp)
    8000217e:	6402                	ld	s0,0(sp)
    80002180:	0141                	add	sp,sp,16
    80002182:	8082                	ret

0000000080002184 <sys_fork>:

uint64
sys_fork(void)
{
    80002184:	1141                	add	sp,sp,-16
    80002186:	e406                	sd	ra,8(sp)
    80002188:	e022                	sd	s0,0(sp)
    8000218a:	0800                	add	s0,sp,16
  return fork();
    8000218c:	fffff097          	auipc	ra,0xfffff
    80002190:	17e080e7          	jalr	382(ra) # 8000130a <fork>
}
    80002194:	60a2                	ld	ra,8(sp)
    80002196:	6402                	ld	s0,0(sp)
    80002198:	0141                	add	sp,sp,16
    8000219a:	8082                	ret

000000008000219c <sys_wait>:

uint64
sys_wait(void)
{
    8000219c:	1101                	add	sp,sp,-32
    8000219e:	ec06                	sd	ra,24(sp)
    800021a0:	e822                	sd	s0,16(sp)
    800021a2:	1000                	add	s0,sp,32
  uint64 p;
  if(argaddr(0, &p) < 0)
    800021a4:	fe840593          	add	a1,s0,-24
    800021a8:	4501                	li	a0,0
    800021aa:	00000097          	auipc	ra,0x0
    800021ae:	ecc080e7          	jalr	-308(ra) # 80002076 <argaddr>
    800021b2:	87aa                	mv	a5,a0
    return -1;
    800021b4:	557d                	li	a0,-1
  if(argaddr(0, &p) < 0)
    800021b6:	0007c863          	bltz	a5,800021c6 <sys_wait+0x2a>
  return wait(p);
    800021ba:	fe843503          	ld	a0,-24(s0)
    800021be:	fffff097          	auipc	ra,0xfffff
    800021c2:	61e080e7          	jalr	1566(ra) # 800017dc <wait>
}
    800021c6:	60e2                	ld	ra,24(sp)
    800021c8:	6442                	ld	s0,16(sp)
    800021ca:	6105                	add	sp,sp,32
    800021cc:	8082                	ret

00000000800021ce <sys_sbrk>:

uint64
sys_sbrk(void)
{
    800021ce:	7179                	add	sp,sp,-48
    800021d0:	f406                	sd	ra,40(sp)
    800021d2:	f022                	sd	s0,32(sp)
    800021d4:	1800                	add	s0,sp,48
  int addr;
  int n;

  if(argint(0, &n) < 0)
    800021d6:	fdc40593          	add	a1,s0,-36
    800021da:	4501                	li	a0,0
    800021dc:	00000097          	auipc	ra,0x0
    800021e0:	e78080e7          	jalr	-392(ra) # 80002054 <argint>
    800021e4:	87aa                	mv	a5,a0
    return -1;
    800021e6:	557d                	li	a0,-1
  if(argint(0, &n) < 0)
    800021e8:	0207c263          	bltz	a5,8000220c <sys_sbrk+0x3e>
    800021ec:	ec26                	sd	s1,24(sp)
  addr = myproc()->sz;
    800021ee:	fffff097          	auipc	ra,0xfffff
    800021f2:	d58080e7          	jalr	-680(ra) # 80000f46 <myproc>
    800021f6:	4524                	lw	s1,72(a0)
  if(growproc(n) < 0)
    800021f8:	fdc42503          	lw	a0,-36(s0)
    800021fc:	fffff097          	auipc	ra,0xfffff
    80002200:	096080e7          	jalr	150(ra) # 80001292 <growproc>
    80002204:	00054863          	bltz	a0,80002214 <sys_sbrk+0x46>
    return -1;
  return addr;
    80002208:	8526                	mv	a0,s1
    8000220a:	64e2                	ld	s1,24(sp)
}
    8000220c:	70a2                	ld	ra,40(sp)
    8000220e:	7402                	ld	s0,32(sp)
    80002210:	6145                	add	sp,sp,48
    80002212:	8082                	ret
    return -1;
    80002214:	557d                	li	a0,-1
    80002216:	64e2                	ld	s1,24(sp)
    80002218:	bfd5                	j	8000220c <sys_sbrk+0x3e>

000000008000221a <sys_sleep>:

uint64
sys_sleep(void)
{
    8000221a:	7139                	add	sp,sp,-64
    8000221c:	fc06                	sd	ra,56(sp)
    8000221e:	f822                	sd	s0,48(sp)
    80002220:	0080                	add	s0,sp,64
  int n;
  uint ticks0;

  if(argint(0, &n) < 0)
    80002222:	fcc40593          	add	a1,s0,-52
    80002226:	4501                	li	a0,0
    80002228:	00000097          	auipc	ra,0x0
    8000222c:	e2c080e7          	jalr	-468(ra) # 80002054 <argint>
    return -1;
    80002230:	57fd                	li	a5,-1
  if(argint(0, &n) < 0)
    80002232:	06054b63          	bltz	a0,800022a8 <sys_sleep+0x8e>
    80002236:	f04a                	sd	s2,32(sp)
  acquire(&tickslock);
    80002238:	00022517          	auipc	a0,0x22
    8000223c:	c5050513          	add	a0,a0,-944 # 80023e88 <tickslock>
    80002240:	00007097          	auipc	ra,0x7
    80002244:	632080e7          	jalr	1586(ra) # 80009872 <acquire>
  ticks0 = ticks;
    80002248:	0000a917          	auipc	s2,0xa
    8000224c:	dd092903          	lw	s2,-560(s2) # 8000c018 <ticks>
  while(ticks - ticks0 < n){
    80002250:	fcc42783          	lw	a5,-52(s0)
    80002254:	c3a1                	beqz	a5,80002294 <sys_sleep+0x7a>
    80002256:	f426                	sd	s1,40(sp)
    80002258:	ec4e                	sd	s3,24(sp)
    if(myproc()->killed){
      release(&tickslock);
      return -1;
    }
    sleep(&ticks, &tickslock);
    8000225a:	00022997          	auipc	s3,0x22
    8000225e:	c2e98993          	add	s3,s3,-978 # 80023e88 <tickslock>
    80002262:	0000a497          	auipc	s1,0xa
    80002266:	db648493          	add	s1,s1,-586 # 8000c018 <ticks>
    if(myproc()->killed){
    8000226a:	fffff097          	auipc	ra,0xfffff
    8000226e:	cdc080e7          	jalr	-804(ra) # 80000f46 <myproc>
    80002272:	591c                	lw	a5,48(a0)
    80002274:	ef9d                	bnez	a5,800022b2 <sys_sleep+0x98>
    sleep(&ticks, &tickslock);
    80002276:	85ce                	mv	a1,s3
    80002278:	8526                	mv	a0,s1
    8000227a:	fffff097          	auipc	ra,0xfffff
    8000227e:	4e4080e7          	jalr	1252(ra) # 8000175e <sleep>
  while(ticks - ticks0 < n){
    80002282:	409c                	lw	a5,0(s1)
    80002284:	412787bb          	subw	a5,a5,s2
    80002288:	fcc42703          	lw	a4,-52(s0)
    8000228c:	fce7efe3          	bltu	a5,a4,8000226a <sys_sleep+0x50>
    80002290:	74a2                	ld	s1,40(sp)
    80002292:	69e2                	ld	s3,24(sp)
  }
  release(&tickslock);
    80002294:	00022517          	auipc	a0,0x22
    80002298:	bf450513          	add	a0,a0,-1036 # 80023e88 <tickslock>
    8000229c:	00007097          	auipc	ra,0x7
    800022a0:	69c080e7          	jalr	1692(ra) # 80009938 <release>
  return 0;
    800022a4:	4781                	li	a5,0
    800022a6:	7902                	ld	s2,32(sp)
}
    800022a8:	853e                	mv	a0,a5
    800022aa:	70e2                	ld	ra,56(sp)
    800022ac:	7442                	ld	s0,48(sp)
    800022ae:	6121                	add	sp,sp,64
    800022b0:	8082                	ret
      release(&tickslock);
    800022b2:	00022517          	auipc	a0,0x22
    800022b6:	bd650513          	add	a0,a0,-1066 # 80023e88 <tickslock>
    800022ba:	00007097          	auipc	ra,0x7
    800022be:	67e080e7          	jalr	1662(ra) # 80009938 <release>
      return -1;
    800022c2:	57fd                	li	a5,-1
    800022c4:	74a2                	ld	s1,40(sp)
    800022c6:	7902                	ld	s2,32(sp)
    800022c8:	69e2                	ld	s3,24(sp)
    800022ca:	bff9                	j	800022a8 <sys_sleep+0x8e>

00000000800022cc <sys_kill>:

uint64
sys_kill(void)
{
    800022cc:	1101                	add	sp,sp,-32
    800022ce:	ec06                	sd	ra,24(sp)
    800022d0:	e822                	sd	s0,16(sp)
    800022d2:	1000                	add	s0,sp,32
  int pid;

  if(argint(0, &pid) < 0)
    800022d4:	fec40593          	add	a1,s0,-20
    800022d8:	4501                	li	a0,0
    800022da:	00000097          	auipc	ra,0x0
    800022de:	d7a080e7          	jalr	-646(ra) # 80002054 <argint>
    800022e2:	87aa                	mv	a5,a0
    return -1;
    800022e4:	557d                	li	a0,-1
  if(argint(0, &pid) < 0)
    800022e6:	0007c863          	bltz	a5,800022f6 <sys_kill+0x2a>
  return kill(pid);
    800022ea:	fec42503          	lw	a0,-20(s0)
    800022ee:	fffff097          	auipc	ra,0xfffff
    800022f2:	65a080e7          	jalr	1626(ra) # 80001948 <kill>
}
    800022f6:	60e2                	ld	ra,24(sp)
    800022f8:	6442                	ld	s0,16(sp)
    800022fa:	6105                	add	sp,sp,32
    800022fc:	8082                	ret

00000000800022fe <sys_uptime>:

// return how many clock tick interrupts have occurred
// since start.
uint64
sys_uptime(void)
{
    800022fe:	1101                	add	sp,sp,-32
    80002300:	ec06                	sd	ra,24(sp)
    80002302:	e822                	sd	s0,16(sp)
    80002304:	e426                	sd	s1,8(sp)
    80002306:	1000                	add	s0,sp,32
  uint xticks;

  acquire(&tickslock);
    80002308:	00022517          	auipc	a0,0x22
    8000230c:	b8050513          	add	a0,a0,-1152 # 80023e88 <tickslock>
    80002310:	00007097          	auipc	ra,0x7
    80002314:	562080e7          	jalr	1378(ra) # 80009872 <acquire>
  xticks = ticks;
    80002318:	0000a497          	auipc	s1,0xa
    8000231c:	d004a483          	lw	s1,-768(s1) # 8000c018 <ticks>
  release(&tickslock);
    80002320:	00022517          	auipc	a0,0x22
    80002324:	b6850513          	add	a0,a0,-1176 # 80023e88 <tickslock>
    80002328:	00007097          	auipc	ra,0x7
    8000232c:	610080e7          	jalr	1552(ra) # 80009938 <release>
  return xticks;
}
    80002330:	02049513          	sll	a0,s1,0x20
    80002334:	9101                	srl	a0,a0,0x20
    80002336:	60e2                	ld	ra,24(sp)
    80002338:	6442                	ld	s0,16(sp)
    8000233a:	64a2                	ld	s1,8(sp)
    8000233c:	6105                	add	sp,sp,32
    8000233e:	8082                	ret

0000000080002340 <binit>:
  struct buf head;
} bcache;

void
binit(void)
{
    80002340:	7179                	add	sp,sp,-48
    80002342:	f406                	sd	ra,40(sp)
    80002344:	f022                	sd	s0,32(sp)
    80002346:	ec26                	sd	s1,24(sp)
    80002348:	e84a                	sd	s2,16(sp)
    8000234a:	e44e                	sd	s3,8(sp)
    8000234c:	e052                	sd	s4,0(sp)
    8000234e:	1800                	add	s0,sp,48
  struct buf *b;

  initlock(&bcache.lock, "bcache");
    80002350:	00009597          	auipc	a1,0x9
    80002354:	04058593          	add	a1,a1,64 # 8000b390 <etext+0x390>
    80002358:	00022517          	auipc	a0,0x22
    8000235c:	b4850513          	add	a0,a0,-1208 # 80023ea0 <bcache>
    80002360:	00007097          	auipc	ra,0x7
    80002364:	482080e7          	jalr	1154(ra) # 800097e2 <initlock>

  // Create linked list of buffers
  bcache.head.prev = &bcache.head;
    80002368:	0002a797          	auipc	a5,0x2a
    8000236c:	b3878793          	add	a5,a5,-1224 # 8002bea0 <bcache+0x8000>
    80002370:	0002a717          	auipc	a4,0x2a
    80002374:	d9870713          	add	a4,a4,-616 # 8002c108 <bcache+0x8268>
    80002378:	2ae7b823          	sd	a4,688(a5)
  bcache.head.next = &bcache.head;
    8000237c:	2ae7bc23          	sd	a4,696(a5)
  for(b = bcache.buf; b < bcache.buf+NBUF; b++){
    80002380:	00022497          	auipc	s1,0x22
    80002384:	b3848493          	add	s1,s1,-1224 # 80023eb8 <bcache+0x18>
    b->next = bcache.head.next;
    80002388:	893e                	mv	s2,a5
    b->prev = &bcache.head;
    8000238a:	89ba                	mv	s3,a4
    initsleeplock(&b->lock, "buffer");
    8000238c:	00009a17          	auipc	s4,0x9
    80002390:	00ca0a13          	add	s4,s4,12 # 8000b398 <etext+0x398>
    b->next = bcache.head.next;
    80002394:	2b893783          	ld	a5,696(s2)
    80002398:	e8bc                	sd	a5,80(s1)
    b->prev = &bcache.head;
    8000239a:	0534b423          	sd	s3,72(s1)
    initsleeplock(&b->lock, "buffer");
    8000239e:	85d2                	mv	a1,s4
    800023a0:	01048513          	add	a0,s1,16
    800023a4:	00001097          	auipc	ra,0x1
    800023a8:	4ba080e7          	jalr	1210(ra) # 8000385e <initsleeplock>
    bcache.head.next->prev = b;
    800023ac:	2b893783          	ld	a5,696(s2)
    800023b0:	e7a4                	sd	s1,72(a5)
    bcache.head.next = b;
    800023b2:	2a993c23          	sd	s1,696(s2)
  for(b = bcache.buf; b < bcache.buf+NBUF; b++){
    800023b6:	45848493          	add	s1,s1,1112
    800023ba:	fd349de3          	bne	s1,s3,80002394 <binit+0x54>
  }
}
    800023be:	70a2                	ld	ra,40(sp)
    800023c0:	7402                	ld	s0,32(sp)
    800023c2:	64e2                	ld	s1,24(sp)
    800023c4:	6942                	ld	s2,16(sp)
    800023c6:	69a2                	ld	s3,8(sp)
    800023c8:	6a02                	ld	s4,0(sp)
    800023ca:	6145                	add	sp,sp,48
    800023cc:	8082                	ret

00000000800023ce <bread>:
}

// Return a locked buf with the contents of the indicated block.
struct buf*
bread(uint dev, uint blockno)
{
    800023ce:	7179                	add	sp,sp,-48
    800023d0:	f406                	sd	ra,40(sp)
    800023d2:	f022                	sd	s0,32(sp)
    800023d4:	ec26                	sd	s1,24(sp)
    800023d6:	e84a                	sd	s2,16(sp)
    800023d8:	e44e                	sd	s3,8(sp)
    800023da:	1800                	add	s0,sp,48
    800023dc:	892a                	mv	s2,a0
    800023de:	89ae                	mv	s3,a1
  acquire(&bcache.lock);
    800023e0:	00022517          	auipc	a0,0x22
    800023e4:	ac050513          	add	a0,a0,-1344 # 80023ea0 <bcache>
    800023e8:	00007097          	auipc	ra,0x7
    800023ec:	48a080e7          	jalr	1162(ra) # 80009872 <acquire>
  for(b = bcache.head.next; b != &bcache.head; b = b->next){
    800023f0:	0002a497          	auipc	s1,0x2a
    800023f4:	d684b483          	ld	s1,-664(s1) # 8002c158 <bcache+0x82b8>
    800023f8:	0002a797          	auipc	a5,0x2a
    800023fc:	d1078793          	add	a5,a5,-752 # 8002c108 <bcache+0x8268>
    80002400:	02f48f63          	beq	s1,a5,8000243e <bread+0x70>
    80002404:	873e                	mv	a4,a5
    80002406:	a021                	j	8000240e <bread+0x40>
    80002408:	68a4                	ld	s1,80(s1)
    8000240a:	02e48a63          	beq	s1,a4,8000243e <bread+0x70>
    if(b->dev == dev && b->blockno == blockno){
    8000240e:	449c                	lw	a5,8(s1)
    80002410:	ff279ce3          	bne	a5,s2,80002408 <bread+0x3a>
    80002414:	44dc                	lw	a5,12(s1)
    80002416:	ff3799e3          	bne	a5,s3,80002408 <bread+0x3a>
      b->refcnt++;
    8000241a:	40bc                	lw	a5,64(s1)
    8000241c:	2785                	addw	a5,a5,1
    8000241e:	c0bc                	sw	a5,64(s1)
      release(&bcache.lock);
    80002420:	00022517          	auipc	a0,0x22
    80002424:	a8050513          	add	a0,a0,-1408 # 80023ea0 <bcache>
    80002428:	00007097          	auipc	ra,0x7
    8000242c:	510080e7          	jalr	1296(ra) # 80009938 <release>
      acquiresleep(&b->lock);
    80002430:	01048513          	add	a0,s1,16
    80002434:	00001097          	auipc	ra,0x1
    80002438:	464080e7          	jalr	1124(ra) # 80003898 <acquiresleep>
      return b;
    8000243c:	a8b9                	j	8000249a <bread+0xcc>
  for(b = bcache.head.prev; b != &bcache.head; b = b->prev){
    8000243e:	0002a497          	auipc	s1,0x2a
    80002442:	d124b483          	ld	s1,-750(s1) # 8002c150 <bcache+0x82b0>
    80002446:	0002a797          	auipc	a5,0x2a
    8000244a:	cc278793          	add	a5,a5,-830 # 8002c108 <bcache+0x8268>
    8000244e:	00f48863          	beq	s1,a5,8000245e <bread+0x90>
    80002452:	873e                	mv	a4,a5
    if(b->refcnt == 0) {
    80002454:	40bc                	lw	a5,64(s1)
    80002456:	cf81                	beqz	a5,8000246e <bread+0xa0>
  for(b = bcache.head.prev; b != &bcache.head; b = b->prev){
    80002458:	64a4                	ld	s1,72(s1)
    8000245a:	fee49de3          	bne	s1,a4,80002454 <bread+0x86>
  panic("bget: no buffers");
    8000245e:	00009517          	auipc	a0,0x9
    80002462:	f4250513          	add	a0,a0,-190 # 8000b3a0 <etext+0x3a0>
    80002466:	00007097          	auipc	ra,0x7
    8000246a:	e72080e7          	jalr	-398(ra) # 800092d8 <panic>
      b->dev = dev;
    8000246e:	0124a423          	sw	s2,8(s1)
      b->blockno = blockno;
    80002472:	0134a623          	sw	s3,12(s1)
      b->valid = 0;
    80002476:	0004a023          	sw	zero,0(s1)
      b->refcnt = 1;
    8000247a:	4785                	li	a5,1
    8000247c:	c0bc                	sw	a5,64(s1)
      release(&bcache.lock);
    8000247e:	00022517          	auipc	a0,0x22
    80002482:	a2250513          	add	a0,a0,-1502 # 80023ea0 <bcache>
    80002486:	00007097          	auipc	ra,0x7
    8000248a:	4b2080e7          	jalr	1202(ra) # 80009938 <release>
      acquiresleep(&b->lock);
    8000248e:	01048513          	add	a0,s1,16
    80002492:	00001097          	auipc	ra,0x1
    80002496:	406080e7          	jalr	1030(ra) # 80003898 <acquiresleep>
  struct buf *b;

  b = bget(dev, blockno);
  if(!b->valid) {
    8000249a:	409c                	lw	a5,0(s1)
    8000249c:	cb89                	beqz	a5,800024ae <bread+0xe0>
    virtio_disk_rw(b, 0);
    b->valid = 1;
  }
  return b;
}
    8000249e:	8526                	mv	a0,s1
    800024a0:	70a2                	ld	ra,40(sp)
    800024a2:	7402                	ld	s0,32(sp)
    800024a4:	64e2                	ld	s1,24(sp)
    800024a6:	6942                	ld	s2,16(sp)
    800024a8:	69a2                	ld	s3,8(sp)
    800024aa:	6145                	add	sp,sp,48
    800024ac:	8082                	ret
    virtio_disk_rw(b, 0);
    800024ae:	4581                	li	a1,0
    800024b0:	8526                	mv	a0,s1
    800024b2:	00003097          	auipc	ra,0x3
    800024b6:	50a080e7          	jalr	1290(ra) # 800059bc <virtio_disk_rw>
    b->valid = 1;
    800024ba:	4785                	li	a5,1
    800024bc:	c09c                	sw	a5,0(s1)
  return b;
    800024be:	b7c5                	j	8000249e <bread+0xd0>

00000000800024c0 <bwrite>:

// Write b's contents to disk.  Must be locked.
void
bwrite(struct buf *b)
{
    800024c0:	1101                	add	sp,sp,-32
    800024c2:	ec06                	sd	ra,24(sp)
    800024c4:	e822                	sd	s0,16(sp)
    800024c6:	e426                	sd	s1,8(sp)
    800024c8:	1000                	add	s0,sp,32
    800024ca:	84aa                	mv	s1,a0
  if(!holdingsleep(&b->lock))
    800024cc:	0541                	add	a0,a0,16
    800024ce:	00001097          	auipc	ra,0x1
    800024d2:	464080e7          	jalr	1124(ra) # 80003932 <holdingsleep>
    800024d6:	cd01                	beqz	a0,800024ee <bwrite+0x2e>
    panic("bwrite");
  virtio_disk_rw(b, 1);
    800024d8:	4585                	li	a1,1
    800024da:	8526                	mv	a0,s1
    800024dc:	00003097          	auipc	ra,0x3
    800024e0:	4e0080e7          	jalr	1248(ra) # 800059bc <virtio_disk_rw>
}
    800024e4:	60e2                	ld	ra,24(sp)
    800024e6:	6442                	ld	s0,16(sp)
    800024e8:	64a2                	ld	s1,8(sp)
    800024ea:	6105                	add	sp,sp,32
    800024ec:	8082                	ret
    panic("bwrite");
    800024ee:	00009517          	auipc	a0,0x9
    800024f2:	eca50513          	add	a0,a0,-310 # 8000b3b8 <etext+0x3b8>
    800024f6:	00007097          	auipc	ra,0x7
    800024fa:	de2080e7          	jalr	-542(ra) # 800092d8 <panic>

00000000800024fe <brelse>:

// Release a locked buffer.
// Move to the head of the most-recently-used list.
void
brelse(struct buf *b)
{
    800024fe:	1101                	add	sp,sp,-32
    80002500:	ec06                	sd	ra,24(sp)
    80002502:	e822                	sd	s0,16(sp)
    80002504:	e426                	sd	s1,8(sp)
    80002506:	e04a                	sd	s2,0(sp)
    80002508:	1000                	add	s0,sp,32
    8000250a:	84aa                	mv	s1,a0
  if(!holdingsleep(&b->lock))
    8000250c:	01050913          	add	s2,a0,16
    80002510:	854a                	mv	a0,s2
    80002512:	00001097          	auipc	ra,0x1
    80002516:	420080e7          	jalr	1056(ra) # 80003932 <holdingsleep>
    8000251a:	c925                	beqz	a0,8000258a <brelse+0x8c>
    panic("brelse");

  releasesleep(&b->lock);
    8000251c:	854a                	mv	a0,s2
    8000251e:	00001097          	auipc	ra,0x1
    80002522:	3d0080e7          	jalr	976(ra) # 800038ee <releasesleep>

  acquire(&bcache.lock);
    80002526:	00022517          	auipc	a0,0x22
    8000252a:	97a50513          	add	a0,a0,-1670 # 80023ea0 <bcache>
    8000252e:	00007097          	auipc	ra,0x7
    80002532:	344080e7          	jalr	836(ra) # 80009872 <acquire>
  b->refcnt--;
    80002536:	40bc                	lw	a5,64(s1)
    80002538:	37fd                	addw	a5,a5,-1
    8000253a:	0007871b          	sext.w	a4,a5
    8000253e:	c0bc                	sw	a5,64(s1)
  if (b->refcnt == 0) {
    80002540:	e71d                	bnez	a4,8000256e <brelse+0x70>
    // no one is waiting for it.
    b->next->prev = b->prev;
    80002542:	68b8                	ld	a4,80(s1)
    80002544:	64bc                	ld	a5,72(s1)
    80002546:	e73c                	sd	a5,72(a4)
    b->prev->next = b->next;
    80002548:	68b8                	ld	a4,80(s1)
    8000254a:	ebb8                	sd	a4,80(a5)
    b->next = bcache.head.next;
    8000254c:	0002a797          	auipc	a5,0x2a
    80002550:	95478793          	add	a5,a5,-1708 # 8002bea0 <bcache+0x8000>
    80002554:	2b87b703          	ld	a4,696(a5)
    80002558:	e8b8                	sd	a4,80(s1)
    b->prev = &bcache.head;
    8000255a:	0002a717          	auipc	a4,0x2a
    8000255e:	bae70713          	add	a4,a4,-1106 # 8002c108 <bcache+0x8268>
    80002562:	e4b8                	sd	a4,72(s1)
    bcache.head.next->prev = b;
    80002564:	2b87b703          	ld	a4,696(a5)
    80002568:	e724                	sd	s1,72(a4)
    bcache.head.next = b;
    8000256a:	2a97bc23          	sd	s1,696(a5)
  }
  
  release(&bcache.lock);
    8000256e:	00022517          	auipc	a0,0x22
    80002572:	93250513          	add	a0,a0,-1742 # 80023ea0 <bcache>
    80002576:	00007097          	auipc	ra,0x7
    8000257a:	3c2080e7          	jalr	962(ra) # 80009938 <release>
}
    8000257e:	60e2                	ld	ra,24(sp)
    80002580:	6442                	ld	s0,16(sp)
    80002582:	64a2                	ld	s1,8(sp)
    80002584:	6902                	ld	s2,0(sp)
    80002586:	6105                	add	sp,sp,32
    80002588:	8082                	ret
    panic("brelse");
    8000258a:	00009517          	auipc	a0,0x9
    8000258e:	e3650513          	add	a0,a0,-458 # 8000b3c0 <etext+0x3c0>
    80002592:	00007097          	auipc	ra,0x7
    80002596:	d46080e7          	jalr	-698(ra) # 800092d8 <panic>

000000008000259a <bpin>:

void
bpin(struct buf *b) {
    8000259a:	1101                	add	sp,sp,-32
    8000259c:	ec06                	sd	ra,24(sp)
    8000259e:	e822                	sd	s0,16(sp)
    800025a0:	e426                	sd	s1,8(sp)
    800025a2:	1000                	add	s0,sp,32
    800025a4:	84aa                	mv	s1,a0
  acquire(&bcache.lock);
    800025a6:	00022517          	auipc	a0,0x22
    800025aa:	8fa50513          	add	a0,a0,-1798 # 80023ea0 <bcache>
    800025ae:	00007097          	auipc	ra,0x7
    800025b2:	2c4080e7          	jalr	708(ra) # 80009872 <acquire>
  b->refcnt++;
    800025b6:	40bc                	lw	a5,64(s1)
    800025b8:	2785                	addw	a5,a5,1
    800025ba:	c0bc                	sw	a5,64(s1)
  release(&bcache.lock);
    800025bc:	00022517          	auipc	a0,0x22
    800025c0:	8e450513          	add	a0,a0,-1820 # 80023ea0 <bcache>
    800025c4:	00007097          	auipc	ra,0x7
    800025c8:	374080e7          	jalr	884(ra) # 80009938 <release>
}
    800025cc:	60e2                	ld	ra,24(sp)
    800025ce:	6442                	ld	s0,16(sp)
    800025d0:	64a2                	ld	s1,8(sp)
    800025d2:	6105                	add	sp,sp,32
    800025d4:	8082                	ret

00000000800025d6 <bunpin>:

void
bunpin(struct buf *b) {
    800025d6:	1101                	add	sp,sp,-32
    800025d8:	ec06                	sd	ra,24(sp)
    800025da:	e822                	sd	s0,16(sp)
    800025dc:	e426                	sd	s1,8(sp)
    800025de:	1000                	add	s0,sp,32
    800025e0:	84aa                	mv	s1,a0
  acquire(&bcache.lock);
    800025e2:	00022517          	auipc	a0,0x22
    800025e6:	8be50513          	add	a0,a0,-1858 # 80023ea0 <bcache>
    800025ea:	00007097          	auipc	ra,0x7
    800025ee:	288080e7          	jalr	648(ra) # 80009872 <acquire>
  b->refcnt--;
    800025f2:	40bc                	lw	a5,64(s1)
    800025f4:	37fd                	addw	a5,a5,-1
    800025f6:	c0bc                	sw	a5,64(s1)
  release(&bcache.lock);
    800025f8:	00022517          	auipc	a0,0x22
    800025fc:	8a850513          	add	a0,a0,-1880 # 80023ea0 <bcache>
    80002600:	00007097          	auipc	ra,0x7
    80002604:	338080e7          	jalr	824(ra) # 80009938 <release>
}
    80002608:	60e2                	ld	ra,24(sp)
    8000260a:	6442                	ld	s0,16(sp)
    8000260c:	64a2                	ld	s1,8(sp)
    8000260e:	6105                	add	sp,sp,32
    80002610:	8082                	ret

0000000080002612 <bfree>:
}

// Free a disk block.
static void
bfree(int dev, uint b)
{
    80002612:	1101                	add	sp,sp,-32
    80002614:	ec06                	sd	ra,24(sp)
    80002616:	e822                	sd	s0,16(sp)
    80002618:	e426                	sd	s1,8(sp)
    8000261a:	e04a                	sd	s2,0(sp)
    8000261c:	1000                	add	s0,sp,32
    8000261e:	84ae                	mv	s1,a1
  struct buf *bp;
  int bi, m;

  bp = bread(dev, BBLOCK(b, sb));
    80002620:	00d5d59b          	srlw	a1,a1,0xd
    80002624:	0002a797          	auipc	a5,0x2a
    80002628:	f587a783          	lw	a5,-168(a5) # 8002c57c <sb+0x1c>
    8000262c:	9dbd                	addw	a1,a1,a5
    8000262e:	00000097          	auipc	ra,0x0
    80002632:	da0080e7          	jalr	-608(ra) # 800023ce <bread>
  bi = b % BPB;
  m = 1 << (bi % 8);
    80002636:	0074f713          	and	a4,s1,7
    8000263a:	4785                	li	a5,1
    8000263c:	00e797bb          	sllw	a5,a5,a4
  if((bp->data[bi/8] & m) == 0)
    80002640:	14ce                	sll	s1,s1,0x33
    80002642:	90d9                	srl	s1,s1,0x36
    80002644:	00950733          	add	a4,a0,s1
    80002648:	05874703          	lbu	a4,88(a4)
    8000264c:	00e7f6b3          	and	a3,a5,a4
    80002650:	c69d                	beqz	a3,8000267e <bfree+0x6c>
    80002652:	892a                	mv	s2,a0
    panic("freeing free block");
  bp->data[bi/8] &= ~m;
    80002654:	94aa                	add	s1,s1,a0
    80002656:	fff7c793          	not	a5,a5
    8000265a:	8f7d                	and	a4,a4,a5
    8000265c:	04e48c23          	sb	a4,88(s1)
  log_write(bp);
    80002660:	00001097          	auipc	ra,0x1
    80002664:	112080e7          	jalr	274(ra) # 80003772 <log_write>
  brelse(bp);
    80002668:	854a                	mv	a0,s2
    8000266a:	00000097          	auipc	ra,0x0
    8000266e:	e94080e7          	jalr	-364(ra) # 800024fe <brelse>
}
    80002672:	60e2                	ld	ra,24(sp)
    80002674:	6442                	ld	s0,16(sp)
    80002676:	64a2                	ld	s1,8(sp)
    80002678:	6902                	ld	s2,0(sp)
    8000267a:	6105                	add	sp,sp,32
    8000267c:	8082                	ret
    panic("freeing free block");
    8000267e:	00009517          	auipc	a0,0x9
    80002682:	d4a50513          	add	a0,a0,-694 # 8000b3c8 <etext+0x3c8>
    80002686:	00007097          	auipc	ra,0x7
    8000268a:	c52080e7          	jalr	-942(ra) # 800092d8 <panic>

000000008000268e <balloc>:
{
    8000268e:	711d                	add	sp,sp,-96
    80002690:	ec86                	sd	ra,88(sp)
    80002692:	e8a2                	sd	s0,80(sp)
    80002694:	e4a6                	sd	s1,72(sp)
    80002696:	e0ca                	sd	s2,64(sp)
    80002698:	fc4e                	sd	s3,56(sp)
    8000269a:	f852                	sd	s4,48(sp)
    8000269c:	f456                	sd	s5,40(sp)
    8000269e:	f05a                	sd	s6,32(sp)
    800026a0:	ec5e                	sd	s7,24(sp)
    800026a2:	e862                	sd	s8,16(sp)
    800026a4:	e466                	sd	s9,8(sp)
    800026a6:	1080                	add	s0,sp,96
  for(b = 0; b < sb.size; b += BPB){
    800026a8:	0002a797          	auipc	a5,0x2a
    800026ac:	ebc7a783          	lw	a5,-324(a5) # 8002c564 <sb+0x4>
    800026b0:	cbc1                	beqz	a5,80002740 <balloc+0xb2>
    800026b2:	8baa                	mv	s7,a0
    800026b4:	4a81                	li	s5,0
    bp = bread(dev, BBLOCK(b, sb));
    800026b6:	0002ab17          	auipc	s6,0x2a
    800026ba:	eaab0b13          	add	s6,s6,-342 # 8002c560 <sb>
    for(bi = 0; bi < BPB && b + bi < sb.size; bi++){
    800026be:	4c01                	li	s8,0
      m = 1 << (bi % 8);
    800026c0:	4985                	li	s3,1
    for(bi = 0; bi < BPB && b + bi < sb.size; bi++){
    800026c2:	6a09                	lui	s4,0x2
  for(b = 0; b < sb.size; b += BPB){
    800026c4:	6c89                	lui	s9,0x2
    800026c6:	a831                	j	800026e2 <balloc+0x54>
    brelse(bp);
    800026c8:	854a                	mv	a0,s2
    800026ca:	00000097          	auipc	ra,0x0
    800026ce:	e34080e7          	jalr	-460(ra) # 800024fe <brelse>
  for(b = 0; b < sb.size; b += BPB){
    800026d2:	015c87bb          	addw	a5,s9,s5
    800026d6:	00078a9b          	sext.w	s5,a5
    800026da:	004b2703          	lw	a4,4(s6)
    800026de:	06eaf163          	bgeu	s5,a4,80002740 <balloc+0xb2>
    bp = bread(dev, BBLOCK(b, sb));
    800026e2:	41fad79b          	sraw	a5,s5,0x1f
    800026e6:	0137d79b          	srlw	a5,a5,0x13
    800026ea:	015787bb          	addw	a5,a5,s5
    800026ee:	40d7d79b          	sraw	a5,a5,0xd
    800026f2:	01cb2583          	lw	a1,28(s6)
    800026f6:	9dbd                	addw	a1,a1,a5
    800026f8:	855e                	mv	a0,s7
    800026fa:	00000097          	auipc	ra,0x0
    800026fe:	cd4080e7          	jalr	-812(ra) # 800023ce <bread>
    80002702:	892a                	mv	s2,a0
    for(bi = 0; bi < BPB && b + bi < sb.size; bi++){
    80002704:	004b2503          	lw	a0,4(s6)
    80002708:	000a849b          	sext.w	s1,s5
    8000270c:	8762                	mv	a4,s8
    8000270e:	faa4fde3          	bgeu	s1,a0,800026c8 <balloc+0x3a>
      m = 1 << (bi % 8);
    80002712:	00777693          	and	a3,a4,7
    80002716:	00d996bb          	sllw	a3,s3,a3
      if((bp->data[bi/8] & m) == 0){  // Is block free?
    8000271a:	41f7579b          	sraw	a5,a4,0x1f
    8000271e:	01d7d79b          	srlw	a5,a5,0x1d
    80002722:	9fb9                	addw	a5,a5,a4
    80002724:	4037d79b          	sraw	a5,a5,0x3
    80002728:	00f90633          	add	a2,s2,a5
    8000272c:	05864603          	lbu	a2,88(a2)
    80002730:	00c6f5b3          	and	a1,a3,a2
    80002734:	cd91                	beqz	a1,80002750 <balloc+0xc2>
    for(bi = 0; bi < BPB && b + bi < sb.size; bi++){
    80002736:	2705                	addw	a4,a4,1
    80002738:	2485                	addw	s1,s1,1
    8000273a:	fd471ae3          	bne	a4,s4,8000270e <balloc+0x80>
    8000273e:	b769                	j	800026c8 <balloc+0x3a>
  panic("balloc: out of blocks");
    80002740:	00009517          	auipc	a0,0x9
    80002744:	ca050513          	add	a0,a0,-864 # 8000b3e0 <etext+0x3e0>
    80002748:	00007097          	auipc	ra,0x7
    8000274c:	b90080e7          	jalr	-1136(ra) # 800092d8 <panic>
        bp->data[bi/8] |= m;  // Mark block in use.
    80002750:	97ca                	add	a5,a5,s2
    80002752:	8e55                	or	a2,a2,a3
    80002754:	04c78c23          	sb	a2,88(a5)
        log_write(bp);
    80002758:	854a                	mv	a0,s2
    8000275a:	00001097          	auipc	ra,0x1
    8000275e:	018080e7          	jalr	24(ra) # 80003772 <log_write>
        brelse(bp);
    80002762:	854a                	mv	a0,s2
    80002764:	00000097          	auipc	ra,0x0
    80002768:	d9a080e7          	jalr	-614(ra) # 800024fe <brelse>
  bp = bread(dev, bno);
    8000276c:	85a6                	mv	a1,s1
    8000276e:	855e                	mv	a0,s7
    80002770:	00000097          	auipc	ra,0x0
    80002774:	c5e080e7          	jalr	-930(ra) # 800023ce <bread>
    80002778:	892a                	mv	s2,a0
  memset(bp->data, 0, BSIZE);
    8000277a:	40000613          	li	a2,1024
    8000277e:	4581                	li	a1,0
    80002780:	05850513          	add	a0,a0,88
    80002784:	ffffe097          	auipc	ra,0xffffe
    80002788:	9f6080e7          	jalr	-1546(ra) # 8000017a <memset>
  log_write(bp);
    8000278c:	854a                	mv	a0,s2
    8000278e:	00001097          	auipc	ra,0x1
    80002792:	fe4080e7          	jalr	-28(ra) # 80003772 <log_write>
  brelse(bp);
    80002796:	854a                	mv	a0,s2
    80002798:	00000097          	auipc	ra,0x0
    8000279c:	d66080e7          	jalr	-666(ra) # 800024fe <brelse>
}
    800027a0:	8526                	mv	a0,s1
    800027a2:	60e6                	ld	ra,88(sp)
    800027a4:	6446                	ld	s0,80(sp)
    800027a6:	64a6                	ld	s1,72(sp)
    800027a8:	6906                	ld	s2,64(sp)
    800027aa:	79e2                	ld	s3,56(sp)
    800027ac:	7a42                	ld	s4,48(sp)
    800027ae:	7aa2                	ld	s5,40(sp)
    800027b0:	7b02                	ld	s6,32(sp)
    800027b2:	6be2                	ld	s7,24(sp)
    800027b4:	6c42                	ld	s8,16(sp)
    800027b6:	6ca2                	ld	s9,8(sp)
    800027b8:	6125                	add	sp,sp,96
    800027ba:	8082                	ret

00000000800027bc <bmap>:

// Return the disk block address of the nth block in inode ip.
// If there is no such block, bmap allocates one.
static uint
bmap(struct inode *ip, uint bn)
{
    800027bc:	7179                	add	sp,sp,-48
    800027be:	f406                	sd	ra,40(sp)
    800027c0:	f022                	sd	s0,32(sp)
    800027c2:	ec26                	sd	s1,24(sp)
    800027c4:	e84a                	sd	s2,16(sp)
    800027c6:	e44e                	sd	s3,8(sp)
    800027c8:	1800                	add	s0,sp,48
    800027ca:	892a                	mv	s2,a0
  uint addr, *a;
  struct buf *bp;

  if(bn < NDIRECT){
    800027cc:	47ad                	li	a5,11
    800027ce:	04b7ff63          	bgeu	a5,a1,8000282c <bmap+0x70>
    800027d2:	e052                	sd	s4,0(sp)
    if((addr = ip->addrs[bn]) == 0)
      ip->addrs[bn] = addr = balloc(ip->dev);
    return addr;
  }
  bn -= NDIRECT;
    800027d4:	ff45849b          	addw	s1,a1,-12
    800027d8:	0004871b          	sext.w	a4,s1

  if(bn < NINDIRECT){
    800027dc:	0ff00793          	li	a5,255
    800027e0:	0ae7e463          	bltu	a5,a4,80002888 <bmap+0xcc>
    // Load indirect block, allocating if necessary.
    if((addr = ip->addrs[NDIRECT]) == 0)
    800027e4:	08052583          	lw	a1,128(a0)
    800027e8:	c5b5                	beqz	a1,80002854 <bmap+0x98>
      ip->addrs[NDIRECT] = addr = balloc(ip->dev);
    bp = bread(ip->dev, addr);
    800027ea:	00092503          	lw	a0,0(s2)
    800027ee:	00000097          	auipc	ra,0x0
    800027f2:	be0080e7          	jalr	-1056(ra) # 800023ce <bread>
    800027f6:	8a2a                	mv	s4,a0
    a = (uint*)bp->data;
    800027f8:	05850793          	add	a5,a0,88
    if((addr = a[bn]) == 0){
    800027fc:	02049713          	sll	a4,s1,0x20
    80002800:	01e75593          	srl	a1,a4,0x1e
    80002804:	00b784b3          	add	s1,a5,a1
    80002808:	0004a983          	lw	s3,0(s1)
    8000280c:	04098e63          	beqz	s3,80002868 <bmap+0xac>
      a[bn] = addr = balloc(ip->dev);
      log_write(bp);
    }
    brelse(bp);
    80002810:	8552                	mv	a0,s4
    80002812:	00000097          	auipc	ra,0x0
    80002816:	cec080e7          	jalr	-788(ra) # 800024fe <brelse>
    return addr;
    8000281a:	6a02                	ld	s4,0(sp)
  }

  panic("bmap: out of range");
}
    8000281c:	854e                	mv	a0,s3
    8000281e:	70a2                	ld	ra,40(sp)
    80002820:	7402                	ld	s0,32(sp)
    80002822:	64e2                	ld	s1,24(sp)
    80002824:	6942                	ld	s2,16(sp)
    80002826:	69a2                	ld	s3,8(sp)
    80002828:	6145                	add	sp,sp,48
    8000282a:	8082                	ret
    if((addr = ip->addrs[bn]) == 0)
    8000282c:	02059793          	sll	a5,a1,0x20
    80002830:	01e7d593          	srl	a1,a5,0x1e
    80002834:	00b504b3          	add	s1,a0,a1
    80002838:	0504a983          	lw	s3,80(s1)
    8000283c:	fe0990e3          	bnez	s3,8000281c <bmap+0x60>
      ip->addrs[bn] = addr = balloc(ip->dev);
    80002840:	4108                	lw	a0,0(a0)
    80002842:	00000097          	auipc	ra,0x0
    80002846:	e4c080e7          	jalr	-436(ra) # 8000268e <balloc>
    8000284a:	0005099b          	sext.w	s3,a0
    8000284e:	0534a823          	sw	s3,80(s1)
    80002852:	b7e9                	j	8000281c <bmap+0x60>
      ip->addrs[NDIRECT] = addr = balloc(ip->dev);
    80002854:	4108                	lw	a0,0(a0)
    80002856:	00000097          	auipc	ra,0x0
    8000285a:	e38080e7          	jalr	-456(ra) # 8000268e <balloc>
    8000285e:	0005059b          	sext.w	a1,a0
    80002862:	08b92023          	sw	a1,128(s2)
    80002866:	b751                	j	800027ea <bmap+0x2e>
      a[bn] = addr = balloc(ip->dev);
    80002868:	00092503          	lw	a0,0(s2)
    8000286c:	00000097          	auipc	ra,0x0
    80002870:	e22080e7          	jalr	-478(ra) # 8000268e <balloc>
    80002874:	0005099b          	sext.w	s3,a0
    80002878:	0134a023          	sw	s3,0(s1)
      log_write(bp);
    8000287c:	8552                	mv	a0,s4
    8000287e:	00001097          	auipc	ra,0x1
    80002882:	ef4080e7          	jalr	-268(ra) # 80003772 <log_write>
    80002886:	b769                	j	80002810 <bmap+0x54>
  panic("bmap: out of range");
    80002888:	00009517          	auipc	a0,0x9
    8000288c:	b7050513          	add	a0,a0,-1168 # 8000b3f8 <etext+0x3f8>
    80002890:	00007097          	auipc	ra,0x7
    80002894:	a48080e7          	jalr	-1464(ra) # 800092d8 <panic>

0000000080002898 <iget>:
{
    80002898:	7179                	add	sp,sp,-48
    8000289a:	f406                	sd	ra,40(sp)
    8000289c:	f022                	sd	s0,32(sp)
    8000289e:	ec26                	sd	s1,24(sp)
    800028a0:	e84a                	sd	s2,16(sp)
    800028a2:	e44e                	sd	s3,8(sp)
    800028a4:	e052                	sd	s4,0(sp)
    800028a6:	1800                	add	s0,sp,48
    800028a8:	89aa                	mv	s3,a0
    800028aa:	8a2e                	mv	s4,a1
  acquire(&icache.lock);
    800028ac:	0002a517          	auipc	a0,0x2a
    800028b0:	cd450513          	add	a0,a0,-812 # 8002c580 <icache>
    800028b4:	00007097          	auipc	ra,0x7
    800028b8:	fbe080e7          	jalr	-66(ra) # 80009872 <acquire>
  empty = 0;
    800028bc:	4901                	li	s2,0
  for(ip = &icache.inode[0]; ip < &icache.inode[NINODE]; ip++){
    800028be:	0002a497          	auipc	s1,0x2a
    800028c2:	cda48493          	add	s1,s1,-806 # 8002c598 <icache+0x18>
    800028c6:	0002b697          	auipc	a3,0x2b
    800028ca:	76268693          	add	a3,a3,1890 # 8002e028 <log>
    800028ce:	a039                	j	800028dc <iget+0x44>
    if(empty == 0 && ip->ref == 0)    // Remember empty slot.
    800028d0:	02090b63          	beqz	s2,80002906 <iget+0x6e>
  for(ip = &icache.inode[0]; ip < &icache.inode[NINODE]; ip++){
    800028d4:	08848493          	add	s1,s1,136
    800028d8:	02d48a63          	beq	s1,a3,8000290c <iget+0x74>
    if(ip->ref > 0 && ip->dev == dev && ip->inum == inum){
    800028dc:	449c                	lw	a5,8(s1)
    800028de:	fef059e3          	blez	a5,800028d0 <iget+0x38>
    800028e2:	4098                	lw	a4,0(s1)
    800028e4:	ff3716e3          	bne	a4,s3,800028d0 <iget+0x38>
    800028e8:	40d8                	lw	a4,4(s1)
    800028ea:	ff4713e3          	bne	a4,s4,800028d0 <iget+0x38>
      ip->ref++;
    800028ee:	2785                	addw	a5,a5,1
    800028f0:	c49c                	sw	a5,8(s1)
      release(&icache.lock);
    800028f2:	0002a517          	auipc	a0,0x2a
    800028f6:	c8e50513          	add	a0,a0,-882 # 8002c580 <icache>
    800028fa:	00007097          	auipc	ra,0x7
    800028fe:	03e080e7          	jalr	62(ra) # 80009938 <release>
      return ip;
    80002902:	8926                	mv	s2,s1
    80002904:	a03d                	j	80002932 <iget+0x9a>
    if(empty == 0 && ip->ref == 0)    // Remember empty slot.
    80002906:	f7f9                	bnez	a5,800028d4 <iget+0x3c>
      empty = ip;
    80002908:	8926                	mv	s2,s1
    8000290a:	b7e9                	j	800028d4 <iget+0x3c>
  if(empty == 0)
    8000290c:	02090c63          	beqz	s2,80002944 <iget+0xac>
  ip->dev = dev;
    80002910:	01392023          	sw	s3,0(s2)
  ip->inum = inum;
    80002914:	01492223          	sw	s4,4(s2)
  ip->ref = 1;
    80002918:	4785                	li	a5,1
    8000291a:	00f92423          	sw	a5,8(s2)
  ip->valid = 0;
    8000291e:	04092023          	sw	zero,64(s2)
  release(&icache.lock);
    80002922:	0002a517          	auipc	a0,0x2a
    80002926:	c5e50513          	add	a0,a0,-930 # 8002c580 <icache>
    8000292a:	00007097          	auipc	ra,0x7
    8000292e:	00e080e7          	jalr	14(ra) # 80009938 <release>
}
    80002932:	854a                	mv	a0,s2
    80002934:	70a2                	ld	ra,40(sp)
    80002936:	7402                	ld	s0,32(sp)
    80002938:	64e2                	ld	s1,24(sp)
    8000293a:	6942                	ld	s2,16(sp)
    8000293c:	69a2                	ld	s3,8(sp)
    8000293e:	6a02                	ld	s4,0(sp)
    80002940:	6145                	add	sp,sp,48
    80002942:	8082                	ret
    panic("iget: no inodes");
    80002944:	00009517          	auipc	a0,0x9
    80002948:	acc50513          	add	a0,a0,-1332 # 8000b410 <etext+0x410>
    8000294c:	00007097          	auipc	ra,0x7
    80002950:	98c080e7          	jalr	-1652(ra) # 800092d8 <panic>

0000000080002954 <fsinit>:
fsinit(int dev) {
    80002954:	7179                	add	sp,sp,-48
    80002956:	f406                	sd	ra,40(sp)
    80002958:	f022                	sd	s0,32(sp)
    8000295a:	ec26                	sd	s1,24(sp)
    8000295c:	e84a                	sd	s2,16(sp)
    8000295e:	e44e                	sd	s3,8(sp)
    80002960:	1800                	add	s0,sp,48
    80002962:	892a                	mv	s2,a0
  bp = bread(dev, 1);
    80002964:	4585                	li	a1,1
    80002966:	00000097          	auipc	ra,0x0
    8000296a:	a68080e7          	jalr	-1432(ra) # 800023ce <bread>
    8000296e:	84aa                	mv	s1,a0
  memmove(sb, bp->data, sizeof(*sb));
    80002970:	0002a997          	auipc	s3,0x2a
    80002974:	bf098993          	add	s3,s3,-1040 # 8002c560 <sb>
    80002978:	02000613          	li	a2,32
    8000297c:	05850593          	add	a1,a0,88
    80002980:	854e                	mv	a0,s3
    80002982:	ffffe097          	auipc	ra,0xffffe
    80002986:	854080e7          	jalr	-1964(ra) # 800001d6 <memmove>
  brelse(bp);
    8000298a:	8526                	mv	a0,s1
    8000298c:	00000097          	auipc	ra,0x0
    80002990:	b72080e7          	jalr	-1166(ra) # 800024fe <brelse>
  if(sb.magic != FSMAGIC)
    80002994:	0009a703          	lw	a4,0(s3)
    80002998:	102037b7          	lui	a5,0x10203
    8000299c:	04078793          	add	a5,a5,64 # 10203040 <_entry-0x6fdfcfc0>
    800029a0:	02f71263          	bne	a4,a5,800029c4 <fsinit+0x70>
  initlog(dev, &sb);
    800029a4:	0002a597          	auipc	a1,0x2a
    800029a8:	bbc58593          	add	a1,a1,-1092 # 8002c560 <sb>
    800029ac:	854a                	mv	a0,s2
    800029ae:	00001097          	auipc	ra,0x1
    800029b2:	b54080e7          	jalr	-1196(ra) # 80003502 <initlog>
}
    800029b6:	70a2                	ld	ra,40(sp)
    800029b8:	7402                	ld	s0,32(sp)
    800029ba:	64e2                	ld	s1,24(sp)
    800029bc:	6942                	ld	s2,16(sp)
    800029be:	69a2                	ld	s3,8(sp)
    800029c0:	6145                	add	sp,sp,48
    800029c2:	8082                	ret
    panic("invalid file system");
    800029c4:	00009517          	auipc	a0,0x9
    800029c8:	a5c50513          	add	a0,a0,-1444 # 8000b420 <etext+0x420>
    800029cc:	00007097          	auipc	ra,0x7
    800029d0:	90c080e7          	jalr	-1780(ra) # 800092d8 <panic>

00000000800029d4 <iinit>:
{
    800029d4:	7179                	add	sp,sp,-48
    800029d6:	f406                	sd	ra,40(sp)
    800029d8:	f022                	sd	s0,32(sp)
    800029da:	ec26                	sd	s1,24(sp)
    800029dc:	e84a                	sd	s2,16(sp)
    800029de:	e44e                	sd	s3,8(sp)
    800029e0:	1800                	add	s0,sp,48
  initlock(&icache.lock, "icache");
    800029e2:	00009597          	auipc	a1,0x9
    800029e6:	a5658593          	add	a1,a1,-1450 # 8000b438 <etext+0x438>
    800029ea:	0002a517          	auipc	a0,0x2a
    800029ee:	b9650513          	add	a0,a0,-1130 # 8002c580 <icache>
    800029f2:	00007097          	auipc	ra,0x7
    800029f6:	df0080e7          	jalr	-528(ra) # 800097e2 <initlock>
  for(i = 0; i < NINODE; i++) {
    800029fa:	0002a497          	auipc	s1,0x2a
    800029fe:	bae48493          	add	s1,s1,-1106 # 8002c5a8 <icache+0x28>
    80002a02:	0002b997          	auipc	s3,0x2b
    80002a06:	63698993          	add	s3,s3,1590 # 8002e038 <log+0x10>
    initsleeplock(&icache.inode[i].lock, "inode");
    80002a0a:	00009917          	auipc	s2,0x9
    80002a0e:	a3690913          	add	s2,s2,-1482 # 8000b440 <etext+0x440>
    80002a12:	85ca                	mv	a1,s2
    80002a14:	8526                	mv	a0,s1
    80002a16:	00001097          	auipc	ra,0x1
    80002a1a:	e48080e7          	jalr	-440(ra) # 8000385e <initsleeplock>
  for(i = 0; i < NINODE; i++) {
    80002a1e:	08848493          	add	s1,s1,136
    80002a22:	ff3498e3          	bne	s1,s3,80002a12 <iinit+0x3e>
}
    80002a26:	70a2                	ld	ra,40(sp)
    80002a28:	7402                	ld	s0,32(sp)
    80002a2a:	64e2                	ld	s1,24(sp)
    80002a2c:	6942                	ld	s2,16(sp)
    80002a2e:	69a2                	ld	s3,8(sp)
    80002a30:	6145                	add	sp,sp,48
    80002a32:	8082                	ret

0000000080002a34 <ialloc>:
{
    80002a34:	7139                	add	sp,sp,-64
    80002a36:	fc06                	sd	ra,56(sp)
    80002a38:	f822                	sd	s0,48(sp)
    80002a3a:	f426                	sd	s1,40(sp)
    80002a3c:	f04a                	sd	s2,32(sp)
    80002a3e:	ec4e                	sd	s3,24(sp)
    80002a40:	e852                	sd	s4,16(sp)
    80002a42:	e456                	sd	s5,8(sp)
    80002a44:	e05a                	sd	s6,0(sp)
    80002a46:	0080                	add	s0,sp,64
  for(inum = 1; inum < sb.ninodes; inum++){
    80002a48:	0002a717          	auipc	a4,0x2a
    80002a4c:	b2472703          	lw	a4,-1244(a4) # 8002c56c <sb+0xc>
    80002a50:	4785                	li	a5,1
    80002a52:	04e7f863          	bgeu	a5,a4,80002aa2 <ialloc+0x6e>
    80002a56:	8aaa                	mv	s5,a0
    80002a58:	8b2e                	mv	s6,a1
    80002a5a:	4905                	li	s2,1
    bp = bread(dev, IBLOCK(inum, sb));
    80002a5c:	0002aa17          	auipc	s4,0x2a
    80002a60:	b04a0a13          	add	s4,s4,-1276 # 8002c560 <sb>
    80002a64:	00495593          	srl	a1,s2,0x4
    80002a68:	018a2783          	lw	a5,24(s4)
    80002a6c:	9dbd                	addw	a1,a1,a5
    80002a6e:	8556                	mv	a0,s5
    80002a70:	00000097          	auipc	ra,0x0
    80002a74:	95e080e7          	jalr	-1698(ra) # 800023ce <bread>
    80002a78:	84aa                	mv	s1,a0
    dip = (struct dinode*)bp->data + inum%IPB;
    80002a7a:	05850993          	add	s3,a0,88
    80002a7e:	00f97793          	and	a5,s2,15
    80002a82:	079a                	sll	a5,a5,0x6
    80002a84:	99be                	add	s3,s3,a5
    if(dip->type == 0){  // a free inode
    80002a86:	00099783          	lh	a5,0(s3)
    80002a8a:	c785                	beqz	a5,80002ab2 <ialloc+0x7e>
    brelse(bp);
    80002a8c:	00000097          	auipc	ra,0x0
    80002a90:	a72080e7          	jalr	-1422(ra) # 800024fe <brelse>
  for(inum = 1; inum < sb.ninodes; inum++){
    80002a94:	0905                	add	s2,s2,1
    80002a96:	00ca2703          	lw	a4,12(s4)
    80002a9a:	0009079b          	sext.w	a5,s2
    80002a9e:	fce7e3e3          	bltu	a5,a4,80002a64 <ialloc+0x30>
  panic("ialloc: no inodes");
    80002aa2:	00009517          	auipc	a0,0x9
    80002aa6:	9a650513          	add	a0,a0,-1626 # 8000b448 <etext+0x448>
    80002aaa:	00007097          	auipc	ra,0x7
    80002aae:	82e080e7          	jalr	-2002(ra) # 800092d8 <panic>
      memset(dip, 0, sizeof(*dip));
    80002ab2:	04000613          	li	a2,64
    80002ab6:	4581                	li	a1,0
    80002ab8:	854e                	mv	a0,s3
    80002aba:	ffffd097          	auipc	ra,0xffffd
    80002abe:	6c0080e7          	jalr	1728(ra) # 8000017a <memset>
      dip->type = type;
    80002ac2:	01699023          	sh	s6,0(s3)
      log_write(bp);   // mark it allocated on the disk
    80002ac6:	8526                	mv	a0,s1
    80002ac8:	00001097          	auipc	ra,0x1
    80002acc:	caa080e7          	jalr	-854(ra) # 80003772 <log_write>
      brelse(bp);
    80002ad0:	8526                	mv	a0,s1
    80002ad2:	00000097          	auipc	ra,0x0
    80002ad6:	a2c080e7          	jalr	-1492(ra) # 800024fe <brelse>
      return iget(dev, inum);
    80002ada:	0009059b          	sext.w	a1,s2
    80002ade:	8556                	mv	a0,s5
    80002ae0:	00000097          	auipc	ra,0x0
    80002ae4:	db8080e7          	jalr	-584(ra) # 80002898 <iget>
}
    80002ae8:	70e2                	ld	ra,56(sp)
    80002aea:	7442                	ld	s0,48(sp)
    80002aec:	74a2                	ld	s1,40(sp)
    80002aee:	7902                	ld	s2,32(sp)
    80002af0:	69e2                	ld	s3,24(sp)
    80002af2:	6a42                	ld	s4,16(sp)
    80002af4:	6aa2                	ld	s5,8(sp)
    80002af6:	6b02                	ld	s6,0(sp)
    80002af8:	6121                	add	sp,sp,64
    80002afa:	8082                	ret

0000000080002afc <iupdate>:
{
    80002afc:	1101                	add	sp,sp,-32
    80002afe:	ec06                	sd	ra,24(sp)
    80002b00:	e822                	sd	s0,16(sp)
    80002b02:	e426                	sd	s1,8(sp)
    80002b04:	e04a                	sd	s2,0(sp)
    80002b06:	1000                	add	s0,sp,32
    80002b08:	84aa                	mv	s1,a0
  bp = bread(ip->dev, IBLOCK(ip->inum, sb));
    80002b0a:	415c                	lw	a5,4(a0)
    80002b0c:	0047d79b          	srlw	a5,a5,0x4
    80002b10:	0002a597          	auipc	a1,0x2a
    80002b14:	a685a583          	lw	a1,-1432(a1) # 8002c578 <sb+0x18>
    80002b18:	9dbd                	addw	a1,a1,a5
    80002b1a:	4108                	lw	a0,0(a0)
    80002b1c:	00000097          	auipc	ra,0x0
    80002b20:	8b2080e7          	jalr	-1870(ra) # 800023ce <bread>
    80002b24:	892a                	mv	s2,a0
  dip = (struct dinode*)bp->data + ip->inum%IPB;
    80002b26:	05850793          	add	a5,a0,88
    80002b2a:	40d8                	lw	a4,4(s1)
    80002b2c:	8b3d                	and	a4,a4,15
    80002b2e:	071a                	sll	a4,a4,0x6
    80002b30:	97ba                	add	a5,a5,a4
  dip->type = ip->type;
    80002b32:	04449703          	lh	a4,68(s1)
    80002b36:	00e79023          	sh	a4,0(a5)
  dip->major = ip->major;
    80002b3a:	04649703          	lh	a4,70(s1)
    80002b3e:	00e79123          	sh	a4,2(a5)
  dip->minor = ip->minor;
    80002b42:	04849703          	lh	a4,72(s1)
    80002b46:	00e79223          	sh	a4,4(a5)
  dip->nlink = ip->nlink;
    80002b4a:	04a49703          	lh	a4,74(s1)
    80002b4e:	00e79323          	sh	a4,6(a5)
  dip->size = ip->size;
    80002b52:	44f8                	lw	a4,76(s1)
    80002b54:	c798                	sw	a4,8(a5)
  memmove(dip->addrs, ip->addrs, sizeof(ip->addrs));
    80002b56:	03400613          	li	a2,52
    80002b5a:	05048593          	add	a1,s1,80
    80002b5e:	00c78513          	add	a0,a5,12
    80002b62:	ffffd097          	auipc	ra,0xffffd
    80002b66:	674080e7          	jalr	1652(ra) # 800001d6 <memmove>
  log_write(bp);
    80002b6a:	854a                	mv	a0,s2
    80002b6c:	00001097          	auipc	ra,0x1
    80002b70:	c06080e7          	jalr	-1018(ra) # 80003772 <log_write>
  brelse(bp);
    80002b74:	854a                	mv	a0,s2
    80002b76:	00000097          	auipc	ra,0x0
    80002b7a:	988080e7          	jalr	-1656(ra) # 800024fe <brelse>
}
    80002b7e:	60e2                	ld	ra,24(sp)
    80002b80:	6442                	ld	s0,16(sp)
    80002b82:	64a2                	ld	s1,8(sp)
    80002b84:	6902                	ld	s2,0(sp)
    80002b86:	6105                	add	sp,sp,32
    80002b88:	8082                	ret

0000000080002b8a <idup>:
{
    80002b8a:	1101                	add	sp,sp,-32
    80002b8c:	ec06                	sd	ra,24(sp)
    80002b8e:	e822                	sd	s0,16(sp)
    80002b90:	e426                	sd	s1,8(sp)
    80002b92:	1000                	add	s0,sp,32
    80002b94:	84aa                	mv	s1,a0
  acquire(&icache.lock);
    80002b96:	0002a517          	auipc	a0,0x2a
    80002b9a:	9ea50513          	add	a0,a0,-1558 # 8002c580 <icache>
    80002b9e:	00007097          	auipc	ra,0x7
    80002ba2:	cd4080e7          	jalr	-812(ra) # 80009872 <acquire>
  ip->ref++;
    80002ba6:	449c                	lw	a5,8(s1)
    80002ba8:	2785                	addw	a5,a5,1
    80002baa:	c49c                	sw	a5,8(s1)
  release(&icache.lock);
    80002bac:	0002a517          	auipc	a0,0x2a
    80002bb0:	9d450513          	add	a0,a0,-1580 # 8002c580 <icache>
    80002bb4:	00007097          	auipc	ra,0x7
    80002bb8:	d84080e7          	jalr	-636(ra) # 80009938 <release>
}
    80002bbc:	8526                	mv	a0,s1
    80002bbe:	60e2                	ld	ra,24(sp)
    80002bc0:	6442                	ld	s0,16(sp)
    80002bc2:	64a2                	ld	s1,8(sp)
    80002bc4:	6105                	add	sp,sp,32
    80002bc6:	8082                	ret

0000000080002bc8 <ilock>:
{
    80002bc8:	1101                	add	sp,sp,-32
    80002bca:	ec06                	sd	ra,24(sp)
    80002bcc:	e822                	sd	s0,16(sp)
    80002bce:	e426                	sd	s1,8(sp)
    80002bd0:	1000                	add	s0,sp,32
  if(ip == 0 || ip->ref < 1)
    80002bd2:	c10d                	beqz	a0,80002bf4 <ilock+0x2c>
    80002bd4:	84aa                	mv	s1,a0
    80002bd6:	451c                	lw	a5,8(a0)
    80002bd8:	00f05e63          	blez	a5,80002bf4 <ilock+0x2c>
  acquiresleep(&ip->lock);
    80002bdc:	0541                	add	a0,a0,16
    80002bde:	00001097          	auipc	ra,0x1
    80002be2:	cba080e7          	jalr	-838(ra) # 80003898 <acquiresleep>
  if(ip->valid == 0){
    80002be6:	40bc                	lw	a5,64(s1)
    80002be8:	cf99                	beqz	a5,80002c06 <ilock+0x3e>
}
    80002bea:	60e2                	ld	ra,24(sp)
    80002bec:	6442                	ld	s0,16(sp)
    80002bee:	64a2                	ld	s1,8(sp)
    80002bf0:	6105                	add	sp,sp,32
    80002bf2:	8082                	ret
    80002bf4:	e04a                	sd	s2,0(sp)
    panic("ilock");
    80002bf6:	00009517          	auipc	a0,0x9
    80002bfa:	86a50513          	add	a0,a0,-1942 # 8000b460 <etext+0x460>
    80002bfe:	00006097          	auipc	ra,0x6
    80002c02:	6da080e7          	jalr	1754(ra) # 800092d8 <panic>
    80002c06:	e04a                	sd	s2,0(sp)
    bp = bread(ip->dev, IBLOCK(ip->inum, sb));
    80002c08:	40dc                	lw	a5,4(s1)
    80002c0a:	0047d79b          	srlw	a5,a5,0x4
    80002c0e:	0002a597          	auipc	a1,0x2a
    80002c12:	96a5a583          	lw	a1,-1686(a1) # 8002c578 <sb+0x18>
    80002c16:	9dbd                	addw	a1,a1,a5
    80002c18:	4088                	lw	a0,0(s1)
    80002c1a:	fffff097          	auipc	ra,0xfffff
    80002c1e:	7b4080e7          	jalr	1972(ra) # 800023ce <bread>
    80002c22:	892a                	mv	s2,a0
    dip = (struct dinode*)bp->data + ip->inum%IPB;
    80002c24:	05850593          	add	a1,a0,88
    80002c28:	40dc                	lw	a5,4(s1)
    80002c2a:	8bbd                	and	a5,a5,15
    80002c2c:	079a                	sll	a5,a5,0x6
    80002c2e:	95be                	add	a1,a1,a5
    ip->type = dip->type;
    80002c30:	00059783          	lh	a5,0(a1)
    80002c34:	04f49223          	sh	a5,68(s1)
    ip->major = dip->major;
    80002c38:	00259783          	lh	a5,2(a1)
    80002c3c:	04f49323          	sh	a5,70(s1)
    ip->minor = dip->minor;
    80002c40:	00459783          	lh	a5,4(a1)
    80002c44:	04f49423          	sh	a5,72(s1)
    ip->nlink = dip->nlink;
    80002c48:	00659783          	lh	a5,6(a1)
    80002c4c:	04f49523          	sh	a5,74(s1)
    ip->size = dip->size;
    80002c50:	459c                	lw	a5,8(a1)
    80002c52:	c4fc                	sw	a5,76(s1)
    memmove(ip->addrs, dip->addrs, sizeof(ip->addrs));
    80002c54:	03400613          	li	a2,52
    80002c58:	05b1                	add	a1,a1,12
    80002c5a:	05048513          	add	a0,s1,80
    80002c5e:	ffffd097          	auipc	ra,0xffffd
    80002c62:	578080e7          	jalr	1400(ra) # 800001d6 <memmove>
    brelse(bp);
    80002c66:	854a                	mv	a0,s2
    80002c68:	00000097          	auipc	ra,0x0
    80002c6c:	896080e7          	jalr	-1898(ra) # 800024fe <brelse>
    ip->valid = 1;
    80002c70:	4785                	li	a5,1
    80002c72:	c0bc                	sw	a5,64(s1)
    if(ip->type == 0)
    80002c74:	04449783          	lh	a5,68(s1)
    80002c78:	c399                	beqz	a5,80002c7e <ilock+0xb6>
    80002c7a:	6902                	ld	s2,0(sp)
    80002c7c:	b7bd                	j	80002bea <ilock+0x22>
      panic("ilock: no type");
    80002c7e:	00008517          	auipc	a0,0x8
    80002c82:	7ea50513          	add	a0,a0,2026 # 8000b468 <etext+0x468>
    80002c86:	00006097          	auipc	ra,0x6
    80002c8a:	652080e7          	jalr	1618(ra) # 800092d8 <panic>

0000000080002c8e <iunlock>:
{
    80002c8e:	1101                	add	sp,sp,-32
    80002c90:	ec06                	sd	ra,24(sp)
    80002c92:	e822                	sd	s0,16(sp)
    80002c94:	e426                	sd	s1,8(sp)
    80002c96:	e04a                	sd	s2,0(sp)
    80002c98:	1000                	add	s0,sp,32
  if(ip == 0 || !holdingsleep(&ip->lock) || ip->ref < 1)
    80002c9a:	c905                	beqz	a0,80002cca <iunlock+0x3c>
    80002c9c:	84aa                	mv	s1,a0
    80002c9e:	01050913          	add	s2,a0,16
    80002ca2:	854a                	mv	a0,s2
    80002ca4:	00001097          	auipc	ra,0x1
    80002ca8:	c8e080e7          	jalr	-882(ra) # 80003932 <holdingsleep>
    80002cac:	cd19                	beqz	a0,80002cca <iunlock+0x3c>
    80002cae:	449c                	lw	a5,8(s1)
    80002cb0:	00f05d63          	blez	a5,80002cca <iunlock+0x3c>
  releasesleep(&ip->lock);
    80002cb4:	854a                	mv	a0,s2
    80002cb6:	00001097          	auipc	ra,0x1
