
kernel/kernel:     file format elf64-littleriscv


Disassembly of section .text:

0000000080000000 <_entry>:
_entry:
        # set up a stack for C.
        # stack0 is declared in start.c,
        # with a 4096-byte stack per CPU.
        # sp = stack0 + ((hartid + 1) * 4096)
        la sp, stack0
    80000000:	00010117          	auipc	sp,0x10
    80000004:	f2010113          	add	sp,sp,-224 # 8000ff20 <stack0>
        li a0, 1024*4
    80000008:	6505                	lui	a0,0x1
        csrr a1, mhartid
    8000000a:	f14025f3          	csrr	a1,mhartid
        addi a1, a1, 1
    8000000e:	0585                	add	a1,a1,1
        mul a0, a0, a1
    80000010:	02b50533          	mul	a0,a0,a1
        add sp, sp, a0
    80000014:	912a                	add	sp,sp,a0
        # jump to start() in start.c
        call start
    80000016:	04a000ef          	jal	80000060 <start>

000000008000001a <spin>:
spin:
        j spin
    8000001a:	a001                	j	8000001a <spin>

000000008000001c <timerinit>:
}

// ask each hart to generate timer interrupts.
void
timerinit()
{
    8000001c:	1141                	add	sp,sp,-16
    8000001e:	e422                	sd	s0,8(sp)
    80000020:	0800                	add	s0,sp,16
#define MIE_STIE (1L << 5)  // supervisor timer
static inline uint64
r_mie()
{
  uint64 x;
  asm volatile("csrr %0, mie" : "=r" (x) );
    80000022:	304027f3          	csrr	a5,mie
  // enable supervisor-mode timer interrupts.
  w_mie(r_mie() | MIE_STIE);
    80000026:	0207e793          	or	a5,a5,32
}

static inline void 
w_mie(uint64 x)
{
  asm volatile("csrw mie, %0" : : "r" (x));
    8000002a:	30479073          	csrw	mie,a5
static inline uint64
r_menvcfg()
{
  uint64 x;
  // asm volatile("csrr %0, menvcfg" : "=r" (x) );
  asm volatile("csrr %0, 0x30a" : "=r" (x) );
    8000002e:	30a027f3          	csrr	a5,0x30a
  
  // enable the sstc extension (i.e. stimecmp).
  w_menvcfg(r_menvcfg() | (1L << 63)); 
    80000032:	577d                	li	a4,-1
    80000034:	177e                	sll	a4,a4,0x3f
    80000036:	8fd9                	or	a5,a5,a4

static inline void 
w_menvcfg(uint64 x)
{
  // asm volatile("csrw menvcfg, %0" : : "r" (x));
  asm volatile("csrw 0x30a, %0" : : "r" (x));
    80000038:	30a79073          	csrw	0x30a,a5

static inline uint64
r_mcounteren()
{
  uint64 x;
  asm volatile("csrr %0, mcounteren" : "=r" (x) );
    8000003c:	306027f3          	csrr	a5,mcounteren
  
  // allow supervisor to use stimecmp and time.
  w_mcounteren(r_mcounteren() | 2);
    80000040:	0027e793          	or	a5,a5,2
  asm volatile("csrw mcounteren, %0" : : "r" (x));
    80000044:	30679073          	csrw	mcounteren,a5
// machine-mode cycle counter
static inline uint64
r_time()
{
  uint64 x;
  asm volatile("csrr %0, time" : "=r" (x) );
    80000048:	c01027f3          	rdtime	a5
  
  // ask for the very first timer interrupt.
  w_stimecmp(r_time() + 1000000);
    8000004c:	000f4737          	lui	a4,0xf4
    80000050:	24070713          	add	a4,a4,576 # f4240 <_entry-0x7ff0bdc0>
    80000054:	97ba                	add	a5,a5,a4
  asm volatile("csrw 0x14d, %0" : : "r" (x));
    80000056:	14d79073          	csrw	stimecmp,a5
}
    8000005a:	6422                	ld	s0,8(sp)
    8000005c:	0141                	add	sp,sp,16
    8000005e:	8082                	ret

0000000080000060 <start>:
{
    80000060:	1141                	add	sp,sp,-16
    80000062:	e406                	sd	ra,8(sp)
    80000064:	e022                	sd	s0,0(sp)
    80000066:	0800                	add	s0,sp,16
  asm volatile("csrr %0, mstatus" : "=r" (x) );
    80000068:	300027f3          	csrr	a5,mstatus
  x &= ~MSTATUS_MPP_MASK;
    8000006c:	7779                	lui	a4,0xffffe
    8000006e:	7ff70713          	add	a4,a4,2047 # ffffffffffffe7ff <end+0xffffffff7fecc2bf>
    80000072:	8ff9                	and	a5,a5,a4
  x |= MSTATUS_MPP_S;
    80000074:	6705                	lui	a4,0x1
    80000076:	80070713          	add	a4,a4,-2048 # 800 <_entry-0x7ffff800>
    8000007a:	8fd9                	or	a5,a5,a4
  asm volatile("csrw mstatus, %0" : : "r" (x));
    8000007c:	30079073          	csrw	mstatus,a5
  asm volatile("csrw mepc, %0" : : "r" (x));
    80000080:	00001797          	auipc	a5,0x1
    80000084:	25878793          	add	a5,a5,600 # 800012d8 <main>
    80000088:	34179073          	csrw	mepc,a5
  asm volatile("csrw satp, %0" : : "r" (x));
    8000008c:	4781                	li	a5,0
    8000008e:	18079073          	csrw	satp,a5
  asm volatile("csrw medeleg, %0" : : "r" (x));
    80000092:	67c1                	lui	a5,0x10
    80000094:	17fd                	add	a5,a5,-1 # ffff <_entry-0x7fff0001>
    80000096:	30279073          	csrw	medeleg,a5
  asm volatile("csrw mideleg, %0" : : "r" (x));
    8000009a:	30379073          	csrw	mideleg,a5
  asm volatile("csrr %0, sie" : "=r" (x) );
    8000009e:	104027f3          	csrr	a5,sie
  w_sie(r_sie() | SIE_SEIE | SIE_STIE);
    800000a2:	2207e793          	or	a5,a5,544
  asm volatile("csrw sie, %0" : : "r" (x));
    800000a6:	10479073          	csrw	sie,a5
  asm volatile("csrw pmpaddr0, %0" : : "r" (x));
    800000aa:	57fd                	li	a5,-1
    800000ac:	83a9                	srl	a5,a5,0xa
    800000ae:	3b079073          	csrw	pmpaddr0,a5
  asm volatile("csrw pmpcfg0, %0" : : "r" (x));
    800000b2:	47bd                	li	a5,15
    800000b4:	3a079073          	csrw	pmpcfg0,a5
  timerinit();
    800000b8:	f65ff0ef          	jal	8000001c <timerinit>
  asm volatile("csrr %0, mhartid" : "=r" (x) );
    800000bc:	f14027f3          	csrr	a5,mhartid
  w_tp(id);
    800000c0:	2781                	sext.w	a5,a5
}

static inline void 
w_tp(uint64 x)
{
  asm volatile("mv tp, %0" : : "r" (x));
    800000c2:	823e                	mv	tp,a5
  asm volatile("mret");
    800000c4:	30200073          	mret
}
    800000c8:	60a2                	ld	ra,8(sp)
    800000ca:	6402                	ld	s0,0(sp)
    800000cc:	0141                	add	sp,sp,16
    800000ce:	8082                	ret

00000000800000d0 <consolewrite>:
// user write() system calls to the console go here.
// uses sleep() and UART interrupts.
//
int
consolewrite(int user_src, uint64 src, int n)
{
    800000d0:	7119                	add	sp,sp,-128
    800000d2:	fc86                	sd	ra,120(sp)
    800000d4:	f8a2                	sd	s0,112(sp)
    800000d6:	f4a6                	sd	s1,104(sp)
    800000d8:	0100                	add	s0,sp,128
  char buf[32]; // move batches from user space to uart.
  int i = 0;

  while(i < n){
    800000da:	06c05a63          	blez	a2,8000014e <consolewrite+0x7e>
    800000de:	f0ca                	sd	s2,96(sp)
    800000e0:	ecce                	sd	s3,88(sp)
    800000e2:	e8d2                	sd	s4,80(sp)
    800000e4:	e4d6                	sd	s5,72(sp)
    800000e6:	e0da                	sd	s6,64(sp)
    800000e8:	fc5e                	sd	s7,56(sp)
    800000ea:	f862                	sd	s8,48(sp)
    800000ec:	f466                	sd	s9,40(sp)
    800000ee:	8aaa                	mv	s5,a0
    800000f0:	8b2e                	mv	s6,a1
    800000f2:	8a32                	mv	s4,a2
  int i = 0;
    800000f4:	4481                	li	s1,0
    int nn = sizeof(buf);
    if(nn > n - i)
    800000f6:	02000c13          	li	s8,32
    800000fa:	02000c93          	li	s9,32
      nn = n - i;
    if(either_copyin(buf, user_src, src+i, nn) == -1)
    800000fe:	5bfd                	li	s7,-1
    80000100:	a035                	j	8000012c <consolewrite+0x5c>
    if(nn > n - i)
    80000102:	0009099b          	sext.w	s3,s2
    if(either_copyin(buf, user_src, src+i, nn) == -1)
    80000106:	86ce                	mv	a3,s3
    80000108:	01648633          	add	a2,s1,s6
    8000010c:	85d6                	mv	a1,s5
    8000010e:	f8040513          	add	a0,s0,-128
    80000112:	656020ef          	jal	80002768 <either_copyin>
    80000116:	03750e63          	beq	a0,s7,80000152 <consolewrite+0x82>
      break;
    uartwrite(buf, nn);
    8000011a:	85ce                	mv	a1,s3
    8000011c:	f8040513          	add	a0,s0,-128
    80000120:	415000ef          	jal	80000d34 <uartwrite>
    i += nn;
    80000124:	009904bb          	addw	s1,s2,s1
  while(i < n){
    80000128:	0144da63          	bge	s1,s4,8000013c <consolewrite+0x6c>
    if(nn > n - i)
    8000012c:	409a093b          	subw	s2,s4,s1
    80000130:	0009079b          	sext.w	a5,s2
    80000134:	fcfc57e3          	bge	s8,a5,80000102 <consolewrite+0x32>
    80000138:	8966                	mv	s2,s9
    8000013a:	b7e1                	j	80000102 <consolewrite+0x32>
    8000013c:	7906                	ld	s2,96(sp)
    8000013e:	69e6                	ld	s3,88(sp)
    80000140:	6a46                	ld	s4,80(sp)
    80000142:	6aa6                	ld	s5,72(sp)
    80000144:	6b06                	ld	s6,64(sp)
    80000146:	7be2                	ld	s7,56(sp)
    80000148:	7c42                	ld	s8,48(sp)
    8000014a:	7ca2                	ld	s9,40(sp)
    8000014c:	a819                	j	80000162 <consolewrite+0x92>
  int i = 0;
    8000014e:	4481                	li	s1,0
    80000150:	a809                	j	80000162 <consolewrite+0x92>
    80000152:	7906                	ld	s2,96(sp)
    80000154:	69e6                	ld	s3,88(sp)
    80000156:	6a46                	ld	s4,80(sp)
    80000158:	6aa6                	ld	s5,72(sp)
    8000015a:	6b06                	ld	s6,64(sp)
    8000015c:	7be2                	ld	s7,56(sp)
    8000015e:	7c42                	ld	s8,48(sp)
    80000160:	7ca2                	ld	s9,40(sp)
  }

  return i;
}
    80000162:	8526                	mv	a0,s1
    80000164:	70e6                	ld	ra,120(sp)
    80000166:	7446                	ld	s0,112(sp)
    80000168:	74a6                	ld	s1,104(sp)
    8000016a:	6109                	add	sp,sp,128
    8000016c:	8082                	ret

000000008000016e <consoleread>:
// user_dst indicates whether dst is a user
// or kernel address.
//
int
consoleread(int user_dst, uint64 dst, int n)
{
    8000016e:	711d                	add	sp,sp,-96
    80000170:	ec86                	sd	ra,88(sp)
    80000172:	e8a2                	sd	s0,80(sp)
    80000174:	e4a6                	sd	s1,72(sp)
    80000176:	e0ca                	sd	s2,64(sp)
    80000178:	fc4e                	sd	s3,56(sp)
    8000017a:	f852                	sd	s4,48(sp)
    8000017c:	f456                	sd	s5,40(sp)
    8000017e:	f05a                	sd	s6,32(sp)
    80000180:	1080                	add	s0,sp,96
    80000182:	8aaa                	mv	s5,a0
    80000184:	8a2e                	mv	s4,a1
    80000186:	89b2                	mv	s3,a2
  uint target;
  int c;
  char cbuf;

  target = n;
    80000188:	00060b1b          	sext.w	s6,a2
  acquire(&cons.lock);
    8000018c:	00018517          	auipc	a0,0x18
    80000190:	d9450513          	add	a0,a0,-620 # 80017f20 <cons>
    80000194:	6d7000ef          	jal	8000106a <acquire>
  while(n > 0){
    // wait until interrupt handler has put some
    // input into cons.buffer.
    while(cons.r == cons.w){
    80000198:	00018497          	auipc	s1,0x18
    8000019c:	d8848493          	add	s1,s1,-632 # 80017f20 <cons>
      if(killed(myproc())){
        release(&cons.lock);
        return -1;
      }
      sleep(&cons.r, &cons.lock);
    800001a0:	00018917          	auipc	s2,0x18
    800001a4:	e1890913          	add	s2,s2,-488 # 80017fb8 <cons+0x98>
  while(n > 0){
    800001a8:	0b305d63          	blez	s3,80000262 <consoleread+0xf4>
    while(cons.r == cons.w){
    800001ac:	0984a783          	lw	a5,152(s1)
    800001b0:	09c4a703          	lw	a4,156(s1)
    800001b4:	0af71263          	bne	a4,a5,80000258 <consoleread+0xea>
      if(killed(myproc())){
    800001b8:	401010ef          	jal	80001db8 <myproc>
    800001bc:	43e020ef          	jal	800025fa <killed>
    800001c0:	e12d                	bnez	a0,80000222 <consoleread+0xb4>
      sleep(&cons.r, &cons.lock);
    800001c2:	85a6                	mv	a1,s1
    800001c4:	854a                	mv	a0,s2
    800001c6:	1fc020ef          	jal	800023c2 <sleep>
    while(cons.r == cons.w){
    800001ca:	0984a783          	lw	a5,152(s1)
    800001ce:	09c4a703          	lw	a4,156(s1)
    800001d2:	fef703e3          	beq	a4,a5,800001b8 <consoleread+0x4a>
    800001d6:	ec5e                	sd	s7,24(sp)
    }

    c = cons.buf[cons.r++ % INPUT_BUF_SIZE];
    800001d8:	00018717          	auipc	a4,0x18
    800001dc:	d4870713          	add	a4,a4,-696 # 80017f20 <cons>
    800001e0:	0017869b          	addw	a3,a5,1
    800001e4:	08d72c23          	sw	a3,152(a4)
    800001e8:	07f7f693          	and	a3,a5,127
    800001ec:	9736                	add	a4,a4,a3
    800001ee:	01874703          	lbu	a4,24(a4)
    800001f2:	00070b9b          	sext.w	s7,a4

    if(c == C('D')){  // end-of-file
    800001f6:	4691                	li	a3,4
    800001f8:	04db8663          	beq	s7,a3,80000244 <consoleread+0xd6>
      }
      break;
    }

    // copy the input byte to the user-space buffer.
    cbuf = c;
    800001fc:	fae407a3          	sb	a4,-81(s0)
    if(either_copyout(user_dst, dst, &cbuf, 1) == -1)
    80000200:	4685                	li	a3,1
    80000202:	faf40613          	add	a2,s0,-81
    80000206:	85d2                	mv	a1,s4
    80000208:	8556                	mv	a0,s5
    8000020a:	514020ef          	jal	8000271e <either_copyout>
    8000020e:	57fd                	li	a5,-1
    80000210:	04f50863          	beq	a0,a5,80000260 <consoleread+0xf2>
      break;

    dst++;
    80000214:	0a05                	add	s4,s4,1
    --n;
    80000216:	39fd                	addw	s3,s3,-1

    if(c == '\n'){
    80000218:	47a9                	li	a5,10
    8000021a:	04fb8d63          	beq	s7,a5,80000274 <consoleread+0x106>
    8000021e:	6be2                	ld	s7,24(sp)
    80000220:	b761                	j	800001a8 <consoleread+0x3a>
        release(&cons.lock);
    80000222:	00018517          	auipc	a0,0x18
    80000226:	cfe50513          	add	a0,a0,-770 # 80017f20 <cons>
    8000022a:	6d9000ef          	jal	80001102 <release>
        return -1;
    8000022e:	557d                	li	a0,-1
    }
  }
  release(&cons.lock);

  return target - n;
}
    80000230:	60e6                	ld	ra,88(sp)
    80000232:	6446                	ld	s0,80(sp)
    80000234:	64a6                	ld	s1,72(sp)
    80000236:	6906                	ld	s2,64(sp)
    80000238:	79e2                	ld	s3,56(sp)
    8000023a:	7a42                	ld	s4,48(sp)
    8000023c:	7aa2                	ld	s5,40(sp)
    8000023e:	7b02                	ld	s6,32(sp)
    80000240:	6125                	add	sp,sp,96
    80000242:	8082                	ret
      if(n < target){
    80000244:	0009871b          	sext.w	a4,s3
    80000248:	01677a63          	bgeu	a4,s6,8000025c <consoleread+0xee>
        cons.r--;
    8000024c:	00018717          	auipc	a4,0x18
    80000250:	d6f72623          	sw	a5,-660(a4) # 80017fb8 <cons+0x98>
    80000254:	6be2                	ld	s7,24(sp)
    80000256:	a031                	j	80000262 <consoleread+0xf4>
    80000258:	ec5e                	sd	s7,24(sp)
    8000025a:	bfbd                	j	800001d8 <consoleread+0x6a>
    8000025c:	6be2                	ld	s7,24(sp)
    8000025e:	a011                	j	80000262 <consoleread+0xf4>
    80000260:	6be2                	ld	s7,24(sp)
  release(&cons.lock);
    80000262:	00018517          	auipc	a0,0x18
    80000266:	cbe50513          	add	a0,a0,-834 # 80017f20 <cons>
    8000026a:	699000ef          	jal	80001102 <release>
  return target - n;
    8000026e:	413b053b          	subw	a0,s6,s3
    80000272:	bf7d                	j	80000230 <consoleread+0xc2>
    80000274:	6be2                	ld	s7,24(sp)
    80000276:	b7f5                	j	80000262 <consoleread+0xf4>

0000000080000278 <consputc>:
{
    80000278:	1141                	add	sp,sp,-16
    8000027a:	e406                	sd	ra,8(sp)
    8000027c:	e022                	sd	s0,0(sp)
    8000027e:	0800                	add	s0,sp,16
  if(c == BACKSPACE){
    80000280:	10000793          	li	a5,256
    80000284:	00f50863          	beq	a0,a5,80000294 <consputc+0x1c>
    uartputc_sync(c);
    80000288:	341000ef          	jal	80000dc8 <uartputc_sync>
}
    8000028c:	60a2                	ld	ra,8(sp)
    8000028e:	6402                	ld	s0,0(sp)
    80000290:	0141                	add	sp,sp,16
    80000292:	8082                	ret
    uartputc_sync('\b'); uartputc_sync(' '); uartputc_sync('\b');
    80000294:	4521                	li	a0,8
    80000296:	333000ef          	jal	80000dc8 <uartputc_sync>
    8000029a:	02000513          	li	a0,32
    8000029e:	32b000ef          	jal	80000dc8 <uartputc_sync>
    800002a2:	4521                	li	a0,8
    800002a4:	325000ef          	jal	80000dc8 <uartputc_sync>
    800002a8:	b7d5                	j	8000028c <consputc+0x14>

00000000800002aa <consoleintr>:
// do erase/kill processing, append to cons.buf,
// wake up consoleread() if a whole line has arrived.
//
void
consoleintr(int c)
{
    800002aa:	1101                	add	sp,sp,-32
    800002ac:	ec06                	sd	ra,24(sp)
    800002ae:	e822                	sd	s0,16(sp)
    800002b0:	e426                	sd	s1,8(sp)
    800002b2:	1000                	add	s0,sp,32
    800002b4:	84aa                	mv	s1,a0
  acquire(&cons.lock);
    800002b6:	00018517          	auipc	a0,0x18
    800002ba:	c6a50513          	add	a0,a0,-918 # 80017f20 <cons>
    800002be:	5ad000ef          	jal	8000106a <acquire>

  switch(c){
    800002c2:	47d5                	li	a5,21
    800002c4:	08f48f63          	beq	s1,a5,80000362 <consoleintr+0xb8>
    800002c8:	0297c563          	blt	a5,s1,800002f2 <consoleintr+0x48>
    800002cc:	47a1                	li	a5,8
    800002ce:	0ef48463          	beq	s1,a5,800003b6 <consoleintr+0x10c>
    800002d2:	47c1                	li	a5,16
    800002d4:	10f49563          	bne	s1,a5,800003de <consoleintr+0x134>
  case C('P'):  // Print process list.
    procdump();
    800002d8:	4da020ef          	jal	800027b2 <procdump>
      }
    }
    break;
  }
  
  release(&cons.lock);
    800002dc:	00018517          	auipc	a0,0x18
    800002e0:	c4450513          	add	a0,a0,-956 # 80017f20 <cons>
    800002e4:	61f000ef          	jal	80001102 <release>
}
    800002e8:	60e2                	ld	ra,24(sp)
    800002ea:	6442                	ld	s0,16(sp)
    800002ec:	64a2                	ld	s1,8(sp)
    800002ee:	6105                	add	sp,sp,32
    800002f0:	8082                	ret
  switch(c){
    800002f2:	07f00793          	li	a5,127
    800002f6:	0cf48063          	beq	s1,a5,800003b6 <consoleintr+0x10c>
    if(c != 0 && cons.e-cons.r < INPUT_BUF_SIZE){
    800002fa:	00018717          	auipc	a4,0x18
    800002fe:	c2670713          	add	a4,a4,-986 # 80017f20 <cons>
    80000302:	0a072783          	lw	a5,160(a4)
    80000306:	09872703          	lw	a4,152(a4)
    8000030a:	9f99                	subw	a5,a5,a4
    8000030c:	07f00713          	li	a4,127
    80000310:	fcf766e3          	bltu	a4,a5,800002dc <consoleintr+0x32>
      c = (c == '\r') ? '\n' : c;
    80000314:	47b5                	li	a5,13
    80000316:	0cf48763          	beq	s1,a5,800003e4 <consoleintr+0x13a>
      consputc(c);
    8000031a:	8526                	mv	a0,s1
    8000031c:	f5dff0ef          	jal	80000278 <consputc>
      cons.buf[cons.e++ % INPUT_BUF_SIZE] = c;
    80000320:	00018797          	auipc	a5,0x18
    80000324:	c0078793          	add	a5,a5,-1024 # 80017f20 <cons>
    80000328:	0a07a683          	lw	a3,160(a5)
    8000032c:	0016871b          	addw	a4,a3,1
    80000330:	0007061b          	sext.w	a2,a4
    80000334:	0ae7a023          	sw	a4,160(a5)
    80000338:	07f6f693          	and	a3,a3,127
    8000033c:	97b6                	add	a5,a5,a3
    8000033e:	00978c23          	sb	s1,24(a5)
      if(c == '\n' || c == C('D') || cons.e-cons.r == INPUT_BUF_SIZE){
    80000342:	47a9                	li	a5,10
    80000344:	0cf48563          	beq	s1,a5,8000040e <consoleintr+0x164>
    80000348:	4791                	li	a5,4
    8000034a:	0cf48263          	beq	s1,a5,8000040e <consoleintr+0x164>
    8000034e:	00018797          	auipc	a5,0x18
    80000352:	c6a7a783          	lw	a5,-918(a5) # 80017fb8 <cons+0x98>
    80000356:	9f1d                	subw	a4,a4,a5
    80000358:	08000793          	li	a5,128
    8000035c:	f8f710e3          	bne	a4,a5,800002dc <consoleintr+0x32>
    80000360:	a07d                	j	8000040e <consoleintr+0x164>
    80000362:	e04a                	sd	s2,0(sp)
    while(cons.e != cons.w &&
    80000364:	00018717          	auipc	a4,0x18
    80000368:	bbc70713          	add	a4,a4,-1092 # 80017f20 <cons>
    8000036c:	0a072783          	lw	a5,160(a4)
    80000370:	09c72703          	lw	a4,156(a4)
          cons.buf[(cons.e-1) % INPUT_BUF_SIZE] != '\n'){
    80000374:	00018497          	auipc	s1,0x18
    80000378:	bac48493          	add	s1,s1,-1108 # 80017f20 <cons>
    while(cons.e != cons.w &&
    8000037c:	4929                	li	s2,10
    8000037e:	02f70863          	beq	a4,a5,800003ae <consoleintr+0x104>
          cons.buf[(cons.e-1) % INPUT_BUF_SIZE] != '\n'){
    80000382:	37fd                	addw	a5,a5,-1
    80000384:	07f7f713          	and	a4,a5,127
    80000388:	9726                	add	a4,a4,s1
    while(cons.e != cons.w &&
    8000038a:	01874703          	lbu	a4,24(a4)
    8000038e:	03270263          	beq	a4,s2,800003b2 <consoleintr+0x108>
      cons.e--;
    80000392:	0af4a023          	sw	a5,160(s1)
      consputc(BACKSPACE);
    80000396:	10000513          	li	a0,256
    8000039a:	edfff0ef          	jal	80000278 <consputc>
    while(cons.e != cons.w &&
    8000039e:	0a04a783          	lw	a5,160(s1)
    800003a2:	09c4a703          	lw	a4,156(s1)
    800003a6:	fcf71ee3          	bne	a4,a5,80000382 <consoleintr+0xd8>
    800003aa:	6902                	ld	s2,0(sp)
    800003ac:	bf05                	j	800002dc <consoleintr+0x32>
    800003ae:	6902                	ld	s2,0(sp)
    800003b0:	b735                	j	800002dc <consoleintr+0x32>
    800003b2:	6902                	ld	s2,0(sp)
    800003b4:	b725                	j	800002dc <consoleintr+0x32>
    if(cons.e != cons.w){
    800003b6:	00018717          	auipc	a4,0x18
    800003ba:	b6a70713          	add	a4,a4,-1174 # 80017f20 <cons>
    800003be:	0a072783          	lw	a5,160(a4)
    800003c2:	09c72703          	lw	a4,156(a4)
    800003c6:	f0f70be3          	beq	a4,a5,800002dc <consoleintr+0x32>
      cons.e--;
    800003ca:	37fd                	addw	a5,a5,-1
    800003cc:	00018717          	auipc	a4,0x18
    800003d0:	bef72a23          	sw	a5,-1036(a4) # 80017fc0 <cons+0xa0>
      consputc(BACKSPACE);
    800003d4:	10000513          	li	a0,256
    800003d8:	ea1ff0ef          	jal	80000278 <consputc>
    800003dc:	b701                	j	800002dc <consoleintr+0x32>
    if(c != 0 && cons.e-cons.r < INPUT_BUF_SIZE){
    800003de:	ee048fe3          	beqz	s1,800002dc <consoleintr+0x32>
    800003e2:	bf21                	j	800002fa <consoleintr+0x50>
      consputc(c);
    800003e4:	4529                	li	a0,10
    800003e6:	e93ff0ef          	jal	80000278 <consputc>
      cons.buf[cons.e++ % INPUT_BUF_SIZE] = c;
    800003ea:	00018797          	auipc	a5,0x18
    800003ee:	b3678793          	add	a5,a5,-1226 # 80017f20 <cons>
    800003f2:	0a07a703          	lw	a4,160(a5)
    800003f6:	0017069b          	addw	a3,a4,1
    800003fa:	0006861b          	sext.w	a2,a3
    800003fe:	0ad7a023          	sw	a3,160(a5)
    80000402:	07f77713          	and	a4,a4,127
    80000406:	97ba                	add	a5,a5,a4
    80000408:	4729                	li	a4,10
    8000040a:	00e78c23          	sb	a4,24(a5)
        cons.w = cons.e;
    8000040e:	00018797          	auipc	a5,0x18
    80000412:	bac7a723          	sw	a2,-1106(a5) # 80017fbc <cons+0x9c>
        wakeup(&cons.r);
    80000416:	00018517          	auipc	a0,0x18
    8000041a:	ba250513          	add	a0,a0,-1118 # 80017fb8 <cons+0x98>
    8000041e:	7f1010ef          	jal	8000240e <wakeup>
    80000422:	bd6d                	j	800002dc <consoleintr+0x32>

0000000080000424 <consoleinit>:

void
consoleinit(void)
{
    80000424:	1141                	add	sp,sp,-16
    80000426:	e406                	sd	ra,8(sp)
    80000428:	e022                	sd	s0,0(sp)
    8000042a:	0800                	add	s0,sp,16
  initlock(&cons.lock, "cons");
    8000042c:	0000e597          	auipc	a1,0xe
    80000430:	bf458593          	add	a1,a1,-1036 # 8000e020 <IP_ADDR_ANY+0x4>
    80000434:	00018517          	auipc	a0,0x18
    80000438:	aec50513          	add	a0,a0,-1300 # 80017f20 <cons>
    8000043c:	3af000ef          	jal	80000fea <initlock>

  uartinit();
    80000440:	09d000ef          	jal	80000cdc <uartinit>

  // connect read and write system calls
  // to consoleread and consolewrite.
  devsw[CONSOLE].read = consoleread;
    80000444:	00028797          	auipc	a5,0x28
    80000448:	c4c78793          	add	a5,a5,-948 # 80028090 <devsw>
    8000044c:	00000717          	auipc	a4,0x0
    80000450:	d2270713          	add	a4,a4,-734 # 8000016e <consoleread>
    80000454:	eb98                	sd	a4,16(a5)
  devsw[CONSOLE].write = consolewrite;
    80000456:	00000717          	auipc	a4,0x0
    8000045a:	c7a70713          	add	a4,a4,-902 # 800000d0 <consolewrite>
    8000045e:	ef98                	sd	a4,24(a5)
}
    80000460:	60a2                	ld	ra,8(sp)
    80000462:	6402                	ld	s0,0(sp)
    80000464:	0141                	add	sp,sp,16
    80000466:	8082                	ret

0000000080000468 <putch>:
    consputc(digits[x >> (sizeof(uint64) * 8 - 4)]);
}

static void
putch(int ch, int *cnt)
{
    80000468:	1101                	add	sp,sp,-32
    8000046a:	ec06                	sd	ra,24(sp)
    8000046c:	e822                	sd	s0,16(sp)
    8000046e:	e426                	sd	s1,8(sp)
    80000470:	1000                	add	s0,sp,32
    80000472:	84ae                	mv	s1,a1
  consputc(ch);
    80000474:	e05ff0ef          	jal	80000278 <consputc>
  (*cnt)++;
    80000478:	409c                	lw	a5,0(s1)
    8000047a:	2785                	addw	a5,a5,1
    8000047c:	c09c                	sw	a5,0(s1)
}
    8000047e:	60e2                	ld	ra,24(sp)
    80000480:	6442                	ld	s0,16(sp)
    80000482:	64a2                	ld	s1,8(sp)
    80000484:	6105                	add	sp,sp,32
    80000486:	8082                	ret

0000000080000488 <printint>:
{
    80000488:	7139                	add	sp,sp,-64
    8000048a:	fc06                	sd	ra,56(sp)
    8000048c:	f822                	sd	s0,48(sp)
    8000048e:	0080                	add	s0,sp,64
  if(sign && (sign = (xx < 0)))
    80000490:	c219                	beqz	a2,80000496 <printint+0xe>
    80000492:	08054063          	bltz	a0,80000512 <printint+0x8a>
    x = xx;
    80000496:	4881                	li	a7,0
    80000498:	fc840693          	add	a3,s0,-56
  i = 0;
    8000049c:	4781                	li	a5,0
    buf[i++] = digits[x % base];
    8000049e:	0000f617          	auipc	a2,0xf
    800004a2:	31a60613          	add	a2,a2,794 # 8000f7b8 <digits>
    800004a6:	883e                	mv	a6,a5
    800004a8:	2785                	addw	a5,a5,1
    800004aa:	02b57733          	remu	a4,a0,a1
    800004ae:	9732                	add	a4,a4,a2
    800004b0:	00074703          	lbu	a4,0(a4)
    800004b4:	00e68023          	sb	a4,0(a3)
  } while((x /= base) != 0);
    800004b8:	872a                	mv	a4,a0
    800004ba:	02b55533          	divu	a0,a0,a1
    800004be:	0685                	add	a3,a3,1
    800004c0:	feb773e3          	bgeu	a4,a1,800004a6 <printint+0x1e>
  if(sign)
    800004c4:	00088a63          	beqz	a7,800004d8 <printint+0x50>
    buf[i++] = '-';
    800004c8:	1781                	add	a5,a5,-32
    800004ca:	97a2                	add	a5,a5,s0
    800004cc:	02d00713          	li	a4,45
    800004d0:	fee78423          	sb	a4,-24(a5)
    800004d4:	0028079b          	addw	a5,a6,2
  while(--i >= 0)
    800004d8:	02f05963          	blez	a5,8000050a <printint+0x82>
    800004dc:	f426                	sd	s1,40(sp)
    800004de:	f04a                	sd	s2,32(sp)
    800004e0:	fc840713          	add	a4,s0,-56
    800004e4:	00f704b3          	add	s1,a4,a5
    800004e8:	fff70913          	add	s2,a4,-1
    800004ec:	993e                	add	s2,s2,a5
    800004ee:	37fd                	addw	a5,a5,-1
    800004f0:	1782                	sll	a5,a5,0x20
    800004f2:	9381                	srl	a5,a5,0x20
    800004f4:	40f90933          	sub	s2,s2,a5
    consputc(buf[i]);
    800004f8:	fff4c503          	lbu	a0,-1(s1)
    800004fc:	d7dff0ef          	jal	80000278 <consputc>
  while(--i >= 0)
    80000500:	14fd                	add	s1,s1,-1
    80000502:	ff249be3          	bne	s1,s2,800004f8 <printint+0x70>
    80000506:	74a2                	ld	s1,40(sp)
    80000508:	7902                	ld	s2,32(sp)
}
    8000050a:	70e2                	ld	ra,56(sp)
    8000050c:	7442                	ld	s0,48(sp)
    8000050e:	6121                	add	sp,sp,64
    80000510:	8082                	ret
    x = -xx;
    80000512:	40a00533          	neg	a0,a0
  if(sign && (sign = (xx < 0)))
    80000516:	4885                	li	a7,1
    x = -xx;
    80000518:	b741                	j	80000498 <printint+0x10>

000000008000051a <vcprintf>:

int
vcprintf(const char *fmt, va_list ap)
{
    8000051a:	1101                	add	sp,sp,-32
    8000051c:	ec06                	sd	ra,24(sp)
    8000051e:	e822                	sd	s0,16(sp)
    80000520:	1000                	add	s0,sp,32
    80000522:	862a                	mv	a2,a0
    80000524:	86ae                	mv	a3,a1
  int cnt = 0;
    80000526:	fe042623          	sw	zero,-20(s0)
  vprintfmt((void*)putch, &cnt, fmt, ap);
    8000052a:	fec40593          	add	a1,s0,-20
    8000052e:	00000517          	auipc	a0,0x0
    80000532:	f3a50513          	add	a0,a0,-198 # 80000468 <putch>
    80000536:	3ee000ef          	jal	80000924 <vprintfmt>
  return cnt;
}
    8000053a:	fec42503          	lw	a0,-20(s0)
    8000053e:	60e2                	ld	ra,24(sp)
    80000540:	6442                	ld	s0,16(sp)
    80000542:	6105                	add	sp,sp,32
    80000544:	8082                	ret

0000000080000546 <printf>:

// Print to the console.
int
printf(char *fmt, ...)
{
    80000546:	7131                	add	sp,sp,-192
    80000548:	fc86                	sd	ra,120(sp)
    8000054a:	f8a2                	sd	s0,112(sp)
    8000054c:	e8d2                	sd	s4,80(sp)
    8000054e:	0100                	add	s0,sp,128
    80000550:	8a2a                	mv	s4,a0
    80000552:	e40c                	sd	a1,8(s0)
    80000554:	e810                	sd	a2,16(s0)
    80000556:	ec14                	sd	a3,24(s0)
    80000558:	f018                	sd	a4,32(s0)
    8000055a:	f41c                	sd	a5,40(s0)
    8000055c:	03043823          	sd	a6,48(s0)
    80000560:	03143c23          	sd	a7,56(s0)
  va_list ap;
  int i, cx, c0, c1, c2;
  char *s;

  if(panicking == 0)
    80000564:	00010797          	auipc	a5,0x10
    80000568:	9407a783          	lw	a5,-1728(a5) # 8000fea4 <panicking>
    8000056c:	c3a1                	beqz	a5,800005ac <printf+0x66>
    acquire(&pr.lock);

  va_start(ap, fmt);
    8000056e:	00840793          	add	a5,s0,8
    80000572:	f8f43423          	sd	a5,-120(s0)
  for(i = 0; (cx = fmt[i] & 0xff) != 0; i++){
    80000576:	000a4503          	lbu	a0,0(s4)
    8000057a:	28050763          	beqz	a0,80000808 <printf+0x2c2>
    8000057e:	f4a6                	sd	s1,104(sp)
    80000580:	f0ca                	sd	s2,96(sp)
    80000582:	ecce                	sd	s3,88(sp)
    80000584:	e4d6                	sd	s5,72(sp)
    80000586:	e0da                	sd	s6,64(sp)
    80000588:	f862                	sd	s8,48(sp)
    8000058a:	f466                	sd	s9,40(sp)
    8000058c:	f06a                	sd	s10,32(sp)
    8000058e:	ec6e                	sd	s11,24(sp)
    80000590:	4981                	li	s3,0
    if(cx != '%'){
    80000592:	02500a93          	li	s5,37
    i++;
    c0 = fmt[i+0] & 0xff;
    c1 = c2 = 0;
    if(c0) c1 = fmt[i+1] & 0xff;
    if(c1) c2 = fmt[i+2] & 0xff;
    if(c0 == 'd'){
    80000596:	06400b13          	li	s6,100
      printint(va_arg(ap, int), 10, 1);
    } else if(c0 == 'l' && c1 == 'd'){
    8000059a:	06c00c13          	li	s8,108
      printint(va_arg(ap, uint64), 10, 1);
      i += 1;
    } else if(c0 == 'l' && c1 == 'l' && c2 == 'd'){
      printint(va_arg(ap, uint64), 10, 1);
      i += 2;
    } else if(c0 == 'u'){
    8000059e:	07500c93          	li	s9,117
      printint(va_arg(ap, uint64), 10, 0);
      i += 1;
    } else if(c0 == 'l' && c1 == 'l' && c2 == 'u'){
      printint(va_arg(ap, uint64), 10, 0);
      i += 2;
    } else if(c0 == 'x'){
    800005a2:	07800d13          	li	s10,120
      printint(va_arg(ap, uint64), 16, 0);
      i += 1;
    } else if(c0 == 'l' && c1 == 'l' && c2 == 'x'){
      printint(va_arg(ap, uint64), 16, 0);
      i += 2;
    } else if(c0 == 'p'){
    800005a6:	07000d93          	li	s11,112
    800005aa:	a01d                	j	800005d0 <printf+0x8a>
    acquire(&pr.lock);
    800005ac:	00018517          	auipc	a0,0x18
    800005b0:	a1c50513          	add	a0,a0,-1508 # 80017fc8 <pr>
    800005b4:	2b7000ef          	jal	8000106a <acquire>
    800005b8:	bf5d                	j	8000056e <printf+0x28>
      consputc(cx);
    800005ba:	cbfff0ef          	jal	80000278 <consputc>
      continue;
    800005be:	84ce                	mv	s1,s3
  for(i = 0; (cx = fmt[i] & 0xff) != 0; i++){
    800005c0:	0014899b          	addw	s3,s1,1
    800005c4:	013a07b3          	add	a5,s4,s3
    800005c8:	0007c503          	lbu	a0,0(a5)
    800005cc:	20050b63          	beqz	a0,800007e2 <printf+0x29c>
    if(cx != '%'){
    800005d0:	ff5515e3          	bne	a0,s5,800005ba <printf+0x74>
    i++;
    800005d4:	0019849b          	addw	s1,s3,1
    c0 = fmt[i+0] & 0xff;
    800005d8:	009a07b3          	add	a5,s4,s1
    800005dc:	0007c903          	lbu	s2,0(a5)
    if(c0) c1 = fmt[i+1] & 0xff;
    800005e0:	20090b63          	beqz	s2,800007f6 <printf+0x2b0>
    800005e4:	0017c783          	lbu	a5,1(a5)
    c1 = c2 = 0;
    800005e8:	86be                	mv	a3,a5
    if(c1) c2 = fmt[i+2] & 0xff;
    800005ea:	c789                	beqz	a5,800005f4 <printf+0xae>
    800005ec:	009a0733          	add	a4,s4,s1
    800005f0:	00274683          	lbu	a3,2(a4)
    if(c0 == 'd'){
    800005f4:	03690963          	beq	s2,s6,80000626 <printf+0xe0>
    } else if(c0 == 'l' && c1 == 'd'){
    800005f8:	05890363          	beq	s2,s8,8000063e <printf+0xf8>
    } else if(c0 == 'u'){
    800005fc:	0d990663          	beq	s2,s9,800006c8 <printf+0x182>
    } else if(c0 == 'x'){
    80000600:	11a90d63          	beq	s2,s10,8000071a <printf+0x1d4>
    } else if(c0 == 'p'){
    80000604:	15b90663          	beq	s2,s11,80000750 <printf+0x20a>
      printptr(va_arg(ap, uint64));
    } else if(c0 == 'c'){
    80000608:	06300793          	li	a5,99
    8000060c:	18f90563          	beq	s2,a5,80000796 <printf+0x250>
      consputc(va_arg(ap, uint));
    } else if(c0 == 's'){
    80000610:	07300793          	li	a5,115
    80000614:	18f90b63          	beq	s2,a5,800007aa <printf+0x264>
      if((s = va_arg(ap, char*)) == 0)
        s = "(null)";
      for(; *s; s++)
        consputc(*s);
    } else if(c0 == '%'){
    80000618:	03591b63          	bne	s2,s5,8000064e <printf+0x108>
      consputc('%');
    8000061c:	02500513          	li	a0,37
    80000620:	c59ff0ef          	jal	80000278 <consputc>
    80000624:	bf71                	j	800005c0 <printf+0x7a>
      printint(va_arg(ap, int), 10, 1);
    80000626:	f8843783          	ld	a5,-120(s0)
    8000062a:	00878713          	add	a4,a5,8
    8000062e:	f8e43423          	sd	a4,-120(s0)
    80000632:	4605                	li	a2,1
    80000634:	45a9                	li	a1,10
    80000636:	4388                	lw	a0,0(a5)
    80000638:	e51ff0ef          	jal	80000488 <printint>
    8000063c:	b751                	j	800005c0 <printf+0x7a>
    } else if(c0 == 'l' && c1 == 'd'){
    8000063e:	01678f63          	beq	a5,s6,8000065c <printf+0x116>
    } else if(c0 == 'l' && c1 == 'l' && c2 == 'd'){
    80000642:	03878b63          	beq	a5,s8,80000678 <printf+0x132>
    } else if(c0 == 'l' && c1 == 'u'){
    80000646:	09978e63          	beq	a5,s9,800006e2 <printf+0x19c>
    } else if(c0 == 'l' && c1 == 'x'){
    8000064a:	0fa78563          	beq	a5,s10,80000734 <printf+0x1ee>
    } else if(c0 == 0){
      break;
    } else {
      // Print unknown % sequence to draw attention.
      consputc('%');
    8000064e:	8556                	mv	a0,s5
    80000650:	c29ff0ef          	jal	80000278 <consputc>
      consputc(c0);
    80000654:	854a                	mv	a0,s2
    80000656:	c23ff0ef          	jal	80000278 <consputc>
    8000065a:	b79d                	j	800005c0 <printf+0x7a>
      printint(va_arg(ap, uint64), 10, 1);
    8000065c:	f8843783          	ld	a5,-120(s0)
    80000660:	00878713          	add	a4,a5,8
    80000664:	f8e43423          	sd	a4,-120(s0)
    80000668:	4605                	li	a2,1
    8000066a:	45a9                	li	a1,10
    8000066c:	6388                	ld	a0,0(a5)
    8000066e:	e1bff0ef          	jal	80000488 <printint>
      i += 1;
    80000672:	0029849b          	addw	s1,s3,2
    80000676:	b7a9                	j	800005c0 <printf+0x7a>
    } else if(c0 == 'l' && c1 == 'l' && c2 == 'd'){
    80000678:	06400793          	li	a5,100
    8000067c:	02f68863          	beq	a3,a5,800006ac <printf+0x166>
    } else if(c0 == 'l' && c1 == 'l' && c2 == 'u'){
    80000680:	07500793          	li	a5,117
    80000684:	06f68d63          	beq	a3,a5,800006fe <printf+0x1b8>
    } else if(c0 == 'l' && c1 == 'l' && c2 == 'x'){
    80000688:	07800793          	li	a5,120
    8000068c:	fcf691e3          	bne	a3,a5,8000064e <printf+0x108>
      printint(va_arg(ap, uint64), 16, 0);
    80000690:	f8843783          	ld	a5,-120(s0)
    80000694:	00878713          	add	a4,a5,8
    80000698:	f8e43423          	sd	a4,-120(s0)
    8000069c:	4601                	li	a2,0
    8000069e:	45c1                	li	a1,16
    800006a0:	6388                	ld	a0,0(a5)
    800006a2:	de7ff0ef          	jal	80000488 <printint>
      i += 2;
    800006a6:	0039849b          	addw	s1,s3,3
    800006aa:	bf19                	j	800005c0 <printf+0x7a>
      printint(va_arg(ap, uint64), 10, 1);
    800006ac:	f8843783          	ld	a5,-120(s0)
    800006b0:	00878713          	add	a4,a5,8
    800006b4:	f8e43423          	sd	a4,-120(s0)
    800006b8:	4605                	li	a2,1
    800006ba:	45a9                	li	a1,10
    800006bc:	6388                	ld	a0,0(a5)
    800006be:	dcbff0ef          	jal	80000488 <printint>
      i += 2;
    800006c2:	0039849b          	addw	s1,s3,3
    800006c6:	bded                	j	800005c0 <printf+0x7a>
      printint(va_arg(ap, uint32), 10, 0);
    800006c8:	f8843783          	ld	a5,-120(s0)
    800006cc:	00878713          	add	a4,a5,8
    800006d0:	f8e43423          	sd	a4,-120(s0)
    800006d4:	4601                	li	a2,0
    800006d6:	45a9                	li	a1,10
    800006d8:	0007e503          	lwu	a0,0(a5)
    800006dc:	dadff0ef          	jal	80000488 <printint>
    800006e0:	b5c5                	j	800005c0 <printf+0x7a>
      printint(va_arg(ap, uint64), 10, 0);
    800006e2:	f8843783          	ld	a5,-120(s0)
    800006e6:	00878713          	add	a4,a5,8
    800006ea:	f8e43423          	sd	a4,-120(s0)
    800006ee:	4601                	li	a2,0
    800006f0:	45a9                	li	a1,10
    800006f2:	6388                	ld	a0,0(a5)
    800006f4:	d95ff0ef          	jal	80000488 <printint>
      i += 1;
    800006f8:	0029849b          	addw	s1,s3,2
    800006fc:	b5d1                	j	800005c0 <printf+0x7a>
      printint(va_arg(ap, uint64), 10, 0);
    800006fe:	f8843783          	ld	a5,-120(s0)
    80000702:	00878713          	add	a4,a5,8
    80000706:	f8e43423          	sd	a4,-120(s0)
    8000070a:	4601                	li	a2,0
    8000070c:	45a9                	li	a1,10
    8000070e:	6388                	ld	a0,0(a5)
    80000710:	d79ff0ef          	jal	80000488 <printint>
      i += 2;
    80000714:	0039849b          	addw	s1,s3,3
    80000718:	b565                	j	800005c0 <printf+0x7a>
      printint(va_arg(ap, uint32), 16, 0);
    8000071a:	f8843783          	ld	a5,-120(s0)
    8000071e:	00878713          	add	a4,a5,8
    80000722:	f8e43423          	sd	a4,-120(s0)
    80000726:	4601                	li	a2,0
    80000728:	45c1                	li	a1,16
    8000072a:	0007e503          	lwu	a0,0(a5)
    8000072e:	d5bff0ef          	jal	80000488 <printint>
    80000732:	b579                	j	800005c0 <printf+0x7a>
      printint(va_arg(ap, uint64), 16, 0);
    80000734:	f8843783          	ld	a5,-120(s0)
    80000738:	00878713          	add	a4,a5,8
    8000073c:	f8e43423          	sd	a4,-120(s0)
    80000740:	4601                	li	a2,0
    80000742:	45c1                	li	a1,16
    80000744:	6388                	ld	a0,0(a5)
    80000746:	d43ff0ef          	jal	80000488 <printint>
      i += 1;
    8000074a:	0029849b          	addw	s1,s3,2
    8000074e:	bd8d                	j	800005c0 <printf+0x7a>
    80000750:	fc5e                	sd	s7,56(sp)
      printptr(va_arg(ap, uint64));
    80000752:	f8843783          	ld	a5,-120(s0)
    80000756:	00878713          	add	a4,a5,8
    8000075a:	f8e43423          	sd	a4,-120(s0)
    8000075e:	0007b983          	ld	s3,0(a5)
  consputc('0');
    80000762:	03000513          	li	a0,48
    80000766:	b13ff0ef          	jal	80000278 <consputc>
  consputc('x');
    8000076a:	07800513          	li	a0,120
    8000076e:	b0bff0ef          	jal	80000278 <consputc>
    80000772:	4941                	li	s2,16
    consputc(digits[x >> (sizeof(uint64) * 8 - 4)]);
    80000774:	0000fb97          	auipc	s7,0xf
    80000778:	044b8b93          	add	s7,s7,68 # 8000f7b8 <digits>
    8000077c:	03c9d793          	srl	a5,s3,0x3c
    80000780:	97de                	add	a5,a5,s7
    80000782:	0007c503          	lbu	a0,0(a5)
    80000786:	af3ff0ef          	jal	80000278 <consputc>
  for (i = 0; i < (sizeof(uint64) * 2); i++, x <<= 4)
    8000078a:	0992                	sll	s3,s3,0x4
    8000078c:	397d                	addw	s2,s2,-1
    8000078e:	fe0917e3          	bnez	s2,8000077c <printf+0x236>
    80000792:	7be2                	ld	s7,56(sp)
    80000794:	b535                	j	800005c0 <printf+0x7a>
      consputc(va_arg(ap, uint));
    80000796:	f8843783          	ld	a5,-120(s0)
    8000079a:	00878713          	add	a4,a5,8
    8000079e:	f8e43423          	sd	a4,-120(s0)
    800007a2:	4388                	lw	a0,0(a5)
    800007a4:	ad5ff0ef          	jal	80000278 <consputc>
    800007a8:	bd21                	j	800005c0 <printf+0x7a>
      if((s = va_arg(ap, char*)) == 0)
    800007aa:	f8843783          	ld	a5,-120(s0)
    800007ae:	00878713          	add	a4,a5,8
    800007b2:	f8e43423          	sd	a4,-120(s0)
    800007b6:	0007b903          	ld	s2,0(a5)
    800007ba:	00090d63          	beqz	s2,800007d4 <printf+0x28e>
      for(; *s; s++)
    800007be:	00094503          	lbu	a0,0(s2)
    800007c2:	de050fe3          	beqz	a0,800005c0 <printf+0x7a>
        consputc(*s);
    800007c6:	ab3ff0ef          	jal	80000278 <consputc>
      for(; *s; s++)
    800007ca:	0905                	add	s2,s2,1
    800007cc:	00094503          	lbu	a0,0(s2)
    800007d0:	f97d                	bnez	a0,800007c6 <printf+0x280>
    800007d2:	b3fd                	j	800005c0 <printf+0x7a>
        s = "(null)";
    800007d4:	0000e917          	auipc	s2,0xe
    800007d8:	85490913          	add	s2,s2,-1964 # 8000e028 <IP_ADDR_ANY+0xc>
      for(; *s; s++)
    800007dc:	02800513          	li	a0,40
    800007e0:	b7dd                	j	800007c6 <printf+0x280>
    800007e2:	74a6                	ld	s1,104(sp)
    800007e4:	7906                	ld	s2,96(sp)
    800007e6:	69e6                	ld	s3,88(sp)
    800007e8:	6aa6                	ld	s5,72(sp)
    800007ea:	6b06                	ld	s6,64(sp)
    800007ec:	7c42                	ld	s8,48(sp)
    800007ee:	7ca2                	ld	s9,40(sp)
    800007f0:	7d02                	ld	s10,32(sp)
    800007f2:	6de2                	ld	s11,24(sp)
    800007f4:	a811                	j	80000808 <printf+0x2c2>
    800007f6:	74a6                	ld	s1,104(sp)
    800007f8:	7906                	ld	s2,96(sp)
    800007fa:	69e6                	ld	s3,88(sp)
    800007fc:	6aa6                	ld	s5,72(sp)
    800007fe:	6b06                	ld	s6,64(sp)
    80000800:	7c42                	ld	s8,48(sp)
    80000802:	7ca2                	ld	s9,40(sp)
    80000804:	7d02                	ld	s10,32(sp)
    80000806:	6de2                	ld	s11,24(sp)
    }

  }
  va_end(ap);

  if(panicking == 0)
    80000808:	0000f797          	auipc	a5,0xf
    8000080c:	69c7a783          	lw	a5,1692(a5) # 8000fea4 <panicking>
    80000810:	c799                	beqz	a5,8000081e <printf+0x2d8>
    release(&pr.lock);

  return 0;
}
    80000812:	4501                	li	a0,0
    80000814:	70e6                	ld	ra,120(sp)
    80000816:	7446                	ld	s0,112(sp)
    80000818:	6a46                	ld	s4,80(sp)
    8000081a:	6129                	add	sp,sp,192
    8000081c:	8082                	ret
    release(&pr.lock);
    8000081e:	00017517          	auipc	a0,0x17
    80000822:	7aa50513          	add	a0,a0,1962 # 80017fc8 <pr>
    80000826:	0dd000ef          	jal	80001102 <release>
  return 0;
    8000082a:	b7e5                	j	80000812 <printf+0x2cc>

000000008000082c <panic>:

void
panic(char *s)
{
    8000082c:	1101                	add	sp,sp,-32
    8000082e:	ec06                	sd	ra,24(sp)
    80000830:	e822                	sd	s0,16(sp)
    80000832:	e426                	sd	s1,8(sp)
    80000834:	e04a                	sd	s2,0(sp)
    80000836:	1000                	add	s0,sp,32
    80000838:	84aa                	mv	s1,a0
  panicking = 1;
    8000083a:	4905                	li	s2,1
    8000083c:	0000f797          	auipc	a5,0xf
    80000840:	6727a423          	sw	s2,1640(a5) # 8000fea4 <panicking>
  printf("panic: ");
    80000844:	0000d517          	auipc	a0,0xd
    80000848:	7f450513          	add	a0,a0,2036 # 8000e038 <IP_ADDR_ANY+0x1c>
    8000084c:	cfbff0ef          	jal	80000546 <printf>
  printf("%s\n", s);
    80000850:	85a6                	mv	a1,s1
    80000852:	0000d517          	auipc	a0,0xd
    80000856:	7ee50513          	add	a0,a0,2030 # 8000e040 <IP_ADDR_ANY+0x24>
    8000085a:	cedff0ef          	jal	80000546 <printf>
  panicked = 1; // freeze uart output from other CPUs
    8000085e:	0000f797          	auipc	a5,0xf
    80000862:	6527a123          	sw	s2,1602(a5) # 8000fea0 <panicked>
  for(;;)
    80000866:	a001                	j	80000866 <panic+0x3a>

0000000080000868 <printfinit>:
    ;
}

void
printfinit(void)
{
    80000868:	1141                	add	sp,sp,-16
    8000086a:	e406                	sd	ra,8(sp)
    8000086c:	e022                	sd	s0,0(sp)
    8000086e:	0800                	add	s0,sp,16
  initlock(&pr.lock, "pr");
    80000870:	0000d597          	auipc	a1,0xd
    80000874:	7d858593          	add	a1,a1,2008 # 8000e048 <IP_ADDR_ANY+0x2c>
    80000878:	00017517          	auipc	a0,0x17
    8000087c:	75050513          	add	a0,a0,1872 # 80017fc8 <pr>
    80000880:	76a000ef          	jal	80000fea <initlock>
}
    80000884:	60a2                	ld	ra,8(sp)
    80000886:	6402                	ld	s0,0(sp)
    80000888:	0141                	add	sp,sp,16
    8000088a:	8082                	ret

000000008000088c <printnum>:
#endif

static void
printnum(void (*putch)(int, void*), void *putdat,
   unsigned long long num, unsigned base, int width, int padc)
{
    8000088c:	7139                	add	sp,sp,-64
    8000088e:	fc06                	sd	ra,56(sp)
    80000890:	f822                	sd	s0,48(sp)
    80000892:	f04a                	sd	s2,32(sp)
    80000894:	ec4e                	sd	s3,24(sp)
    80000896:	e852                	sd	s4,16(sp)
    80000898:	e456                	sd	s5,8(sp)
    8000089a:	e05a                	sd	s6,0(sp)
    8000089c:	0080                	add	s0,sp,64
    8000089e:	892a                	mv	s2,a0
    800008a0:	89ae                	mv	s3,a1
    800008a2:	8ab2                	mv	s5,a2
    800008a4:	8a3e                	mv	s4,a5
  if (num >= base) {
    800008a6:	02069b13          	sll	s6,a3,0x20
    800008aa:	020b5b13          	srl	s6,s6,0x20
    800008ae:	05667363          	bgeu	a2,s6,800008f4 <printnum+0x68>
    800008b2:	f426                	sd	s1,40(sp)
    printnum(putch, putdat, num / base, base, width - 1, padc);
  } else {
    while (--width > 0)
    800008b4:	fff7049b          	addw	s1,a4,-1
    800008b8:	02905c63          	blez	s1,800008f0 <printnum+0x64>
      putch(padc, putdat);
    800008bc:	85ce                	mv	a1,s3
    800008be:	8552                	mv	a0,s4
    800008c0:	9902                	jalr	s2
    while (--width > 0)
    800008c2:	34fd                	addw	s1,s1,-1
    800008c4:	fce5                	bnez	s1,800008bc <printnum+0x30>
    800008c6:	74a2                	ld	s1,40(sp)
  }
  putch("0123456789abcdef"[num % base], putdat);
    800008c8:	036afab3          	remu	s5,s5,s6
    800008cc:	0000d797          	auipc	a5,0xd
    800008d0:	78478793          	add	a5,a5,1924 # 8000e050 <IP_ADDR_ANY+0x34>
    800008d4:	97d6                	add	a5,a5,s5
    800008d6:	85ce                	mv	a1,s3
    800008d8:	0007c503          	lbu	a0,0(a5)
    800008dc:	9902                	jalr	s2
}
    800008de:	70e2                	ld	ra,56(sp)
    800008e0:	7442                	ld	s0,48(sp)
    800008e2:	7902                	ld	s2,32(sp)
    800008e4:	69e2                	ld	s3,24(sp)
    800008e6:	6a42                	ld	s4,16(sp)
    800008e8:	6aa2                	ld	s5,8(sp)
    800008ea:	6b02                	ld	s6,0(sp)
    800008ec:	6121                	add	sp,sp,64
    800008ee:	8082                	ret
    800008f0:	74a2                	ld	s1,40(sp)
    800008f2:	bfd9                	j	800008c8 <printnum+0x3c>
    printnum(putch, putdat, num / base, base, width - 1, padc);
    800008f4:	377d                	addw	a4,a4,-1
    800008f6:	03665633          	divu	a2,a2,s6
    800008fa:	f93ff0ef          	jal	8000088c <printnum>
    800008fe:	b7e9                	j	800008c8 <printnum+0x3c>

0000000080000900 <sprintputch>:
  int cnt;
};

static void
sprintputch(int ch, struct sprintbuf *b)
{
    80000900:	1141                	add	sp,sp,-16
    80000902:	e422                	sd	s0,8(sp)
    80000904:	0800                	add	s0,sp,16
  b->cnt++;
    80000906:	499c                	lw	a5,16(a1)
    80000908:	2785                	addw	a5,a5,1
    8000090a:	c99c                	sw	a5,16(a1)
  if (b->buf < b->ebuf)
    8000090c:	619c                	ld	a5,0(a1)
    8000090e:	6598                	ld	a4,8(a1)
    80000910:	00e7f763          	bgeu	a5,a4,8000091e <sprintputch+0x1e>
    *b->buf++ = ch;
    80000914:	00178713          	add	a4,a5,1
    80000918:	e198                	sd	a4,0(a1)
    8000091a:	00a78023          	sb	a0,0(a5)
}
    8000091e:	6422                	ld	s0,8(sp)
    80000920:	0141                	add	sp,sp,16
    80000922:	8082                	ret

0000000080000924 <vprintfmt>:
{
    80000924:	7119                	add	sp,sp,-128
    80000926:	fc86                	sd	ra,120(sp)
    80000928:	f8a2                	sd	s0,112(sp)
    8000092a:	f4a6                	sd	s1,104(sp)
    8000092c:	f0ca                	sd	s2,96(sp)
    8000092e:	ecce                	sd	s3,88(sp)
    80000930:	e8d2                	sd	s4,80(sp)
    80000932:	e4d6                	sd	s5,72(sp)
    80000934:	e0da                	sd	s6,64(sp)
    80000936:	fc5e                	sd	s7,56(sp)
    80000938:	f862                	sd	s8,48(sp)
    8000093a:	f466                	sd	s9,40(sp)
    8000093c:	f06a                	sd	s10,32(sp)
    8000093e:	ec6e                	sd	s11,24(sp)
    80000940:	0100                	add	s0,sp,128
    80000942:	89aa                	mv	s3,a0
    80000944:	892e                	mv	s2,a1
    80000946:	8ab2                	mv	s5,a2
    80000948:	8c36                	mv	s8,a3
    while ((ch = *(unsigned char *) fmt++) != '%') {
    8000094a:	02500a13          	li	s4,37
    switch (ch = *(unsigned char *) fmt++) {
    8000094e:	05700d13          	li	s10,87
    80000952:	0000fc97          	auipc	s9,0xf
    80000956:	e7ac8c93          	add	s9,s9,-390 # 8000f7cc <digits+0x14>
    while ((ch = *(unsigned char *) fmt++) != '%') {
    8000095a:	001a8493          	add	s1,s5,1
    8000095e:	000ac503          	lbu	a0,0(s5)
    80000962:	01450b63          	beq	a0,s4,80000978 <vprintfmt+0x54>
      if (ch == '\0')
    80000966:	2a050d63          	beqz	a0,80000c20 <vprintfmt+0x2fc>
      putch(ch, putdat);
    8000096a:	85ca                	mv	a1,s2
    8000096c:	9982                	jalr	s3
    while ((ch = *(unsigned char *) fmt++) != '%') {
    8000096e:	0485                	add	s1,s1,1
    80000970:	fff4c503          	lbu	a0,-1(s1)
    80000974:	ff4519e3          	bne	a0,s4,80000966 <vprintfmt+0x42>
    padc = ' ';
    80000978:	02000793          	li	a5,32
    8000097c:	f8f43423          	sd	a5,-120(s0)
    altflag = 0;
    80000980:	4d81                	li	s11,0
    precision = -1;
    80000982:	5bfd                	li	s7,-1
    width = -1;
    80000984:	5b7d                	li	s6,-1
    lflag = 0;
    80000986:	4601                	li	a2,0
    switch (ch = *(unsigned char *) fmt++) {
    80000988:	00148a93          	add	s5,s1,1
    8000098c:	0004c703          	lbu	a4,0(s1)
    80000990:	fdd7079b          	addw	a5,a4,-35
    80000994:	0ff7f693          	zext.b	a3,a5
    80000998:	22dd6763          	bltu	s10,a3,80000bc6 <vprintfmt+0x2a2>
    8000099c:	00269793          	sll	a5,a3,0x2
    800009a0:	97e6                	add	a5,a5,s9
    800009a2:	439c                	lw	a5,0(a5)
    800009a4:	97e6                	add	a5,a5,s9
    800009a6:	8782                	jr	a5
      for (fmt--; fmt[-1] != '%'; fmt--)
    800009a8:	8aa6                	mv	s5,s1
    800009aa:	bf45                	j	8000095a <vprintfmt+0x36>
    switch (ch = *(unsigned char *) fmt++) {
    800009ac:	f8e43423          	sd	a4,-120(s0)
    800009b0:	84d6                	mv	s1,s5
    800009b2:	bfd9                	j	80000988 <vprintfmt+0x64>
        precision = precision * 10 + ch - '0';
    800009b4:	fd070b9b          	addw	s7,a4,-48
        ch = *fmt;
    800009b8:	0014c783          	lbu	a5,1(s1)
    800009bc:	0007871b          	sext.w	a4,a5
        if (ch < '0' || ch > '9')
    800009c0:	fd07879b          	addw	a5,a5,-48
    800009c4:	46a5                	li	a3,9
    800009c6:	04f6eb63          	bltu	a3,a5,80000a1c <vprintfmt+0xf8>
      for (precision = 0; ; ++fmt) {
    800009ca:	0a85                	add	s5,s5,1
        precision = precision * 10 + ch - '0';
    800009cc:	002b979b          	sllw	a5,s7,0x2
    800009d0:	017787bb          	addw	a5,a5,s7
    800009d4:	0017979b          	sllw	a5,a5,0x1
    800009d8:	9fb9                	addw	a5,a5,a4
    800009da:	fd078b9b          	addw	s7,a5,-48
        ch = *fmt;
    800009de:	000ac783          	lbu	a5,0(s5)
    800009e2:	0007871b          	sext.w	a4,a5
        if (ch < '0' || ch > '9')
    800009e6:	fd07879b          	addw	a5,a5,-48
    800009ea:	fef6f0e3          	bgeu	a3,a5,800009ca <vprintfmt+0xa6>
    800009ee:	84d6                	mv	s1,s5
    800009f0:	a029                	j	800009fa <vprintfmt+0xd6>
      precision = va_arg(ap, int);
    800009f2:	000c2b83          	lw	s7,0(s8)
    800009f6:	0c21                	add	s8,s8,8
    switch (ch = *(unsigned char *) fmt++) {
    800009f8:	84d6                	mv	s1,s5
      if (width < 0)
    800009fa:	f80b57e3          	bgez	s6,80000988 <vprintfmt+0x64>
        width = precision, precision = -1;
    800009fe:	8b5e                	mv	s6,s7
    80000a00:	5bfd                	li	s7,-1
    80000a02:	b759                	j	80000988 <vprintfmt+0x64>
      if (width < 0)
    80000a04:	fffb4793          	not	a5,s6
    80000a08:	97fd                	sra	a5,a5,0x3f
    80000a0a:	00fb77b3          	and	a5,s6,a5
    80000a0e:	00078b1b          	sext.w	s6,a5
    switch (ch = *(unsigned char *) fmt++) {
    80000a12:	84d6                	mv	s1,s5
      goto reswitch;
    80000a14:	bf95                	j	80000988 <vprintfmt+0x64>
    switch (ch = *(unsigned char *) fmt++) {
    80000a16:	84d6                	mv	s1,s5
      altflag = 1;
    80000a18:	4d85                	li	s11,1
      goto reswitch;
    80000a1a:	b7bd                	j	80000988 <vprintfmt+0x64>
    switch (ch = *(unsigned char *) fmt++) {
    80000a1c:	84d6                	mv	s1,s5
    80000a1e:	bff1                	j	800009fa <vprintfmt+0xd6>
      lflag++;
    80000a20:	2605                	addw	a2,a2,1
    switch (ch = *(unsigned char *) fmt++) {
    80000a22:	84d6                	mv	s1,s5
      goto reswitch;
    80000a24:	b795                	j	80000988 <vprintfmt+0x64>
      putch(va_arg(ap, int), putdat);
    80000a26:	008c0493          	add	s1,s8,8
    80000a2a:	85ca                	mv	a1,s2
    80000a2c:	000c2503          	lw	a0,0(s8)
    80000a30:	9982                	jalr	s3
    80000a32:	8c26                	mv	s8,s1
      break;
    80000a34:	b71d                	j	8000095a <vprintfmt+0x36>
      if ((p = va_arg(ap, char *)) == NULL)
    80000a36:	008c0793          	add	a5,s8,8
    80000a3a:	f8f43023          	sd	a5,-128(s0)
    80000a3e:	000c3c03          	ld	s8,0(s8)
    80000a42:	1c0c0063          	beqz	s8,80000c02 <vprintfmt+0x2de>
      if (width > 0 && padc != '-')
    80000a46:	1b605363          	blez	s6,80000bec <vprintfmt+0x2c8>
    80000a4a:	02d00793          	li	a5,45
    80000a4e:	f8843703          	ld	a4,-120(s0)
    80000a52:	00f71c63          	bne	a4,a5,80000a6a <vprintfmt+0x146>
      for (; (ch = *p++) != '\0' && (precision < 0 || --precision >= 0); width--)
    80000a56:	001c0493          	add	s1,s8,1
    80000a5a:	000c4783          	lbu	a5,0(s8)
    80000a5e:	0007851b          	sext.w	a0,a5
    80000a62:	c7bd                	beqz	a5,80000ad0 <vprintfmt+0x1ac>
        if (altflag && (ch < ' ' || ch > '~'))
    80000a64:	05e00c13          	li	s8,94
    80000a68:	a099                	j	80000aae <vprintfmt+0x18a>
        for (width -= strlen(p); width > 0; width--)
    80000a6a:	8562                	mv	a0,s8
    80000a6c:	043000ef          	jal	800012ae <strlen>
    80000a70:	40ab0b3b          	subw	s6,s6,a0
    80000a74:	17605c63          	blez	s6,80000bec <vprintfmt+0x2c8>
          putch(padc, putdat);
    80000a78:	f8842483          	lw	s1,-120(s0)
    80000a7c:	85ca                	mv	a1,s2
    80000a7e:	8526                	mv	a0,s1
    80000a80:	9982                	jalr	s3
        for (width -= strlen(p); width > 0; width--)
    80000a82:	3b7d                	addw	s6,s6,-1
    80000a84:	fe0b1ce3          	bnez	s6,80000a7c <vprintfmt+0x158>
      for (; (ch = *p++) != '\0' && (precision < 0 || --precision >= 0); width--)
    80000a88:	001c0493          	add	s1,s8,1
    80000a8c:	000c4783          	lbu	a5,0(s8)
    80000a90:	0007851b          	sext.w	a0,a5
    80000a94:	fbe1                	bnez	a5,80000a64 <vprintfmt+0x140>
      if ((p = va_arg(ap, char *)) == NULL)
    80000a96:	f8043c03          	ld	s8,-128(s0)
    80000a9a:	b5c1                	j	8000095a <vprintfmt+0x36>
          putch(ch, putdat);
    80000a9c:	85ca                	mv	a1,s2
    80000a9e:	9982                	jalr	s3
      for (; (ch = *p++) != '\0' && (precision < 0 || --precision >= 0); width--)
    80000aa0:	3b7d                	addw	s6,s6,-1
    80000aa2:	0485                	add	s1,s1,1
    80000aa4:	fff4c783          	lbu	a5,-1(s1)
    80000aa8:	0007851b          	sext.w	a0,a5
    80000aac:	c385                	beqz	a5,80000acc <vprintfmt+0x1a8>
    80000aae:	000bc563          	bltz	s7,80000ab8 <vprintfmt+0x194>
    80000ab2:	3bfd                	addw	s7,s7,-1
    80000ab4:	000bcc63          	bltz	s7,80000acc <vprintfmt+0x1a8>
        if (altflag && (ch < ' ' || ch > '~'))
    80000ab8:	fe0d82e3          	beqz	s11,80000a9c <vprintfmt+0x178>
    80000abc:	3781                	addw	a5,a5,-32
    80000abe:	fcfc7fe3          	bgeu	s8,a5,80000a9c <vprintfmt+0x178>
          putch('?', putdat);
    80000ac2:	85ca                	mv	a1,s2
    80000ac4:	03f00513          	li	a0,63
    80000ac8:	9982                	jalr	s3
    80000aca:	bfd9                	j	80000aa0 <vprintfmt+0x17c>
      for (; width > 0; width--)
    80000acc:	01605c63          	blez	s6,80000ae4 <vprintfmt+0x1c0>
        putch(' ', putdat);
    80000ad0:	85ca                	mv	a1,s2
    80000ad2:	02000513          	li	a0,32
    80000ad6:	9982                	jalr	s3
      for (; width > 0; width--)
    80000ad8:	3b7d                	addw	s6,s6,-1
    80000ada:	fe0b1be3          	bnez	s6,80000ad0 <vprintfmt+0x1ac>
      if ((p = va_arg(ap, char *)) == NULL)
    80000ade:	f8043c03          	ld	s8,-128(s0)
    80000ae2:	bda5                	j	8000095a <vprintfmt+0x36>
    80000ae4:	f8043c03          	ld	s8,-128(s0)
    80000ae8:	bd8d                	j	8000095a <vprintfmt+0x36>
  if (lflag >= 2)
    80000aea:	4785                	li	a5,1
    80000aec:	00c7c763          	blt	a5,a2,80000afa <vprintfmt+0x1d6>
  else if (lflag)
    80000af0:	ce09                	beqz	a2,80000b0a <vprintfmt+0x1e6>
    return va_arg(*ap, long);
    80000af2:	000c3483          	ld	s1,0(s8)
    80000af6:	0c21                	add	s8,s8,8
    80000af8:	a021                	j	80000b00 <vprintfmt+0x1dc>
    return va_arg(*ap, long long);
    80000afa:	000c3483          	ld	s1,0(s8)
    80000afe:	0c21                	add	s8,s8,8
      if ((long long) num < 0) {
    80000b00:	0004c963          	bltz	s1,80000b12 <vprintfmt+0x1ee>
      num = getint(&ap, lflag);
    80000b04:	8626                	mv	a2,s1
      base = 10;
    80000b06:	46a9                	li	a3,10
    80000b08:	a8bd                	j	80000b86 <vprintfmt+0x262>
    return va_arg(*ap, int);
    80000b0a:	000c2483          	lw	s1,0(s8)
    80000b0e:	0c21                	add	s8,s8,8
    80000b10:	bfc5                	j	80000b00 <vprintfmt+0x1dc>
        putch('-', putdat);
    80000b12:	85ca                	mv	a1,s2
    80000b14:	02d00513          	li	a0,45
    80000b18:	9982                	jalr	s3
        num = -(long long) num;
    80000b1a:	40900633          	neg	a2,s1
      base = 10;
    80000b1e:	46a9                	li	a3,10
    80000b20:	a09d                	j	80000b86 <vprintfmt+0x262>
  if (lflag >= 2)
    80000b22:	4785                	li	a5,1
    80000b24:	00c7c863          	blt	a5,a2,80000b34 <vprintfmt+0x210>
  else if (lflag)
    80000b28:	ca19                	beqz	a2,80000b3e <vprintfmt+0x21a>
    return va_arg(*ap, unsigned long);
    80000b2a:	000c3603          	ld	a2,0(s8)
    80000b2e:	0c21                	add	s8,s8,8
      base = 10;
    80000b30:	46a9                	li	a3,10
    return va_arg(*ap, unsigned long);
    80000b32:	a891                	j	80000b86 <vprintfmt+0x262>
    return va_arg(*ap, unsigned long long);
    80000b34:	000c3603          	ld	a2,0(s8)
    80000b38:	0c21                	add	s8,s8,8
      base = 10;
    80000b3a:	46a9                	li	a3,10
    return va_arg(*ap, unsigned long long);
    80000b3c:	a0a9                	j	80000b86 <vprintfmt+0x262>
    return va_arg(*ap, unsigned int);
    80000b3e:	000c6603          	lwu	a2,0(s8)
    80000b42:	0c21                	add	s8,s8,8
      base = 10;
    80000b44:	46a9                	li	a3,10
    return va_arg(*ap, unsigned int);
    80000b46:	a081                	j	80000b86 <vprintfmt+0x262>
  if (lflag >= 2)
    80000b48:	4785                	li	a5,1
    80000b4a:	00c7c863          	blt	a5,a2,80000b5a <vprintfmt+0x236>
  else if (lflag)
    80000b4e:	ca19                	beqz	a2,80000b64 <vprintfmt+0x240>
    return va_arg(*ap, unsigned long);
    80000b50:	000c3603          	ld	a2,0(s8)
    80000b54:	0c21                	add	s8,s8,8
      base = 8;
    80000b56:	46a1                	li	a3,8
    return va_arg(*ap, unsigned long);
    80000b58:	a03d                	j	80000b86 <vprintfmt+0x262>
    return va_arg(*ap, unsigned long long);
    80000b5a:	000c3603          	ld	a2,0(s8)
    80000b5e:	0c21                	add	s8,s8,8
      base = 8;
    80000b60:	46a1                	li	a3,8
    return va_arg(*ap, unsigned long long);
    80000b62:	a015                	j	80000b86 <vprintfmt+0x262>
    return va_arg(*ap, unsigned int);
    80000b64:	000c6603          	lwu	a2,0(s8)
    80000b68:	0c21                	add	s8,s8,8
      base = 8;
    80000b6a:	46a1                	li	a3,8
    return va_arg(*ap, unsigned int);
    80000b6c:	a829                	j	80000b86 <vprintfmt+0x262>
      putch('0', putdat);
    80000b6e:	85ca                	mv	a1,s2
    80000b70:	03000513          	li	a0,48
    80000b74:	9982                	jalr	s3
      putch('x', putdat);
    80000b76:	85ca                	mv	a1,s2
    80000b78:	07800513          	li	a0,120
    80000b7c:	9982                	jalr	s3
      num = (unsigned long long)(uintptr_t) va_arg(ap, void *);
    80000b7e:	000c3603          	ld	a2,0(s8)
    80000b82:	0c21                	add	s8,s8,8
      base = 16;
    80000b84:	46c1                	li	a3,16
      printnum(putch, putdat, num, base, width, padc);
    80000b86:	f8842783          	lw	a5,-120(s0)
    80000b8a:	875a                	mv	a4,s6
    80000b8c:	85ca                	mv	a1,s2
    80000b8e:	854e                	mv	a0,s3
    80000b90:	cfdff0ef          	jal	8000088c <printnum>
      break;
    80000b94:	b3d9                	j	8000095a <vprintfmt+0x36>
  if (lflag >= 2)
    80000b96:	4785                	li	a5,1
    80000b98:	00c7c863          	blt	a5,a2,80000ba8 <vprintfmt+0x284>
  else if (lflag)
    80000b9c:	ca19                	beqz	a2,80000bb2 <vprintfmt+0x28e>
    return va_arg(*ap, unsigned long);
    80000b9e:	000c3603          	ld	a2,0(s8)
    80000ba2:	0c21                	add	s8,s8,8
      base = 16;
    80000ba4:	46c1                	li	a3,16
    return va_arg(*ap, unsigned long);
    80000ba6:	b7c5                	j	80000b86 <vprintfmt+0x262>
    return va_arg(*ap, unsigned long long);
    80000ba8:	000c3603          	ld	a2,0(s8)
    80000bac:	0c21                	add	s8,s8,8
      base = 16;
    80000bae:	46c1                	li	a3,16
    return va_arg(*ap, unsigned long long);
    80000bb0:	bfd9                	j	80000b86 <vprintfmt+0x262>
    return va_arg(*ap, unsigned int);
    80000bb2:	000c6603          	lwu	a2,0(s8)
    80000bb6:	0c21                	add	s8,s8,8
      base = 16;
    80000bb8:	46c1                	li	a3,16
    return va_arg(*ap, unsigned int);
    80000bba:	b7f1                	j	80000b86 <vprintfmt+0x262>
      putch(ch, putdat);
    80000bbc:	85ca                	mv	a1,s2
    80000bbe:	02500513          	li	a0,37
    80000bc2:	9982                	jalr	s3
      break;
    80000bc4:	bb59                	j	8000095a <vprintfmt+0x36>
      putch('%', putdat);
    80000bc6:	85ca                	mv	a1,s2
    80000bc8:	02500513          	li	a0,37
    80000bcc:	9982                	jalr	s3
      for (fmt--; fmt[-1] != '%'; fmt--)
    80000bce:	fff4c703          	lbu	a4,-1(s1)
    80000bd2:	02500793          	li	a5,37
    80000bd6:	dcf709e3          	beq	a4,a5,800009a8 <vprintfmt+0x84>
    80000bda:	8aa6                	mv	s5,s1
    80000bdc:	02500713          	li	a4,37
    80000be0:	1afd                	add	s5,s5,-1
    80000be2:	fffac783          	lbu	a5,-1(s5)
    80000be6:	fee79de3          	bne	a5,a4,80000be0 <vprintfmt+0x2bc>
    80000bea:	bb85                	j	8000095a <vprintfmt+0x36>
      for (; (ch = *p++) != '\0' && (precision < 0 || --precision >= 0); width--)
    80000bec:	001c0493          	add	s1,s8,1
    80000bf0:	000c4783          	lbu	a5,0(s8)
    80000bf4:	0007851b          	sext.w	a0,a5
    80000bf8:	e60796e3          	bnez	a5,80000a64 <vprintfmt+0x140>
      if ((p = va_arg(ap, char *)) == NULL)
    80000bfc:	f8043c03          	ld	s8,-128(s0)
    80000c00:	bba9                	j	8000095a <vprintfmt+0x36>
        p = "(null)";
    80000c02:	0000dc17          	auipc	s8,0xd
    80000c06:	426c0c13          	add	s8,s8,1062 # 8000e028 <IP_ADDR_ANY+0xc>
      if (width > 0 && padc != '-')
    80000c0a:	e56040e3          	bgtz	s6,80000a4a <vprintfmt+0x126>
      for (; (ch = *p++) != '\0' && (precision < 0 || --precision >= 0); width--)
    80000c0e:	02800513          	li	a0,40
    80000c12:	02800793          	li	a5,40
    80000c16:	0000d497          	auipc	s1,0xd
    80000c1a:	41348493          	add	s1,s1,1043 # 8000e029 <IP_ADDR_ANY+0xd>
    80000c1e:	b599                	j	80000a64 <vprintfmt+0x140>
}
    80000c20:	70e6                	ld	ra,120(sp)
    80000c22:	7446                	ld	s0,112(sp)
    80000c24:	74a6                	ld	s1,104(sp)
    80000c26:	7906                	ld	s2,96(sp)
    80000c28:	69e6                	ld	s3,88(sp)
    80000c2a:	6a46                	ld	s4,80(sp)
    80000c2c:	6aa6                	ld	s5,72(sp)
    80000c2e:	6b06                	ld	s6,64(sp)
    80000c30:	7be2                	ld	s7,56(sp)
    80000c32:	7c42                	ld	s8,48(sp)
    80000c34:	7ca2                	ld	s9,40(sp)
    80000c36:	7d02                	ld	s10,32(sp)
    80000c38:	6de2                	ld	s11,24(sp)
    80000c3a:	6109                	add	sp,sp,128
    80000c3c:	8082                	ret

0000000080000c3e <printfmt>:
{
    80000c3e:	715d                	add	sp,sp,-80
    80000c40:	ec06                	sd	ra,24(sp)
    80000c42:	e822                	sd	s0,16(sp)
    80000c44:	1000                	add	s0,sp,32
    80000c46:	e414                	sd	a3,8(s0)
    80000c48:	e818                	sd	a4,16(s0)
    80000c4a:	ec1c                	sd	a5,24(s0)
    80000c4c:	03043023          	sd	a6,32(s0)
    80000c50:	03143423          	sd	a7,40(s0)
  va_start(ap, fmt);
    80000c54:	00840693          	add	a3,s0,8
    80000c58:	fed43423          	sd	a3,-24(s0)
  vprintfmt(putch, putdat, fmt, ap);
    80000c5c:	cc9ff0ef          	jal	80000924 <vprintfmt>
}
    80000c60:	60e2                	ld	ra,24(sp)
    80000c62:	6442                	ld	s0,16(sp)
    80000c64:	6161                	add	sp,sp,80
    80000c66:	8082                	ret

0000000080000c68 <vsnprintf>:

int
vsnprintf(char *buf, size_t n, const char *fmt, va_list ap)
{
    80000c68:	7179                	add	sp,sp,-48
    80000c6a:	f406                	sd	ra,40(sp)
    80000c6c:	f022                	sd	s0,32(sp)
    80000c6e:	1800                	add	s0,sp,48
  struct sprintbuf b = {buf, buf+n-1, 0};
    80000c70:	fca43c23          	sd	a0,-40(s0)
    80000c74:	fff58793          	add	a5,a1,-1
    80000c78:	97aa                	add	a5,a5,a0
    80000c7a:	fef43023          	sd	a5,-32(s0)
    80000c7e:	fe042423          	sw	zero,-24(s0)

  if (buf == NULL || n < 1)
    80000c82:	c505                	beqz	a0,80000caa <vsnprintf+0x42>
    80000c84:	c58d                	beqz	a1,80000cae <vsnprintf+0x46>
    return -1;

  vprintfmt((void*)sprintputch, &b, fmt, ap);
    80000c86:	fd840593          	add	a1,s0,-40
    80000c8a:	00000517          	auipc	a0,0x0
    80000c8e:	c7650513          	add	a0,a0,-906 # 80000900 <sprintputch>
    80000c92:	c93ff0ef          	jal	80000924 <vprintfmt>

  *b.buf = '\0';
    80000c96:	fd843783          	ld	a5,-40(s0)
    80000c9a:	00078023          	sb	zero,0(a5)

  return b.cnt;
    80000c9e:	fe842503          	lw	a0,-24(s0)
}
    80000ca2:	70a2                	ld	ra,40(sp)
    80000ca4:	7402                	ld	s0,32(sp)
    80000ca6:	6145                	add	sp,sp,48
    80000ca8:	8082                	ret
    return -1;
    80000caa:	557d                	li	a0,-1
    80000cac:	bfdd                	j	80000ca2 <vsnprintf+0x3a>
    80000cae:	557d                	li	a0,-1
    80000cb0:	bfcd                	j	80000ca2 <vsnprintf+0x3a>

0000000080000cb2 <snprintf>:

int
snprintf(char *buf, size_t n, const char *fmt, ...)
{
    80000cb2:	715d                	add	sp,sp,-80
    80000cb4:	ec06                	sd	ra,24(sp)
    80000cb6:	e822                	sd	s0,16(sp)
    80000cb8:	1000                	add	s0,sp,32
    80000cba:	e414                	sd	a3,8(s0)
    80000cbc:	e818                	sd	a4,16(s0)
    80000cbe:	ec1c                	sd	a5,24(s0)
    80000cc0:	03043023          	sd	a6,32(s0)
    80000cc4:	03143423          	sd	a7,40(s0)
  va_list ap;
  int rc;

  va_start(ap, fmt);
    80000cc8:	00840693          	add	a3,s0,8
    80000ccc:	fed43423          	sd	a3,-24(s0)
  rc = vsnprintf(buf, n, fmt, ap);
    80000cd0:	f99ff0ef          	jal	80000c68 <vsnprintf>
  va_end(ap);

  return rc;
}
    80000cd4:	60e2                	ld	ra,24(sp)
    80000cd6:	6442                	ld	s0,16(sp)
    80000cd8:	6161                	add	sp,sp,80
    80000cda:	8082                	ret

0000000080000cdc <uartinit>:
extern volatile int panicking; // from printf.c
extern volatile int panicked; // from printf.c

void
uartinit(void)
{
    80000cdc:	1141                	add	sp,sp,-16
    80000cde:	e406                	sd	ra,8(sp)
    80000ce0:	e022                	sd	s0,0(sp)
    80000ce2:	0800                	add	s0,sp,16
  // disable interrupts.
  WriteReg(IER, 0x00);
    80000ce4:	100007b7          	lui	a5,0x10000
    80000ce8:	000780a3          	sb	zero,1(a5) # 10000001 <_entry-0x6fffffff>

  // special mode to set baud rate.
  WriteReg(LCR, LCR_BAUD_LATCH);
    80000cec:	10000737          	lui	a4,0x10000
    80000cf0:	f8000693          	li	a3,-128
    80000cf4:	00d701a3          	sb	a3,3(a4) # 10000003 <_entry-0x6ffffffd>

  // LSB for baud rate of 38.4K.
  WriteReg(0, 0x03);
    80000cf8:	468d                	li	a3,3
    80000cfa:	10000637          	lui	a2,0x10000
    80000cfe:	00d60023          	sb	a3,0(a2) # 10000000 <_entry-0x70000000>

  // MSB for baud rate of 38.4K.
  WriteReg(1, 0x00);
    80000d02:	000780a3          	sb	zero,1(a5)

  // leave set-baud mode,
  // and set word length to 8 bits, no parity.
  WriteReg(LCR, LCR_EIGHT_BITS);
    80000d06:	00d701a3          	sb	a3,3(a4)

  // reset and enable FIFOs.
  WriteReg(FCR, FCR_FIFO_ENABLE | FCR_FIFO_CLEAR);
    80000d0a:	10000737          	lui	a4,0x10000
    80000d0e:	461d                	li	a2,7
    80000d10:	00c70123          	sb	a2,2(a4) # 10000002 <_entry-0x6ffffffe>

  // enable transmit and receive interrupts.
  WriteReg(IER, IER_TX_ENABLE | IER_RX_ENABLE);
    80000d14:	00d780a3          	sb	a3,1(a5)

  initlock(&tx_lock, "uart");
    80000d18:	0000d597          	auipc	a1,0xd
    80000d1c:	35058593          	add	a1,a1,848 # 8000e068 <IP_ADDR_ANY+0x4c>
    80000d20:	00017517          	auipc	a0,0x17
    80000d24:	2c050513          	add	a0,a0,704 # 80017fe0 <tx_lock>
    80000d28:	2c2000ef          	jal	80000fea <initlock>
}
    80000d2c:	60a2                	ld	ra,8(sp)
    80000d2e:	6402                	ld	s0,0(sp)
    80000d30:	0141                	add	sp,sp,16
    80000d32:	8082                	ret

0000000080000d34 <uartwrite>:
// transmit buf[] to the uart. it blocks if the
// uart is busy, so it cannot be called from
// interrupts, only from write() system calls.
void
uartwrite(char buf[], int n)
{
    80000d34:	715d                	add	sp,sp,-80
    80000d36:	e486                	sd	ra,72(sp)
    80000d38:	e0a2                	sd	s0,64(sp)
    80000d3a:	fc26                	sd	s1,56(sp)
    80000d3c:	ec56                	sd	s5,24(sp)
    80000d3e:	0880                	add	s0,sp,80
    80000d40:	8aaa                	mv	s5,a0
    80000d42:	84ae                	mv	s1,a1
  acquire(&tx_lock);
    80000d44:	00017517          	auipc	a0,0x17
    80000d48:	29c50513          	add	a0,a0,668 # 80017fe0 <tx_lock>
    80000d4c:	31e000ef          	jal	8000106a <acquire>

  int i = 0;
  while(i < n){ 
    80000d50:	06905063          	blez	s1,80000db0 <uartwrite+0x7c>
    80000d54:	f84a                	sd	s2,48(sp)
    80000d56:	f44e                	sd	s3,40(sp)
    80000d58:	f052                	sd	s4,32(sp)
    80000d5a:	e85a                	sd	s6,16(sp)
    80000d5c:	e45e                	sd	s7,8(sp)
    80000d5e:	8a56                	mv	s4,s5
    80000d60:	9aa6                	add	s5,s5,s1
    while(tx_busy != 0){
    80000d62:	0000f497          	auipc	s1,0xf
    80000d66:	14a48493          	add	s1,s1,330 # 8000feac <tx_busy>
      // wait for a UART transmit-complete interrupt
      // to set tx_busy to 0.
      sleep(&tx_chan, &tx_lock);
    80000d6a:	00017997          	auipc	s3,0x17
    80000d6e:	27698993          	add	s3,s3,630 # 80017fe0 <tx_lock>
    80000d72:	0000f917          	auipc	s2,0xf
    80000d76:	13690913          	add	s2,s2,310 # 8000fea8 <tx_chan>
    }   
      
    WriteReg(THR, buf[i]);
    80000d7a:	10000bb7          	lui	s7,0x10000
    i += 1;
    tx_busy = 1;
    80000d7e:	4b05                	li	s6,1
    80000d80:	a005                	j	80000da0 <uartwrite+0x6c>
      sleep(&tx_chan, &tx_lock);
    80000d82:	85ce                	mv	a1,s3
    80000d84:	854a                	mv	a0,s2
    80000d86:	63c010ef          	jal	800023c2 <sleep>
    while(tx_busy != 0){
    80000d8a:	409c                	lw	a5,0(s1)
    80000d8c:	fbfd                	bnez	a5,80000d82 <uartwrite+0x4e>
    WriteReg(THR, buf[i]);
    80000d8e:	000a4783          	lbu	a5,0(s4)
    80000d92:	00fb8023          	sb	a5,0(s7) # 10000000 <_entry-0x70000000>
    tx_busy = 1;
    80000d96:	0164a023          	sw	s6,0(s1)
  while(i < n){ 
    80000d9a:	0a05                	add	s4,s4,1
    80000d9c:	015a0563          	beq	s4,s5,80000da6 <uartwrite+0x72>
    while(tx_busy != 0){
    80000da0:	409c                	lw	a5,0(s1)
    80000da2:	f3e5                	bnez	a5,80000d82 <uartwrite+0x4e>
    80000da4:	b7ed                	j	80000d8e <uartwrite+0x5a>
    80000da6:	7942                	ld	s2,48(sp)
    80000da8:	79a2                	ld	s3,40(sp)
    80000daa:	7a02                	ld	s4,32(sp)
    80000dac:	6b42                	ld	s6,16(sp)
    80000dae:	6ba2                	ld	s7,8(sp)
  }

  release(&tx_lock);
    80000db0:	00017517          	auipc	a0,0x17
    80000db4:	23050513          	add	a0,a0,560 # 80017fe0 <tx_lock>
    80000db8:	34a000ef          	jal	80001102 <release>
}
    80000dbc:	60a6                	ld	ra,72(sp)
    80000dbe:	6406                	ld	s0,64(sp)
    80000dc0:	74e2                	ld	s1,56(sp)
    80000dc2:	6ae2                	ld	s5,24(sp)
    80000dc4:	6161                	add	sp,sp,80
    80000dc6:	8082                	ret

0000000080000dc8 <uartputc_sync>:
// interrupts, for use by kernel printf() and
// to echo characters. it spins waiting for the uart's
// output register to be empty.
void
uartputc_sync(int c)
{
    80000dc8:	1101                	add	sp,sp,-32
    80000dca:	ec06                	sd	ra,24(sp)
    80000dcc:	e822                	sd	s0,16(sp)
    80000dce:	e426                	sd	s1,8(sp)
    80000dd0:	1000                	add	s0,sp,32
    80000dd2:	84aa                	mv	s1,a0
  if(panicking == 0)
    80000dd4:	0000f797          	auipc	a5,0xf
    80000dd8:	0d07a783          	lw	a5,208(a5) # 8000fea4 <panicking>
    80000ddc:	cf95                	beqz	a5,80000e18 <uartputc_sync+0x50>
    push_off();

  if(panicked){
    80000dde:	0000f797          	auipc	a5,0xf
    80000de2:	0c27a783          	lw	a5,194(a5) # 8000fea0 <panicked>
    80000de6:	ef85                	bnez	a5,80000e1e <uartputc_sync+0x56>
    for(;;)
      ;
  }

  // wait for UART to set Transmit Holding Empty in LSR.
  while((ReadReg(LSR) & LSR_TX_IDLE) == 0)
    80000de8:	10000737          	lui	a4,0x10000
    80000dec:	0715                	add	a4,a4,5 # 10000005 <_entry-0x6ffffffb>
    80000dee:	00074783          	lbu	a5,0(a4)
    80000df2:	0207f793          	and	a5,a5,32
    80000df6:	dfe5                	beqz	a5,80000dee <uartputc_sync+0x26>
    ;
  WriteReg(THR, c);
    80000df8:	0ff4f513          	zext.b	a0,s1
    80000dfc:	100007b7          	lui	a5,0x10000
    80000e00:	00a78023          	sb	a0,0(a5) # 10000000 <_entry-0x70000000>

  if(panicking == 0)
    80000e04:	0000f797          	auipc	a5,0xf
    80000e08:	0a07a783          	lw	a5,160(a5) # 8000fea4 <panicking>
    80000e0c:	cb91                	beqz	a5,80000e20 <uartputc_sync+0x58>
    pop_off();
}
    80000e0e:	60e2                	ld	ra,24(sp)
    80000e10:	6442                	ld	s0,16(sp)
    80000e12:	64a2                	ld	s1,8(sp)
    80000e14:	6105                	add	sp,sp,32
    80000e16:	8082                	ret
    push_off();
    80000e18:	212000ef          	jal	8000102a <push_off>
    80000e1c:	b7c9                	j	80000dde <uartputc_sync+0x16>
    for(;;)
    80000e1e:	a001                	j	80000e1e <uartputc_sync+0x56>
    pop_off();
    80000e20:	28e000ef          	jal	800010ae <pop_off>
}
    80000e24:	b7ed                	j	80000e0e <uartputc_sync+0x46>

0000000080000e26 <uartgetc>:

// try to read one input character from the UART.
// return -1 if none is waiting.
int
uartgetc(void)
{
    80000e26:	1141                	add	sp,sp,-16
    80000e28:	e422                	sd	s0,8(sp)
    80000e2a:	0800                	add	s0,sp,16
  if(ReadReg(LSR) & LSR_RX_READY){
    80000e2c:	100007b7          	lui	a5,0x10000
    80000e30:	0795                	add	a5,a5,5 # 10000005 <_entry-0x6ffffffb>
    80000e32:	0007c783          	lbu	a5,0(a5)
    80000e36:	8b85                	and	a5,a5,1
    80000e38:	cb81                	beqz	a5,80000e48 <uartgetc+0x22>
    // input data is ready.
    return ReadReg(RHR);
    80000e3a:	100007b7          	lui	a5,0x10000
    80000e3e:	0007c503          	lbu	a0,0(a5) # 10000000 <_entry-0x70000000>
  } else {
    return -1;
  }
}
    80000e42:	6422                	ld	s0,8(sp)
    80000e44:	0141                	add	sp,sp,16
    80000e46:	8082                	ret
    return -1;
    80000e48:	557d                	li	a0,-1
    80000e4a:	bfe5                	j	80000e42 <uartgetc+0x1c>

0000000080000e4c <uartintr>:
// handle a uart interrupt, raised because input has
// arrived, or the uart is ready for more output, or
// both. called from devintr().
void
uartintr(void)
{
    80000e4c:	1101                	add	sp,sp,-32
    80000e4e:	ec06                	sd	ra,24(sp)
    80000e50:	e822                	sd	s0,16(sp)
    80000e52:	e426                	sd	s1,8(sp)
    80000e54:	1000                	add	s0,sp,32
  ReadReg(ISR); // acknowledge the interrupt
    80000e56:	100007b7          	lui	a5,0x10000
    80000e5a:	0789                	add	a5,a5,2 # 10000002 <_entry-0x6ffffffe>
    80000e5c:	0007c783          	lbu	a5,0(a5)

  acquire(&tx_lock);
    80000e60:	00017517          	auipc	a0,0x17
    80000e64:	18050513          	add	a0,a0,384 # 80017fe0 <tx_lock>
    80000e68:	202000ef          	jal	8000106a <acquire>
  if(ReadReg(LSR) & LSR_TX_IDLE){
    80000e6c:	100007b7          	lui	a5,0x10000
    80000e70:	0795                	add	a5,a5,5 # 10000005 <_entry-0x6ffffffb>
    80000e72:	0007c783          	lbu	a5,0(a5)
    80000e76:	0207f793          	and	a5,a5,32
    80000e7a:	eb89                	bnez	a5,80000e8c <uartintr+0x40>
    // UART finished transmitting; wake up sending thread.
    tx_busy = 0;
    wakeup(&tx_chan);
  }
  release(&tx_lock);
    80000e7c:	00017517          	auipc	a0,0x17
    80000e80:	16450513          	add	a0,a0,356 # 80017fe0 <tx_lock>
    80000e84:	27e000ef          	jal	80001102 <release>

  // read and process incoming characters, if any.
  while(1){
    int c = uartgetc();
    if(c == -1)
    80000e88:	54fd                	li	s1,-1
    80000e8a:	a831                	j	80000ea6 <uartintr+0x5a>
    tx_busy = 0;
    80000e8c:	0000f797          	auipc	a5,0xf
    80000e90:	0207a023          	sw	zero,32(a5) # 8000feac <tx_busy>
    wakeup(&tx_chan);
    80000e94:	0000f517          	auipc	a0,0xf
    80000e98:	01450513          	add	a0,a0,20 # 8000fea8 <tx_chan>
    80000e9c:	572010ef          	jal	8000240e <wakeup>
    80000ea0:	bff1                	j	80000e7c <uartintr+0x30>
      break;
    consoleintr(c);
    80000ea2:	c08ff0ef          	jal	800002aa <consoleintr>
    int c = uartgetc();
    80000ea6:	f81ff0ef          	jal	80000e26 <uartgetc>
    if(c == -1)
    80000eaa:	fe951ce3          	bne	a0,s1,80000ea2 <uartintr+0x56>
  }
}
    80000eae:	60e2                	ld	ra,24(sp)
    80000eb0:	6442                	ld	s0,16(sp)
    80000eb2:	64a2                	ld	s1,8(sp)
    80000eb4:	6105                	add	sp,sp,32
    80000eb6:	8082                	ret

0000000080000eb8 <kfree>:
// which normally should have been returned by a
// call to kalloc().  (The exception is when
// initializing the allocator; see kinit above.)
void
kfree(void *pa)
{
    80000eb8:	1101                	add	sp,sp,-32
    80000eba:	ec06                	sd	ra,24(sp)
    80000ebc:	e822                	sd	s0,16(sp)
    80000ebe:	e426                	sd	s1,8(sp)
    80000ec0:	e04a                	sd	s2,0(sp)
    80000ec2:	1000                	add	s0,sp,32
  struct run *r;

  if(((uint64)pa % PGSIZE) != 0 || (char*)pa < end || (uint64)pa >= PHYSTOP)
    80000ec4:	03451793          	sll	a5,a0,0x34
    80000ec8:	e7a9                	bnez	a5,80000f12 <kfree+0x5a>
    80000eca:	84aa                	mv	s1,a0
    80000ecc:	00131797          	auipc	a5,0x131
    80000ed0:	67478793          	add	a5,a5,1652 # 80132540 <end>
    80000ed4:	02f56f63          	bltu	a0,a5,80000f12 <kfree+0x5a>
    80000ed8:	47c5                	li	a5,17
    80000eda:	07ee                	sll	a5,a5,0x1b
    80000edc:	02f57b63          	bgeu	a0,a5,80000f12 <kfree+0x5a>
    panic("kfree");

  // Fill with junk to catch dangling refs.
  memset(pa, 1, PGSIZE);
    80000ee0:	6605                	lui	a2,0x1
    80000ee2:	4585                	li	a1,1
    80000ee4:	25a000ef          	jal	8000113e <memset>

  r = (struct run*)pa;

  acquire(&kmem.lock);
    80000ee8:	00017917          	auipc	s2,0x17
    80000eec:	11090913          	add	s2,s2,272 # 80017ff8 <kmem>
    80000ef0:	854a                	mv	a0,s2
    80000ef2:	178000ef          	jal	8000106a <acquire>
  r->next = kmem.freelist;
    80000ef6:	01893783          	ld	a5,24(s2)
    80000efa:	e09c                	sd	a5,0(s1)
  kmem.freelist = r;
    80000efc:	00993c23          	sd	s1,24(s2)
  release(&kmem.lock);
    80000f00:	854a                	mv	a0,s2
    80000f02:	200000ef          	jal	80001102 <release>
}
    80000f06:	60e2                	ld	ra,24(sp)
    80000f08:	6442                	ld	s0,16(sp)
    80000f0a:	64a2                	ld	s1,8(sp)
    80000f0c:	6902                	ld	s2,0(sp)
    80000f0e:	6105                	add	sp,sp,32
    80000f10:	8082                	ret
    panic("kfree");
    80000f12:	0000d517          	auipc	a0,0xd
    80000f16:	15e50513          	add	a0,a0,350 # 8000e070 <IP_ADDR_ANY+0x54>
    80000f1a:	913ff0ef          	jal	8000082c <panic>

0000000080000f1e <freerange>:
{
    80000f1e:	7179                	add	sp,sp,-48
    80000f20:	f406                	sd	ra,40(sp)
    80000f22:	f022                	sd	s0,32(sp)
    80000f24:	ec26                	sd	s1,24(sp)
    80000f26:	1800                	add	s0,sp,48
  p = (char*)PGROUNDUP((uint64)pa_start);
    80000f28:	6785                	lui	a5,0x1
    80000f2a:	fff78713          	add	a4,a5,-1 # fff <_entry-0x7ffff001>
    80000f2e:	00e504b3          	add	s1,a0,a4
    80000f32:	777d                	lui	a4,0xfffff
    80000f34:	8cf9                	and	s1,s1,a4
  for(; p + PGSIZE <= (char*)pa_end; p += PGSIZE)
    80000f36:	94be                	add	s1,s1,a5
    80000f38:	0295e263          	bltu	a1,s1,80000f5c <freerange+0x3e>
    80000f3c:	e84a                	sd	s2,16(sp)
    80000f3e:	e44e                	sd	s3,8(sp)
    80000f40:	e052                	sd	s4,0(sp)
    80000f42:	892e                	mv	s2,a1
    kfree(p);
    80000f44:	7a7d                	lui	s4,0xfffff
  for(; p + PGSIZE <= (char*)pa_end; p += PGSIZE)
    80000f46:	6985                	lui	s3,0x1
    kfree(p);
    80000f48:	01448533          	add	a0,s1,s4
    80000f4c:	f6dff0ef          	jal	80000eb8 <kfree>
  for(; p + PGSIZE <= (char*)pa_end; p += PGSIZE)
    80000f50:	94ce                	add	s1,s1,s3
    80000f52:	fe997be3          	bgeu	s2,s1,80000f48 <freerange+0x2a>
    80000f56:	6942                	ld	s2,16(sp)
    80000f58:	69a2                	ld	s3,8(sp)
    80000f5a:	6a02                	ld	s4,0(sp)
}
    80000f5c:	70a2                	ld	ra,40(sp)
    80000f5e:	7402                	ld	s0,32(sp)
    80000f60:	64e2                	ld	s1,24(sp)
    80000f62:	6145                	add	sp,sp,48
    80000f64:	8082                	ret

0000000080000f66 <kinit>:
{
    80000f66:	1141                	add	sp,sp,-16
    80000f68:	e406                	sd	ra,8(sp)
    80000f6a:	e022                	sd	s0,0(sp)
    80000f6c:	0800                	add	s0,sp,16
  initlock(&kmem.lock, "kmem");
    80000f6e:	0000d597          	auipc	a1,0xd
    80000f72:	10a58593          	add	a1,a1,266 # 8000e078 <IP_ADDR_ANY+0x5c>
    80000f76:	00017517          	auipc	a0,0x17
    80000f7a:	08250513          	add	a0,a0,130 # 80017ff8 <kmem>
    80000f7e:	06c000ef          	jal	80000fea <initlock>
  freerange(end, (void*)PHYSTOP);
    80000f82:	45c5                	li	a1,17
    80000f84:	05ee                	sll	a1,a1,0x1b
    80000f86:	00131517          	auipc	a0,0x131
    80000f8a:	5ba50513          	add	a0,a0,1466 # 80132540 <end>
    80000f8e:	f91ff0ef          	jal	80000f1e <freerange>
}
    80000f92:	60a2                	ld	ra,8(sp)
    80000f94:	6402                	ld	s0,0(sp)
    80000f96:	0141                	add	sp,sp,16
    80000f98:	8082                	ret

0000000080000f9a <kalloc>:
// Allocate one 4096-byte page of physical memory.
// Returns a pointer that the kernel can use.
// Returns 0 if the memory cannot be allocated.
void *
kalloc(void)
{
    80000f9a:	1101                	add	sp,sp,-32
    80000f9c:	ec06                	sd	ra,24(sp)
    80000f9e:	e822                	sd	s0,16(sp)
    80000fa0:	e426                	sd	s1,8(sp)
    80000fa2:	1000                	add	s0,sp,32
  struct run *r;

  acquire(&kmem.lock);
    80000fa4:	00017497          	auipc	s1,0x17
    80000fa8:	05448493          	add	s1,s1,84 # 80017ff8 <kmem>
    80000fac:	8526                	mv	a0,s1
    80000fae:	0bc000ef          	jal	8000106a <acquire>
  r = kmem.freelist;
    80000fb2:	6c84                	ld	s1,24(s1)
  if(r)
    80000fb4:	c485                	beqz	s1,80000fdc <kalloc+0x42>
    kmem.freelist = r->next;
    80000fb6:	609c                	ld	a5,0(s1)
    80000fb8:	00017517          	auipc	a0,0x17
    80000fbc:	04050513          	add	a0,a0,64 # 80017ff8 <kmem>
    80000fc0:	ed1c                	sd	a5,24(a0)
  release(&kmem.lock);
    80000fc2:	140000ef          	jal	80001102 <release>

  if(r)
    memset((char*)r, 5, PGSIZE); // fill with junk
    80000fc6:	6605                	lui	a2,0x1
    80000fc8:	4595                	li	a1,5
    80000fca:	8526                	mv	a0,s1
    80000fcc:	172000ef          	jal	8000113e <memset>
  return (void*)r;
}
    80000fd0:	8526                	mv	a0,s1
    80000fd2:	60e2                	ld	ra,24(sp)
    80000fd4:	6442                	ld	s0,16(sp)
    80000fd6:	64a2                	ld	s1,8(sp)
    80000fd8:	6105                	add	sp,sp,32
    80000fda:	8082                	ret
  release(&kmem.lock);
    80000fdc:	00017517          	auipc	a0,0x17
    80000fe0:	01c50513          	add	a0,a0,28 # 80017ff8 <kmem>
    80000fe4:	11e000ef          	jal	80001102 <release>
  if(r)
    80000fe8:	b7e5                	j	80000fd0 <kalloc+0x36>

0000000080000fea <initlock>:
#include "proc.h"
#include "defs.h"

void
initlock(struct spinlock *lk, char *name)
{
    80000fea:	1141                	add	sp,sp,-16
    80000fec:	e422                	sd	s0,8(sp)
    80000fee:	0800                	add	s0,sp,16
  lk->name = name;
    80000ff0:	e50c                	sd	a1,8(a0)
  lk->locked = 0;
    80000ff2:	00052023          	sw	zero,0(a0)
  lk->cpu = 0;
    80000ff6:	00053823          	sd	zero,16(a0)
}
    80000ffa:	6422                	ld	s0,8(sp)
    80000ffc:	0141                	add	sp,sp,16
    80000ffe:	8082                	ret

0000000080001000 <holding>:
// Interrupts must be off.
int
holding(struct spinlock *lk)
{
  int r;
  r = (lk->locked && lk->cpu == mycpu());
    80001000:	411c                	lw	a5,0(a0)
    80001002:	e399                	bnez	a5,80001008 <holding+0x8>
    80001004:	4501                	li	a0,0
  return r;
}
    80001006:	8082                	ret
{
    80001008:	1101                	add	sp,sp,-32
    8000100a:	ec06                	sd	ra,24(sp)
    8000100c:	e822                	sd	s0,16(sp)
    8000100e:	e426                	sd	s1,8(sp)
    80001010:	1000                	add	s0,sp,32
  r = (lk->locked && lk->cpu == mycpu());
    80001012:	6904                	ld	s1,16(a0)
    80001014:	589000ef          	jal	80001d9c <mycpu>
    80001018:	40a48533          	sub	a0,s1,a0
    8000101c:	00153513          	seqz	a0,a0
}
    80001020:	60e2                	ld	ra,24(sp)
    80001022:	6442                	ld	s0,16(sp)
    80001024:	64a2                	ld	s1,8(sp)
    80001026:	6105                	add	sp,sp,32
    80001028:	8082                	ret

000000008000102a <push_off>:
// it takes two pop_off()s to undo two push_off()s.  Also, if interrupts
// are initially off, then push_off, pop_off leaves them off.

void
push_off(void)
{
    8000102a:	1101                	add	sp,sp,-32
    8000102c:	ec06                	sd	ra,24(sp)
    8000102e:	e822                	sd	s0,16(sp)
    80001030:	e426                	sd	s1,8(sp)
    80001032:	1000                	add	s0,sp,32
  asm volatile("csrr %0, sstatus" : "=r" (x) );
    80001034:	100024f3          	csrr	s1,sstatus
    80001038:	100027f3          	csrr	a5,sstatus
  w_sstatus(r_sstatus() & ~SSTATUS_SIE);
    8000103c:	9bf5                	and	a5,a5,-3
  asm volatile("csrw sstatus, %0" : : "r" (x));
    8000103e:	10079073          	csrw	sstatus,a5

  // disable interrupts to prevent an involuntary context
  // switch while using mycpu().
  intr_off();

  if(mycpu()->noff == 0)
    80001042:	55b000ef          	jal	80001d9c <mycpu>
    80001046:	5d3c                	lw	a5,120(a0)
    80001048:	cb99                	beqz	a5,8000105e <push_off+0x34>
    mycpu()->intena = old;
  mycpu()->noff += 1;
    8000104a:	553000ef          	jal	80001d9c <mycpu>
    8000104e:	5d3c                	lw	a5,120(a0)
    80001050:	2785                	addw	a5,a5,1
    80001052:	dd3c                	sw	a5,120(a0)
}
    80001054:	60e2                	ld	ra,24(sp)
    80001056:	6442                	ld	s0,16(sp)
    80001058:	64a2                	ld	s1,8(sp)
    8000105a:	6105                	add	sp,sp,32
    8000105c:	8082                	ret
    mycpu()->intena = old;
    8000105e:	53f000ef          	jal	80001d9c <mycpu>
  return (x & SSTATUS_SIE) != 0;
    80001062:	8085                	srl	s1,s1,0x1
    80001064:	8885                	and	s1,s1,1
    80001066:	dd64                	sw	s1,124(a0)
    80001068:	b7cd                	j	8000104a <push_off+0x20>

000000008000106a <acquire>:
{
    8000106a:	1101                	add	sp,sp,-32
    8000106c:	ec06                	sd	ra,24(sp)
    8000106e:	e822                	sd	s0,16(sp)
    80001070:	e426                	sd	s1,8(sp)
    80001072:	1000                	add	s0,sp,32
    80001074:	84aa                	mv	s1,a0
  push_off(); // disable interrupts to avoid deadlock.
    80001076:	fb5ff0ef          	jal	8000102a <push_off>
  if(holding(lk))
    8000107a:	8526                	mv	a0,s1
    8000107c:	f85ff0ef          	jal	80001000 <holding>
  while(__sync_lock_test_and_set(&lk->locked, 1) != 0)
    80001080:	4705                	li	a4,1
  if(holding(lk))
    80001082:	e105                	bnez	a0,800010a2 <acquire+0x38>
  while(__sync_lock_test_and_set(&lk->locked, 1) != 0)
    80001084:	87ba                	mv	a5,a4
    80001086:	0cf4a7af          	amoswap.w.aq	a5,a5,(s1)
    8000108a:	2781                	sext.w	a5,a5
    8000108c:	ffe5                	bnez	a5,80001084 <acquire+0x1a>
  __sync_synchronize();
    8000108e:	0ff0000f          	fence
  lk->cpu = mycpu();
    80001092:	50b000ef          	jal	80001d9c <mycpu>
    80001096:	e888                	sd	a0,16(s1)
}
    80001098:	60e2                	ld	ra,24(sp)
    8000109a:	6442                	ld	s0,16(sp)
    8000109c:	64a2                	ld	s1,8(sp)
    8000109e:	6105                	add	sp,sp,32
    800010a0:	8082                	ret
    panic("acquire");
    800010a2:	0000d517          	auipc	a0,0xd
    800010a6:	fde50513          	add	a0,a0,-34 # 8000e080 <IP_ADDR_ANY+0x64>
    800010aa:	f82ff0ef          	jal	8000082c <panic>

00000000800010ae <pop_off>:

void
pop_off(void)
{
    800010ae:	1141                	add	sp,sp,-16
    800010b0:	e406                	sd	ra,8(sp)
    800010b2:	e022                	sd	s0,0(sp)
    800010b4:	0800                	add	s0,sp,16
  struct cpu *c = mycpu();
    800010b6:	4e7000ef          	jal	80001d9c <mycpu>
  asm volatile("csrr %0, sstatus" : "=r" (x) );
    800010ba:	100027f3          	csrr	a5,sstatus
  return (x & SSTATUS_SIE) != 0;
    800010be:	8b89                	and	a5,a5,2
  if(intr_get())
    800010c0:	e78d                	bnez	a5,800010ea <pop_off+0x3c>
    panic("pop_off - interruptible");
  if(c->noff < 1)
    800010c2:	5d3c                	lw	a5,120(a0)
    800010c4:	02f05963          	blez	a5,800010f6 <pop_off+0x48>
    panic("pop_off");
  c->noff -= 1;
    800010c8:	37fd                	addw	a5,a5,-1
    800010ca:	0007871b          	sext.w	a4,a5
    800010ce:	dd3c                	sw	a5,120(a0)
  if(c->noff == 0 && c->intena)
    800010d0:	eb09                	bnez	a4,800010e2 <pop_off+0x34>
    800010d2:	5d7c                	lw	a5,124(a0)
    800010d4:	c799                	beqz	a5,800010e2 <pop_off+0x34>
  asm volatile("csrr %0, sstatus" : "=r" (x) );
    800010d6:	100027f3          	csrr	a5,sstatus
  w_sstatus(r_sstatus() | SSTATUS_SIE);
    800010da:	0027e793          	or	a5,a5,2
  asm volatile("csrw sstatus, %0" : : "r" (x));
    800010de:	10079073          	csrw	sstatus,a5
    intr_on();
}
    800010e2:	60a2                	ld	ra,8(sp)
    800010e4:	6402                	ld	s0,0(sp)
    800010e6:	0141                	add	sp,sp,16
    800010e8:	8082                	ret
    panic("pop_off - interruptible");
    800010ea:	0000d517          	auipc	a0,0xd
    800010ee:	f9e50513          	add	a0,a0,-98 # 8000e088 <IP_ADDR_ANY+0x6c>
    800010f2:	f3aff0ef          	jal	8000082c <panic>
    panic("pop_off");
    800010f6:	0000d517          	auipc	a0,0xd
    800010fa:	faa50513          	add	a0,a0,-86 # 8000e0a0 <IP_ADDR_ANY+0x84>
    800010fe:	f2eff0ef          	jal	8000082c <panic>

0000000080001102 <release>:
{
    80001102:	1101                	add	sp,sp,-32
    80001104:	ec06                	sd	ra,24(sp)
    80001106:	e822                	sd	s0,16(sp)
    80001108:	e426                	sd	s1,8(sp)
    8000110a:	1000                	add	s0,sp,32
    8000110c:	84aa                	mv	s1,a0
  if(!holding(lk))
    8000110e:	ef3ff0ef          	jal	80001000 <holding>
    80001112:	c105                	beqz	a0,80001132 <release+0x30>
  lk->cpu = 0;
    80001114:	0004b823          	sd	zero,16(s1)
  __sync_synchronize();
    80001118:	0ff0000f          	fence
  __sync_lock_release(&lk->locked);
    8000111c:	0f50000f          	fence	iorw,ow
    80001120:	0804a02f          	amoswap.w	zero,zero,(s1)
  pop_off();
    80001124:	f8bff0ef          	jal	800010ae <pop_off>
}
    80001128:	60e2                	ld	ra,24(sp)
    8000112a:	6442                	ld	s0,16(sp)
    8000112c:	64a2                	ld	s1,8(sp)
    8000112e:	6105                	add	sp,sp,32
    80001130:	8082                	ret
    panic("release");
    80001132:	0000d517          	auipc	a0,0xd
    80001136:	f7650513          	add	a0,a0,-138 # 8000e0a8 <IP_ADDR_ANY+0x8c>
    8000113a:	ef2ff0ef          	jal	8000082c <panic>

000000008000113e <memset>:
#include "types.h"

void*
memset(void *dst, int c, uint n)
{
    8000113e:	1141                	add	sp,sp,-16
    80001140:	e422                	sd	s0,8(sp)
    80001142:	0800                	add	s0,sp,16
  char *cdst = (char *) dst;
  int i;
  for(i = 0; i < n; i++){
    80001144:	ca19                	beqz	a2,8000115a <memset+0x1c>
    80001146:	87aa                	mv	a5,a0
    80001148:	1602                	sll	a2,a2,0x20
    8000114a:	9201                	srl	a2,a2,0x20
    8000114c:	00a60733          	add	a4,a2,a0
    cdst[i] = c;
    80001150:	00b78023          	sb	a1,0(a5)
  for(i = 0; i < n; i++){
    80001154:	0785                	add	a5,a5,1
    80001156:	fee79de3          	bne	a5,a4,80001150 <memset+0x12>
  }
  return dst;
}
    8000115a:	6422                	ld	s0,8(sp)
    8000115c:	0141                	add	sp,sp,16
    8000115e:	8082                	ret

0000000080001160 <memcmp>:

int
memcmp(const void *v1, const void *v2, uint n)
{
    80001160:	1141                	add	sp,sp,-16
    80001162:	e422                	sd	s0,8(sp)
    80001164:	0800                	add	s0,sp,16
  const uchar *s1, *s2;

  s1 = v1;
  s2 = v2;
  while(n-- > 0){
    80001166:	ca05                	beqz	a2,80001196 <memcmp+0x36>
    80001168:	fff6069b          	addw	a3,a2,-1 # fff <_entry-0x7ffff001>
    8000116c:	1682                	sll	a3,a3,0x20
    8000116e:	9281                	srl	a3,a3,0x20
    80001170:	0685                	add	a3,a3,1
    80001172:	96aa                	add	a3,a3,a0
    if(*s1 != *s2)
    80001174:	00054783          	lbu	a5,0(a0)
    80001178:	0005c703          	lbu	a4,0(a1)
    8000117c:	00e79863          	bne	a5,a4,8000118c <memcmp+0x2c>
      return *s1 - *s2;
    s1++, s2++;
    80001180:	0505                	add	a0,a0,1
    80001182:	0585                	add	a1,a1,1
  while(n-- > 0){
    80001184:	fed518e3          	bne	a0,a3,80001174 <memcmp+0x14>
  }

  return 0;
    80001188:	4501                	li	a0,0
    8000118a:	a019                	j	80001190 <memcmp+0x30>
      return *s1 - *s2;
    8000118c:	40e7853b          	subw	a0,a5,a4
}
    80001190:	6422                	ld	s0,8(sp)
    80001192:	0141                	add	sp,sp,16
    80001194:	8082                	ret
  return 0;
    80001196:	4501                	li	a0,0
    80001198:	bfe5                	j	80001190 <memcmp+0x30>

000000008000119a <memmove>:

void*
memmove(void *dst, const void *src, uint n)
{
    8000119a:	1141                	add	sp,sp,-16
    8000119c:	e422                	sd	s0,8(sp)
    8000119e:	0800                	add	s0,sp,16
  const char *s;
  char *d;

  if(n == 0)
    800011a0:	c205                	beqz	a2,800011c0 <memmove+0x26>
    return dst;
  
  s = src;
  d = dst;
  if(s < d && s + n > d){
    800011a2:	02a5e263          	bltu	a1,a0,800011c6 <memmove+0x2c>
    s += n;
    d += n;
    while(n-- > 0)
      *--d = *--s;
  } else
    while(n-- > 0)
    800011a6:	1602                	sll	a2,a2,0x20
    800011a8:	9201                	srl	a2,a2,0x20
    800011aa:	00c587b3          	add	a5,a1,a2
{
    800011ae:	872a                	mv	a4,a0
      *d++ = *s++;
    800011b0:	0585                	add	a1,a1,1
    800011b2:	0705                	add	a4,a4,1 # fffffffffffff001 <end+0xffffffff7feccac1>
    800011b4:	fff5c683          	lbu	a3,-1(a1)
    800011b8:	fed70fa3          	sb	a3,-1(a4)
    while(n-- > 0)
    800011bc:	feb79ae3          	bne	a5,a1,800011b0 <memmove+0x16>

  return dst;
}
    800011c0:	6422                	ld	s0,8(sp)
    800011c2:	0141                	add	sp,sp,16
    800011c4:	8082                	ret
  if(s < d && s + n > d){
    800011c6:	02061693          	sll	a3,a2,0x20
    800011ca:	9281                	srl	a3,a3,0x20
    800011cc:	00d58733          	add	a4,a1,a3
    800011d0:	fce57be3          	bgeu	a0,a4,800011a6 <memmove+0xc>
    d += n;
    800011d4:	96aa                	add	a3,a3,a0
    while(n-- > 0)
    800011d6:	fff6079b          	addw	a5,a2,-1
    800011da:	1782                	sll	a5,a5,0x20
    800011dc:	9381                	srl	a5,a5,0x20
    800011de:	fff7c793          	not	a5,a5
    800011e2:	97ba                	add	a5,a5,a4
      *--d = *--s;
    800011e4:	177d                	add	a4,a4,-1
    800011e6:	16fd                	add	a3,a3,-1
    800011e8:	00074603          	lbu	a2,0(a4)
    800011ec:	00c68023          	sb	a2,0(a3)
    while(n-- > 0)
    800011f0:	fef71ae3          	bne	a4,a5,800011e4 <memmove+0x4a>
    800011f4:	b7f1                	j	800011c0 <memmove+0x26>

00000000800011f6 <memcpy>:

// memcpy exists to placate GCC.  Use memmove.
void*
memcpy(void *dst, const void *src, uint n)
{
    800011f6:	1141                	add	sp,sp,-16
    800011f8:	e406                	sd	ra,8(sp)
    800011fa:	e022                	sd	s0,0(sp)
    800011fc:	0800                	add	s0,sp,16
  return memmove(dst, src, n);
    800011fe:	f9dff0ef          	jal	8000119a <memmove>
}
    80001202:	60a2                	ld	ra,8(sp)
    80001204:	6402                	ld	s0,0(sp)
    80001206:	0141                	add	sp,sp,16
    80001208:	8082                	ret

000000008000120a <strncmp>:

int
strncmp(const char *p, const char *q, uint n)
{
    8000120a:	1141                	add	sp,sp,-16
    8000120c:	e422                	sd	s0,8(sp)
    8000120e:	0800                	add	s0,sp,16
  while(n > 0 && *p && *p == *q)
    80001210:	ce11                	beqz	a2,8000122c <strncmp+0x22>
    80001212:	00054783          	lbu	a5,0(a0)
    80001216:	cf89                	beqz	a5,80001230 <strncmp+0x26>
    80001218:	0005c703          	lbu	a4,0(a1)
    8000121c:	00f71a63          	bne	a4,a5,80001230 <strncmp+0x26>
    n--, p++, q++;
    80001220:	367d                	addw	a2,a2,-1
    80001222:	0505                	add	a0,a0,1
    80001224:	0585                	add	a1,a1,1
  while(n > 0 && *p && *p == *q)
    80001226:	f675                	bnez	a2,80001212 <strncmp+0x8>
  if(n == 0)
    return 0;
    80001228:	4501                	li	a0,0
    8000122a:	a801                	j	8000123a <strncmp+0x30>
    8000122c:	4501                	li	a0,0
    8000122e:	a031                	j	8000123a <strncmp+0x30>
  return (uchar)*p - (uchar)*q;
    80001230:	00054503          	lbu	a0,0(a0)
    80001234:	0005c783          	lbu	a5,0(a1)
    80001238:	9d1d                	subw	a0,a0,a5
}
    8000123a:	6422                	ld	s0,8(sp)
    8000123c:	0141                	add	sp,sp,16
    8000123e:	8082                	ret

0000000080001240 <strncpy>:

char*
strncpy(char *s, const char *t, int n)
{
    80001240:	1141                	add	sp,sp,-16
    80001242:	e422                	sd	s0,8(sp)
    80001244:	0800                	add	s0,sp,16
  char *os;

  os = s;
  while(n-- > 0 && (*s++ = *t++) != 0)
    80001246:	87aa                	mv	a5,a0
    80001248:	86b2                	mv	a3,a2
    8000124a:	367d                	addw	a2,a2,-1
    8000124c:	02d05563          	blez	a3,80001276 <strncpy+0x36>
    80001250:	0785                	add	a5,a5,1
    80001252:	0005c703          	lbu	a4,0(a1)
    80001256:	fee78fa3          	sb	a4,-1(a5)
    8000125a:	0585                	add	a1,a1,1
    8000125c:	f775                	bnez	a4,80001248 <strncpy+0x8>
    ;
  while(n-- > 0)
    8000125e:	873e                	mv	a4,a5
    80001260:	9fb5                	addw	a5,a5,a3
    80001262:	37fd                	addw	a5,a5,-1
    80001264:	00c05963          	blez	a2,80001276 <strncpy+0x36>
    *s++ = 0;
    80001268:	0705                	add	a4,a4,1
    8000126a:	fe070fa3          	sb	zero,-1(a4)
  while(n-- > 0)
    8000126e:	40e786bb          	subw	a3,a5,a4
    80001272:	fed04be3          	bgtz	a3,80001268 <strncpy+0x28>
  return os;
}
    80001276:	6422                	ld	s0,8(sp)
    80001278:	0141                	add	sp,sp,16
    8000127a:	8082                	ret

000000008000127c <safestrcpy>:

// Like strncpy but guaranteed to NUL-terminate.
char*
safestrcpy(char *s, const char *t, int n)
{
    8000127c:	1141                	add	sp,sp,-16
    8000127e:	e422                	sd	s0,8(sp)
    80001280:	0800                	add	s0,sp,16
  char *os;

  os = s;
  if(n <= 0)
    80001282:	02c05363          	blez	a2,800012a8 <safestrcpy+0x2c>
    80001286:	fff6069b          	addw	a3,a2,-1
    8000128a:	1682                	sll	a3,a3,0x20
    8000128c:	9281                	srl	a3,a3,0x20
    8000128e:	96ae                	add	a3,a3,a1
    80001290:	87aa                	mv	a5,a0
    return os;
  while(--n > 0 && (*s++ = *t++) != 0)
    80001292:	00d58963          	beq	a1,a3,800012a4 <safestrcpy+0x28>
    80001296:	0585                	add	a1,a1,1
    80001298:	0785                	add	a5,a5,1
    8000129a:	fff5c703          	lbu	a4,-1(a1)
    8000129e:	fee78fa3          	sb	a4,-1(a5)
    800012a2:	fb65                	bnez	a4,80001292 <safestrcpy+0x16>
    ;
  *s = 0;
    800012a4:	00078023          	sb	zero,0(a5)
  return os;
}
    800012a8:	6422                	ld	s0,8(sp)
    800012aa:	0141                	add	sp,sp,16
    800012ac:	8082                	ret

00000000800012ae <strlen>:

int
strlen(const char *s)
{
    800012ae:	1141                	add	sp,sp,-16
    800012b0:	e422                	sd	s0,8(sp)
    800012b2:	0800                	add	s0,sp,16
  int n;

  for(n = 0; s[n]; n++)
    800012b4:	00054783          	lbu	a5,0(a0)
    800012b8:	cf91                	beqz	a5,800012d4 <strlen+0x26>
    800012ba:	0505                	add	a0,a0,1
    800012bc:	87aa                	mv	a5,a0
    800012be:	86be                	mv	a3,a5
    800012c0:	0785                	add	a5,a5,1
    800012c2:	fff7c703          	lbu	a4,-1(a5)
    800012c6:	ff65                	bnez	a4,800012be <strlen+0x10>
    800012c8:	40a6853b          	subw	a0,a3,a0
    800012cc:	2505                	addw	a0,a0,1
    ;
  return n;
}
    800012ce:	6422                	ld	s0,8(sp)
    800012d0:	0141                	add	sp,sp,16
    800012d2:	8082                	ret
  for(n = 0; s[n]; n++)
    800012d4:	4501                	li	a0,0
    800012d6:	bfe5                	j	800012ce <strlen+0x20>

00000000800012d8 <main>:
volatile static int started = 0;

// start() jumps here in supervisor mode on all CPUs.
void
main()
{
    800012d8:	1141                	add	sp,sp,-16
    800012da:	e406                	sd	ra,8(sp)
    800012dc:	e022                	sd	s0,0(sp)
    800012de:	0800                	add	s0,sp,16
  if(cpuid() == 0){
    800012e0:	2ad000ef          	jal	80001d8c <cpuid>
    printf("done net init\n");
    userinit();      // first user process
    __sync_synchronize();
    started = 1;
  } else {
    while(started == 0)
    800012e4:	0000f717          	auipc	a4,0xf
    800012e8:	bcc70713          	add	a4,a4,-1076 # 8000feb0 <started>
  if(cpuid() == 0){
    800012ec:	c51d                	beqz	a0,8000131a <main+0x42>
    while(started == 0)
    800012ee:	431c                	lw	a5,0(a4)
    800012f0:	2781                	sext.w	a5,a5
    800012f2:	dff5                	beqz	a5,800012ee <main+0x16>
      ;
    __sync_synchronize();
    800012f4:	0ff0000f          	fence
    printf("hart %d starting\n", cpuid());
    800012f8:	295000ef          	jal	80001d8c <cpuid>
    800012fc:	85aa                	mv	a1,a0
    800012fe:	0000d517          	auipc	a0,0xd
    80001302:	e2250513          	add	a0,a0,-478 # 8000e120 <IP_ADDR_ANY+0x104>
    80001306:	a40ff0ef          	jal	80000546 <printf>
    kvminithart();    // turn on paging
    8000130a:	0bc000ef          	jal	800013c6 <kvminithart>
    trapinithart();   // install kernel trap vector
    8000130e:	5d6010ef          	jal	800028e4 <trapinithart>
    plicinithart();   // ask PLIC for device interrupts
    80001312:	5ac040ef          	jal	800058be <plicinithart>
  }

  scheduler();        
    80001316:	715000ef          	jal	8000222a <scheduler>
    consoleinit();
    8000131a:	90aff0ef          	jal	80000424 <consoleinit>
    printfinit();
    8000131e:	d4aff0ef          	jal	80000868 <printfinit>
    printf("\n");
    80001322:	0000e517          	auipc	a0,0xe
    80001326:	09650513          	add	a0,a0,150 # 8000f3b8 <IP_ADDR_ANY+0x139c>
    8000132a:	a1cff0ef          	jal	80000546 <printf>
    printf("xv6 kernel is booting\n");
    8000132e:	0000d517          	auipc	a0,0xd
    80001332:	d8250513          	add	a0,a0,-638 # 8000e0b0 <IP_ADDR_ANY+0x94>
    80001336:	a10ff0ef          	jal	80000546 <printf>
    printf("\n");
    8000133a:	0000e517          	auipc	a0,0xe
    8000133e:	07e50513          	add	a0,a0,126 # 8000f3b8 <IP_ADDR_ANY+0x139c>
    80001342:	a04ff0ef          	jal	80000546 <printf>
    kinit();         // physical page allocator
    80001346:	c21ff0ef          	jal	80000f66 <kinit>
    kvminit();       // create kernel page table
    8000134a:	318000ef          	jal	80001662 <kvminit>
    kvminithart();   // turn on paging
    8000134e:	078000ef          	jal	800013c6 <kvminithart>
    procinit();      // process table
    80001352:	185000ef          	jal	80001cd6 <procinit>
    trapinit();      // trap vectors
    80001356:	56a010ef          	jal	800028c0 <trapinit>
    trapinithart();  // install kernel trap vector
    8000135a:	58a010ef          	jal	800028e4 <trapinithart>
    plicinit();      // set up interrupt controller
    8000135e:	540040ef          	jal	8000589e <plicinit>
    plicinithart();  // ask PLIC for device interrupts
    80001362:	55c040ef          	jal	800058be <plicinithart>
    binit();         // buffer cache
    80001366:	421010ef          	jal	80002f86 <binit>
    iinit();         // inode table
    8000136a:	1a6020ef          	jal	80003510 <iinit>
    fileinit();      // file table
    8000136e:	098030ef          	jal	80004406 <fileinit>
    virtio_disk_init(); // emulated hard disk
    80001372:	63c040ef          	jal	800059ae <virtio_disk_init>
    printf("calling netinit\n");
    80001376:	0000d517          	auipc	a0,0xd
    8000137a:	d5250513          	add	a0,a0,-686 # 8000e0c8 <IP_ADDR_ANY+0xac>
    8000137e:	9c8ff0ef          	jal	80000546 <printf>
    netinit();         // initialize network stack
    80001382:	4c9050ef          	jal	8000704a <netinit>
    printf("calling virtio_net_init\n");
    80001386:	0000d517          	auipc	a0,0xd
    8000138a:	d5a50513          	add	a0,a0,-678 # 8000e0e0 <IP_ADDR_ANY+0xc4>
    8000138e:	9b8ff0ef          	jal	80000546 <printf>
    virtio_net_init();  // emulated network device
    80001392:	71e0b0ef          	jal	8000cab0 <virtio_net_init>
    printf("calling netrun\n");
    80001396:	0000d517          	auipc	a0,0xd
    8000139a:	d6a50513          	add	a0,a0,-662 # 8000e100 <IP_ADDR_ANY+0xe4>
    8000139e:	9a8ff0ef          	jal	80000546 <printf>
    netrun();          // start network
    800013a2:	4cf050ef          	jal	80007070 <netrun>
    printf("done net init\n");
    800013a6:	0000d517          	auipc	a0,0xd
    800013aa:	d6a50513          	add	a0,a0,-662 # 8000e110 <IP_ADDR_ANY+0xf4>
    800013ae:	998ff0ef          	jal	80000546 <printf>
    userinit();      // first user process
    800013b2:	4cd000ef          	jal	8000207e <userinit>
    __sync_synchronize();
    800013b6:	0ff0000f          	fence
    started = 1;
    800013ba:	4785                	li	a5,1
    800013bc:	0000f717          	auipc	a4,0xf
    800013c0:	aef72a23          	sw	a5,-1292(a4) # 8000feb0 <started>
    800013c4:	bf89                	j	80001316 <main+0x3e>

00000000800013c6 <kvminithart>:

// Switch the current CPU's h/w page table register to
// the kernel's page table, and enable paging.
void
kvminithart()
{
    800013c6:	1141                	add	sp,sp,-16
    800013c8:	e422                	sd	s0,8(sp)
    800013ca:	0800                	add	s0,sp,16
// flush the TLB.
static inline void
sfence_vma()
{
  // the zero, zero means flush all TLB entries.
  asm volatile("sfence.vma zero, zero");
    800013cc:	12000073          	sfence.vma
  // wait for any previous writes to the page table memory to finish.
  sfence_vma();

  w_satp(MAKE_SATP(kernel_pagetable));
    800013d0:	0000f797          	auipc	a5,0xf
    800013d4:	ae87b783          	ld	a5,-1304(a5) # 8000feb8 <kernel_pagetable>
    800013d8:	83b1                	srl	a5,a5,0xc
    800013da:	577d                	li	a4,-1
    800013dc:	177e                	sll	a4,a4,0x3f
    800013de:	8fd9                	or	a5,a5,a4
  asm volatile("csrw satp, %0" : : "r" (x));
    800013e0:	18079073          	csrw	satp,a5
  asm volatile("sfence.vma zero, zero");
    800013e4:	12000073          	sfence.vma

  // flush stale entries from the TLB.
  sfence_vma();
}
    800013e8:	6422                	ld	s0,8(sp)
    800013ea:	0141                	add	sp,sp,16
    800013ec:	8082                	ret

00000000800013ee <walk>:
//   21..29 -- 9 bits of level-1 index.
//   12..20 -- 9 bits of level-0 index.
//    0..11 -- 12 bits of byte offset within the page.
pte_t *
walk(pagetable_t pagetable, uint64 va, int alloc)
{
    800013ee:	7139                	add	sp,sp,-64
    800013f0:	fc06                	sd	ra,56(sp)
    800013f2:	f822                	sd	s0,48(sp)
    800013f4:	f426                	sd	s1,40(sp)
    800013f6:	f04a                	sd	s2,32(sp)
    800013f8:	ec4e                	sd	s3,24(sp)
    800013fa:	e852                	sd	s4,16(sp)
    800013fc:	e456                	sd	s5,8(sp)
    800013fe:	e05a                	sd	s6,0(sp)
    80001400:	0080                	add	s0,sp,64
    80001402:	84aa                	mv	s1,a0
    80001404:	89ae                	mv	s3,a1
    80001406:	8ab2                	mv	s5,a2
  if(va >= MAXVA)
    80001408:	57fd                	li	a5,-1
    8000140a:	83e9                	srl	a5,a5,0x1a
    8000140c:	4a79                	li	s4,30
    panic("walk");

  for(int level = 2; level > 0; level--) {
    8000140e:	4b31                	li	s6,12
  if(va >= MAXVA)
    80001410:	02b7fc63          	bgeu	a5,a1,80001448 <walk+0x5a>
    panic("walk");
    80001414:	0000d517          	auipc	a0,0xd
    80001418:	d2450513          	add	a0,a0,-732 # 8000e138 <IP_ADDR_ANY+0x11c>
    8000141c:	c10ff0ef          	jal	8000082c <panic>
    pte_t *pte = &pagetable[PX(level, va)];
    if(*pte & PTE_V) {
      pagetable = (pagetable_t)PTE2PA(*pte);
    } else {
      if(!alloc || (pagetable = (pde_t*)kalloc()) == 0)
    80001420:	060a8263          	beqz	s5,80001484 <walk+0x96>
    80001424:	b77ff0ef          	jal	80000f9a <kalloc>
    80001428:	84aa                	mv	s1,a0
    8000142a:	c139                	beqz	a0,80001470 <walk+0x82>
        return 0;
      memset(pagetable, 0, PGSIZE);
    8000142c:	6605                	lui	a2,0x1
    8000142e:	4581                	li	a1,0
    80001430:	d0fff0ef          	jal	8000113e <memset>
      *pte = PA2PTE(pagetable) | PTE_V;
    80001434:	00c4d793          	srl	a5,s1,0xc
    80001438:	07aa                	sll	a5,a5,0xa
    8000143a:	0017e793          	or	a5,a5,1
    8000143e:	00f93023          	sd	a5,0(s2)
  for(int level = 2; level > 0; level--) {
    80001442:	3a5d                	addw	s4,s4,-9 # ffffffffffffeff7 <end+0xffffffff7feccab7>
    80001444:	036a0063          	beq	s4,s6,80001464 <walk+0x76>
    pte_t *pte = &pagetable[PX(level, va)];
    80001448:	0149d933          	srl	s2,s3,s4
    8000144c:	1ff97913          	and	s2,s2,511
    80001450:	090e                	sll	s2,s2,0x3
    80001452:	9926                	add	s2,s2,s1
    if(*pte & PTE_V) {
    80001454:	00093483          	ld	s1,0(s2)
    80001458:	0014f793          	and	a5,s1,1
    8000145c:	d3f1                	beqz	a5,80001420 <walk+0x32>
      pagetable = (pagetable_t)PTE2PA(*pte);
    8000145e:	80a9                	srl	s1,s1,0xa
    80001460:	04b2                	sll	s1,s1,0xc
    80001462:	b7c5                	j	80001442 <walk+0x54>
    }
  }
  return &pagetable[PX(0, va)];
    80001464:	00c9d513          	srl	a0,s3,0xc
    80001468:	1ff57513          	and	a0,a0,511
    8000146c:	050e                	sll	a0,a0,0x3
    8000146e:	9526                	add	a0,a0,s1
}
    80001470:	70e2                	ld	ra,56(sp)
    80001472:	7442                	ld	s0,48(sp)
    80001474:	74a2                	ld	s1,40(sp)
    80001476:	7902                	ld	s2,32(sp)
    80001478:	69e2                	ld	s3,24(sp)
    8000147a:	6a42                	ld	s4,16(sp)
    8000147c:	6aa2                	ld	s5,8(sp)
    8000147e:	6b02                	ld	s6,0(sp)
    80001480:	6121                	add	sp,sp,64
    80001482:	8082                	ret
        return 0;
    80001484:	4501                	li	a0,0
    80001486:	b7ed                	j	80001470 <walk+0x82>

0000000080001488 <walkaddr>:
walkaddr(pagetable_t pagetable, uint64 va)
{
  pte_t *pte;
  uint64 pa;

  if(va >= MAXVA)
    80001488:	57fd                	li	a5,-1
    8000148a:	83e9                	srl	a5,a5,0x1a
    8000148c:	00b7f463          	bgeu	a5,a1,80001494 <walkaddr+0xc>
    return 0;
    80001490:	4501                	li	a0,0
    return 0;
  if((*pte & PTE_U) == 0)
    return 0;
  pa = PTE2PA(*pte);
  return pa;
}
    80001492:	8082                	ret
{
    80001494:	1141                	add	sp,sp,-16
    80001496:	e406                	sd	ra,8(sp)
    80001498:	e022                	sd	s0,0(sp)
    8000149a:	0800                	add	s0,sp,16
  pte = walk(pagetable, va, 0);
    8000149c:	4601                	li	a2,0
    8000149e:	f51ff0ef          	jal	800013ee <walk>
  if(pte == 0)
    800014a2:	c105                	beqz	a0,800014c2 <walkaddr+0x3a>
  if((*pte & PTE_V) == 0)
    800014a4:	611c                	ld	a5,0(a0)
  if((*pte & PTE_U) == 0)
    800014a6:	0117f693          	and	a3,a5,17
    800014aa:	4745                	li	a4,17
    return 0;
    800014ac:	4501                	li	a0,0
  if((*pte & PTE_U) == 0)
    800014ae:	00e68663          	beq	a3,a4,800014ba <walkaddr+0x32>
}
    800014b2:	60a2                	ld	ra,8(sp)
    800014b4:	6402                	ld	s0,0(sp)
    800014b6:	0141                	add	sp,sp,16
    800014b8:	8082                	ret
  pa = PTE2PA(*pte);
    800014ba:	83a9                	srl	a5,a5,0xa
    800014bc:	00c79513          	sll	a0,a5,0xc
  return pa;
    800014c0:	bfcd                	j	800014b2 <walkaddr+0x2a>
    return 0;
    800014c2:	4501                	li	a0,0
    800014c4:	b7fd                	j	800014b2 <walkaddr+0x2a>

00000000800014c6 <mappages>:
// va and size MUST be page-aligned.
// Returns 0 on success, -1 if walk() couldn't
// allocate a needed page-table page.
int
mappages(pagetable_t pagetable, uint64 va, uint64 size, uint64 pa, int perm)
{
    800014c6:	715d                	add	sp,sp,-80
    800014c8:	e486                	sd	ra,72(sp)
    800014ca:	e0a2                	sd	s0,64(sp)
    800014cc:	fc26                	sd	s1,56(sp)
    800014ce:	f84a                	sd	s2,48(sp)
    800014d0:	f44e                	sd	s3,40(sp)
    800014d2:	f052                	sd	s4,32(sp)
    800014d4:	ec56                	sd	s5,24(sp)
    800014d6:	e85a                	sd	s6,16(sp)
    800014d8:	e45e                	sd	s7,8(sp)
    800014da:	0880                	add	s0,sp,80
  uint64 a, last;
  pte_t *pte;

  if((va % PGSIZE) != 0)
    800014dc:	03459793          	sll	a5,a1,0x34
    800014e0:	e7a9                	bnez	a5,8000152a <mappages+0x64>
    800014e2:	8aaa                	mv	s5,a0
    800014e4:	8b3a                	mv	s6,a4
    panic("mappages: va not aligned");

  if((size % PGSIZE) != 0)
    800014e6:	03461793          	sll	a5,a2,0x34
    800014ea:	e7b1                	bnez	a5,80001536 <mappages+0x70>
    panic("mappages: size not aligned");

  if(size == 0)
    800014ec:	ca39                	beqz	a2,80001542 <mappages+0x7c>
    panic("mappages: size");
  
  a = va;
  last = va + size - PGSIZE;
    800014ee:	77fd                	lui	a5,0xfffff
    800014f0:	963e                	add	a2,a2,a5
    800014f2:	00b609b3          	add	s3,a2,a1
  a = va;
    800014f6:	892e                	mv	s2,a1
    800014f8:	40b68a33          	sub	s4,a3,a1
    if(*pte & PTE_V)
      panic("mappages: remap");
    *pte = PA2PTE(pa) | perm | PTE_V;
    if(a == last)
      break;
    a += PGSIZE;
    800014fc:	6b85                	lui	s7,0x1
    800014fe:	014904b3          	add	s1,s2,s4
    if((pte = walk(pagetable, a, 1)) == 0)
    80001502:	4605                	li	a2,1
    80001504:	85ca                	mv	a1,s2
    80001506:	8556                	mv	a0,s5
    80001508:	ee7ff0ef          	jal	800013ee <walk>
    8000150c:	c539                	beqz	a0,8000155a <mappages+0x94>
    if(*pte & PTE_V)
    8000150e:	611c                	ld	a5,0(a0)
    80001510:	8b85                	and	a5,a5,1
    80001512:	ef95                	bnez	a5,8000154e <mappages+0x88>
    *pte = PA2PTE(pa) | perm | PTE_V;
    80001514:	80b1                	srl	s1,s1,0xc
    80001516:	04aa                	sll	s1,s1,0xa
    80001518:	0164e4b3          	or	s1,s1,s6
    8000151c:	0014e493          	or	s1,s1,1
    80001520:	e104                	sd	s1,0(a0)
    if(a == last)
    80001522:	05390863          	beq	s2,s3,80001572 <mappages+0xac>
    a += PGSIZE;
    80001526:	995e                	add	s2,s2,s7
    if((pte = walk(pagetable, a, 1)) == 0)
    80001528:	bfd9                	j	800014fe <mappages+0x38>
    panic("mappages: va not aligned");
    8000152a:	0000d517          	auipc	a0,0xd
    8000152e:	c1650513          	add	a0,a0,-1002 # 8000e140 <IP_ADDR_ANY+0x124>
    80001532:	afaff0ef          	jal	8000082c <panic>
    panic("mappages: size not aligned");
    80001536:	0000d517          	auipc	a0,0xd
    8000153a:	c2a50513          	add	a0,a0,-982 # 8000e160 <IP_ADDR_ANY+0x144>
    8000153e:	aeeff0ef          	jal	8000082c <panic>
    panic("mappages: size");
    80001542:	0000d517          	auipc	a0,0xd
    80001546:	c3e50513          	add	a0,a0,-962 # 8000e180 <IP_ADDR_ANY+0x164>
    8000154a:	ae2ff0ef          	jal	8000082c <panic>
      panic("mappages: remap");
    8000154e:	0000d517          	auipc	a0,0xd
    80001552:	c4250513          	add	a0,a0,-958 # 8000e190 <IP_ADDR_ANY+0x174>
    80001556:	ad6ff0ef          	jal	8000082c <panic>
      return -1;
    8000155a:	557d                	li	a0,-1
    pa += PGSIZE;
  }
  return 0;
}
    8000155c:	60a6                	ld	ra,72(sp)
    8000155e:	6406                	ld	s0,64(sp)
    80001560:	74e2                	ld	s1,56(sp)
    80001562:	7942                	ld	s2,48(sp)
    80001564:	79a2                	ld	s3,40(sp)
    80001566:	7a02                	ld	s4,32(sp)
    80001568:	6ae2                	ld	s5,24(sp)
    8000156a:	6b42                	ld	s6,16(sp)
    8000156c:	6ba2                	ld	s7,8(sp)
    8000156e:	6161                	add	sp,sp,80
    80001570:	8082                	ret
  return 0;
    80001572:	4501                	li	a0,0
    80001574:	b7e5                	j	8000155c <mappages+0x96>

0000000080001576 <kvmmap>:
{
    80001576:	1141                	add	sp,sp,-16
    80001578:	e406                	sd	ra,8(sp)
    8000157a:	e022                	sd	s0,0(sp)
    8000157c:	0800                	add	s0,sp,16
    8000157e:	87b6                	mv	a5,a3
  if(mappages(kpgtbl, va, sz, pa, perm) != 0)
    80001580:	86b2                	mv	a3,a2
    80001582:	863e                	mv	a2,a5
    80001584:	f43ff0ef          	jal	800014c6 <mappages>
    80001588:	e509                	bnez	a0,80001592 <kvmmap+0x1c>
}
    8000158a:	60a2                	ld	ra,8(sp)
    8000158c:	6402                	ld	s0,0(sp)
    8000158e:	0141                	add	sp,sp,16
    80001590:	8082                	ret
    panic("kvmmap");
    80001592:	0000d517          	auipc	a0,0xd
    80001596:	c0e50513          	add	a0,a0,-1010 # 8000e1a0 <IP_ADDR_ANY+0x184>
    8000159a:	a92ff0ef          	jal	8000082c <panic>

000000008000159e <kvmmake>:
{
    8000159e:	1101                	add	sp,sp,-32
    800015a0:	ec06                	sd	ra,24(sp)
    800015a2:	e822                	sd	s0,16(sp)
    800015a4:	e426                	sd	s1,8(sp)
    800015a6:	e04a                	sd	s2,0(sp)
    800015a8:	1000                	add	s0,sp,32
  kpgtbl = (pagetable_t) kalloc();
    800015aa:	9f1ff0ef          	jal	80000f9a <kalloc>
    800015ae:	84aa                	mv	s1,a0
  memset(kpgtbl, 0, PGSIZE);
    800015b0:	6605                	lui	a2,0x1
    800015b2:	4581                	li	a1,0
    800015b4:	b8bff0ef          	jal	8000113e <memset>
  kvmmap(kpgtbl, UART0, UART0, PGSIZE, PTE_R | PTE_W);
    800015b8:	4719                	li	a4,6
    800015ba:	6685                	lui	a3,0x1
    800015bc:	10000637          	lui	a2,0x10000
    800015c0:	100005b7          	lui	a1,0x10000
    800015c4:	8526                	mv	a0,s1
    800015c6:	fb1ff0ef          	jal	80001576 <kvmmap>
  kvmmap(kpgtbl, VIRTIO0, VIRTIO0, PGSIZE, PTE_R | PTE_W);
    800015ca:	4719                	li	a4,6
    800015cc:	6685                	lui	a3,0x1
    800015ce:	10001637          	lui	a2,0x10001
    800015d2:	100015b7          	lui	a1,0x10001
    800015d6:	8526                	mv	a0,s1
    800015d8:	f9fff0ef          	jal	80001576 <kvmmap>
  kvmmap(kpgtbl, VIRTIO1, VIRTIO1, PGSIZE, PTE_R | PTE_W);
    800015dc:	4719                	li	a4,6
    800015de:	6685                	lui	a3,0x1
    800015e0:	10002637          	lui	a2,0x10002
    800015e4:	100025b7          	lui	a1,0x10002
    800015e8:	8526                	mv	a0,s1
    800015ea:	f8dff0ef          	jal	80001576 <kvmmap>
  kvmmap(kpgtbl, PLIC, PLIC, 0x4000000, PTE_R | PTE_W);
    800015ee:	4719                	li	a4,6
    800015f0:	040006b7          	lui	a3,0x4000
    800015f4:	0c000637          	lui	a2,0xc000
    800015f8:	0c0005b7          	lui	a1,0xc000
    800015fc:	8526                	mv	a0,s1
    800015fe:	f79ff0ef          	jal	80001576 <kvmmap>
  kvmmap(kpgtbl, KERNBASE, KERNBASE, (uint64)etext-KERNBASE, PTE_R | PTE_X);
    80001602:	0000d917          	auipc	s2,0xd
    80001606:	9fe90913          	add	s2,s2,-1538 # 8000e000 <etext>
    8000160a:	4729                	li	a4,10
    8000160c:	8000d697          	auipc	a3,0x8000d
    80001610:	9f468693          	add	a3,a3,-1548 # e000 <_entry-0x7fff2000>
    80001614:	4605                	li	a2,1
    80001616:	067e                	sll	a2,a2,0x1f
    80001618:	85b2                	mv	a1,a2
    8000161a:	8526                	mv	a0,s1
    8000161c:	f5bff0ef          	jal	80001576 <kvmmap>
  kvmmap(kpgtbl, (uint64)etext, (uint64)etext, PHYSTOP-(uint64)etext, PTE_R | PTE_W);
    80001620:	46c5                	li	a3,17
    80001622:	06ee                	sll	a3,a3,0x1b
    80001624:	4719                	li	a4,6
    80001626:	412686b3          	sub	a3,a3,s2
    8000162a:	864a                	mv	a2,s2
    8000162c:	85ca                	mv	a1,s2
    8000162e:	8526                	mv	a0,s1
    80001630:	f47ff0ef          	jal	80001576 <kvmmap>
  kvmmap(kpgtbl, TRAMPOLINE, (uint64)trampoline, PGSIZE, PTE_R | PTE_X);
    80001634:	4729                	li	a4,10
    80001636:	6685                	lui	a3,0x1
    80001638:	0000c617          	auipc	a2,0xc
    8000163c:	9c860613          	add	a2,a2,-1592 # 8000d000 <_trampoline>
    80001640:	040005b7          	lui	a1,0x4000
    80001644:	15fd                	add	a1,a1,-1 # 3ffffff <_entry-0x7c000001>
    80001646:	05b2                	sll	a1,a1,0xc
    80001648:	8526                	mv	a0,s1
    8000164a:	f2dff0ef          	jal	80001576 <kvmmap>
  proc_mapstacks(kpgtbl);
    8000164e:	8526                	mv	a0,s1
    80001650:	5ee000ef          	jal	80001c3e <proc_mapstacks>
}
    80001654:	8526                	mv	a0,s1
    80001656:	60e2                	ld	ra,24(sp)
    80001658:	6442                	ld	s0,16(sp)
    8000165a:	64a2                	ld	s1,8(sp)
    8000165c:	6902                	ld	s2,0(sp)
    8000165e:	6105                	add	sp,sp,32
    80001660:	8082                	ret

0000000080001662 <kvminit>:
{
    80001662:	1141                	add	sp,sp,-16
    80001664:	e406                	sd	ra,8(sp)
    80001666:	e022                	sd	s0,0(sp)
    80001668:	0800                	add	s0,sp,16
  kernel_pagetable = kvmmake();
    8000166a:	f35ff0ef          	jal	8000159e <kvmmake>
    8000166e:	0000f797          	auipc	a5,0xf
    80001672:	84a7b523          	sd	a0,-1974(a5) # 8000feb8 <kernel_pagetable>
}
    80001676:	60a2                	ld	ra,8(sp)
    80001678:	6402                	ld	s0,0(sp)
    8000167a:	0141                	add	sp,sp,16
    8000167c:	8082                	ret

000000008000167e <uvmcreate>:

// create an empty user page table.
// returns 0 if out of memory.
pagetable_t
uvmcreate()
{
    8000167e:	1101                	add	sp,sp,-32
    80001680:	ec06                	sd	ra,24(sp)
    80001682:	e822                	sd	s0,16(sp)
    80001684:	e426                	sd	s1,8(sp)
    80001686:	1000                	add	s0,sp,32
  pagetable_t pagetable;
  pagetable = (pagetable_t) kalloc();
    80001688:	913ff0ef          	jal	80000f9a <kalloc>
    8000168c:	84aa                	mv	s1,a0
  if(pagetable == 0)
    8000168e:	c509                	beqz	a0,80001698 <uvmcreate+0x1a>
    return 0;
  memset(pagetable, 0, PGSIZE);
    80001690:	6605                	lui	a2,0x1
    80001692:	4581                	li	a1,0
    80001694:	aabff0ef          	jal	8000113e <memset>
  return pagetable;
}
    80001698:	8526                	mv	a0,s1
    8000169a:	60e2                	ld	ra,24(sp)
    8000169c:	6442                	ld	s0,16(sp)
    8000169e:	64a2                	ld	s1,8(sp)
    800016a0:	6105                	add	sp,sp,32
    800016a2:	8082                	ret

00000000800016a4 <uvmunmap>:
// Remove npages of mappings starting from va. va must be
// page-aligned. It's OK if the mappings don't exist.
// Optionally free the physical memory.
void
uvmunmap(pagetable_t pagetable, uint64 va, uint64 npages, int do_free)
{
    800016a4:	7139                	add	sp,sp,-64
    800016a6:	fc06                	sd	ra,56(sp)
    800016a8:	f822                	sd	s0,48(sp)
    800016aa:	0080                	add	s0,sp,64
  uint64 a;
  pte_t *pte;

  if((va % PGSIZE) != 0)
    800016ac:	03459793          	sll	a5,a1,0x34
    800016b0:	e38d                	bnez	a5,800016d2 <uvmunmap+0x2e>
    800016b2:	f04a                	sd	s2,32(sp)
    800016b4:	ec4e                	sd	s3,24(sp)
    800016b6:	e852                	sd	s4,16(sp)
    800016b8:	e456                	sd	s5,8(sp)
    800016ba:	e05a                	sd	s6,0(sp)
    800016bc:	8a2a                	mv	s4,a0
    800016be:	892e                	mv	s2,a1
    800016c0:	8ab6                	mv	s5,a3
    panic("uvmunmap: not aligned");

  for(a = va; a < va + npages*PGSIZE; a += PGSIZE){
    800016c2:	0632                	sll	a2,a2,0xc
    800016c4:	00b609b3          	add	s3,a2,a1
    800016c8:	6b05                	lui	s6,0x1
    800016ca:	0535f963          	bgeu	a1,s3,8000171c <uvmunmap+0x78>
    800016ce:	f426                	sd	s1,40(sp)
    800016d0:	a015                	j	800016f4 <uvmunmap+0x50>
    800016d2:	f426                	sd	s1,40(sp)
    800016d4:	f04a                	sd	s2,32(sp)
    800016d6:	ec4e                	sd	s3,24(sp)
    800016d8:	e852                	sd	s4,16(sp)
    800016da:	e456                	sd	s5,8(sp)
    800016dc:	e05a                	sd	s6,0(sp)
    panic("uvmunmap: not aligned");
    800016de:	0000d517          	auipc	a0,0xd
    800016e2:	aca50513          	add	a0,a0,-1334 # 8000e1a8 <IP_ADDR_ANY+0x18c>
    800016e6:	946ff0ef          	jal	8000082c <panic>
      continue;
    if(do_free){
      uint64 pa = PTE2PA(*pte);
      kfree((void*)pa);
    }
    *pte = 0;
    800016ea:	0004b023          	sd	zero,0(s1)
  for(a = va; a < va + npages*PGSIZE; a += PGSIZE){
    800016ee:	995a                	add	s2,s2,s6
    800016f0:	03397563          	bgeu	s2,s3,8000171a <uvmunmap+0x76>
    if((pte = walk(pagetable, a, 0)) == 0) // leaf page table entry allocated?
    800016f4:	4601                	li	a2,0
    800016f6:	85ca                	mv	a1,s2
    800016f8:	8552                	mv	a0,s4
    800016fa:	cf5ff0ef          	jal	800013ee <walk>
    800016fe:	84aa                	mv	s1,a0
    80001700:	d57d                	beqz	a0,800016ee <uvmunmap+0x4a>
    if((*pte & PTE_V) == 0)  // has physical page been allocated?
    80001702:	611c                	ld	a5,0(a0)
    80001704:	0017f713          	and	a4,a5,1
    80001708:	d37d                	beqz	a4,800016ee <uvmunmap+0x4a>
    if(do_free){
    8000170a:	fe0a80e3          	beqz	s5,800016ea <uvmunmap+0x46>
      uint64 pa = PTE2PA(*pte);
    8000170e:	83a9                	srl	a5,a5,0xa
      kfree((void*)pa);
    80001710:	00c79513          	sll	a0,a5,0xc
    80001714:	fa4ff0ef          	jal	80000eb8 <kfree>
    80001718:	bfc9                	j	800016ea <uvmunmap+0x46>
    8000171a:	74a2                	ld	s1,40(sp)
    8000171c:	7902                	ld	s2,32(sp)
    8000171e:	69e2                	ld	s3,24(sp)
    80001720:	6a42                	ld	s4,16(sp)
    80001722:	6aa2                	ld	s5,8(sp)
    80001724:	6b02                	ld	s6,0(sp)
  }
}
    80001726:	70e2                	ld	ra,56(sp)
    80001728:	7442                	ld	s0,48(sp)
    8000172a:	6121                	add	sp,sp,64
    8000172c:	8082                	ret

000000008000172e <uvmdealloc>:
// newsz.  oldsz and newsz need not be page-aligned, nor does newsz
// need to be less than oldsz.  oldsz can be larger than the actual
// process size.  Returns the new process size.
uint64
uvmdealloc(pagetable_t pagetable, uint64 oldsz, uint64 newsz)
{
    8000172e:	1101                	add	sp,sp,-32
    80001730:	ec06                	sd	ra,24(sp)
    80001732:	e822                	sd	s0,16(sp)
    80001734:	e426                	sd	s1,8(sp)
    80001736:	1000                	add	s0,sp,32
  if(newsz >= oldsz)
    return oldsz;
    80001738:	84ae                	mv	s1,a1
  if(newsz >= oldsz)
    8000173a:	00b67d63          	bgeu	a2,a1,80001754 <uvmdealloc+0x26>
    8000173e:	84b2                	mv	s1,a2

  if(PGROUNDUP(newsz) < PGROUNDUP(oldsz)){
    80001740:	6785                	lui	a5,0x1
    80001742:	17fd                	add	a5,a5,-1 # fff <_entry-0x7ffff001>
    80001744:	00f60733          	add	a4,a2,a5
    80001748:	76fd                	lui	a3,0xfffff
    8000174a:	8f75                	and	a4,a4,a3
    8000174c:	97ae                	add	a5,a5,a1
    8000174e:	8ff5                	and	a5,a5,a3
    80001750:	00f76863          	bltu	a4,a5,80001760 <uvmdealloc+0x32>
    int npages = (PGROUNDUP(oldsz) - PGROUNDUP(newsz)) / PGSIZE;
    uvmunmap(pagetable, PGROUNDUP(newsz), npages, 1);
  }

  return newsz;
}
    80001754:	8526                	mv	a0,s1
    80001756:	60e2                	ld	ra,24(sp)
    80001758:	6442                	ld	s0,16(sp)
    8000175a:	64a2                	ld	s1,8(sp)
    8000175c:	6105                	add	sp,sp,32
    8000175e:	8082                	ret
    int npages = (PGROUNDUP(oldsz) - PGROUNDUP(newsz)) / PGSIZE;
    80001760:	8f99                	sub	a5,a5,a4
    80001762:	83b1                	srl	a5,a5,0xc
    uvmunmap(pagetable, PGROUNDUP(newsz), npages, 1);
    80001764:	4685                	li	a3,1
    80001766:	0007861b          	sext.w	a2,a5
    8000176a:	85ba                	mv	a1,a4
    8000176c:	f39ff0ef          	jal	800016a4 <uvmunmap>
    80001770:	b7d5                	j	80001754 <uvmdealloc+0x26>

0000000080001772 <uvmalloc>:
  if(newsz < oldsz)
    80001772:	08b66f63          	bltu	a2,a1,80001810 <uvmalloc+0x9e>
{
    80001776:	7139                	add	sp,sp,-64
    80001778:	fc06                	sd	ra,56(sp)
    8000177a:	f822                	sd	s0,48(sp)
    8000177c:	ec4e                	sd	s3,24(sp)
    8000177e:	e852                	sd	s4,16(sp)
    80001780:	e456                	sd	s5,8(sp)
    80001782:	0080                	add	s0,sp,64
    80001784:	8aaa                	mv	s5,a0
    80001786:	8a32                	mv	s4,a2
  oldsz = PGROUNDUP(oldsz);
    80001788:	6785                	lui	a5,0x1
    8000178a:	17fd                	add	a5,a5,-1 # fff <_entry-0x7ffff001>
    8000178c:	95be                	add	a1,a1,a5
    8000178e:	77fd                	lui	a5,0xfffff
    80001790:	00f5f9b3          	and	s3,a1,a5
  for(a = oldsz; a < newsz; a += PGSIZE){
    80001794:	08c9f063          	bgeu	s3,a2,80001814 <uvmalloc+0xa2>
    80001798:	f426                	sd	s1,40(sp)
    8000179a:	f04a                	sd	s2,32(sp)
    8000179c:	e05a                	sd	s6,0(sp)
    8000179e:	894e                	mv	s2,s3
    if(mappages(pagetable, a, PGSIZE, (uint64)mem, PTE_R|PTE_U|xperm) != 0){
    800017a0:	0126eb13          	or	s6,a3,18
    mem = kalloc();
    800017a4:	ff6ff0ef          	jal	80000f9a <kalloc>
    800017a8:	84aa                	mv	s1,a0
    if(mem == 0){
    800017aa:	c515                	beqz	a0,800017d6 <uvmalloc+0x64>
    memset(mem, 0, PGSIZE);
    800017ac:	6605                	lui	a2,0x1
    800017ae:	4581                	li	a1,0
    800017b0:	98fff0ef          	jal	8000113e <memset>
    if(mappages(pagetable, a, PGSIZE, (uint64)mem, PTE_R|PTE_U|xperm) != 0){
    800017b4:	875a                	mv	a4,s6
    800017b6:	86a6                	mv	a3,s1
    800017b8:	6605                	lui	a2,0x1
    800017ba:	85ca                	mv	a1,s2
    800017bc:	8556                	mv	a0,s5
    800017be:	d09ff0ef          	jal	800014c6 <mappages>
    800017c2:	e915                	bnez	a0,800017f6 <uvmalloc+0x84>
  for(a = oldsz; a < newsz; a += PGSIZE){
    800017c4:	6785                	lui	a5,0x1
    800017c6:	993e                	add	s2,s2,a5
    800017c8:	fd496ee3          	bltu	s2,s4,800017a4 <uvmalloc+0x32>
  return newsz;
    800017cc:	8552                	mv	a0,s4
    800017ce:	74a2                	ld	s1,40(sp)
    800017d0:	7902                	ld	s2,32(sp)
    800017d2:	6b02                	ld	s6,0(sp)
    800017d4:	a811                	j	800017e8 <uvmalloc+0x76>
      uvmdealloc(pagetable, a, oldsz);
    800017d6:	864e                	mv	a2,s3
    800017d8:	85ca                	mv	a1,s2
    800017da:	8556                	mv	a0,s5
    800017dc:	f53ff0ef          	jal	8000172e <uvmdealloc>
      return 0;
    800017e0:	4501                	li	a0,0
    800017e2:	74a2                	ld	s1,40(sp)
    800017e4:	7902                	ld	s2,32(sp)
    800017e6:	6b02                	ld	s6,0(sp)
}
    800017e8:	70e2                	ld	ra,56(sp)
    800017ea:	7442                	ld	s0,48(sp)
    800017ec:	69e2                	ld	s3,24(sp)
    800017ee:	6a42                	ld	s4,16(sp)
    800017f0:	6aa2                	ld	s5,8(sp)
    800017f2:	6121                	add	sp,sp,64
    800017f4:	8082                	ret
      kfree(mem);
    800017f6:	8526                	mv	a0,s1
    800017f8:	ec0ff0ef          	jal	80000eb8 <kfree>
      uvmdealloc(pagetable, a, oldsz);
    800017fc:	864e                	mv	a2,s3
    800017fe:	85ca                	mv	a1,s2
    80001800:	8556                	mv	a0,s5
    80001802:	f2dff0ef          	jal	8000172e <uvmdealloc>
      return 0;
    80001806:	4501                	li	a0,0
    80001808:	74a2                	ld	s1,40(sp)
    8000180a:	7902                	ld	s2,32(sp)
    8000180c:	6b02                	ld	s6,0(sp)
    8000180e:	bfe9                	j	800017e8 <uvmalloc+0x76>
    return oldsz;
    80001810:	852e                	mv	a0,a1
}
    80001812:	8082                	ret
  return newsz;
    80001814:	8532                	mv	a0,a2
    80001816:	bfc9                	j	800017e8 <uvmalloc+0x76>

0000000080001818 <freewalk>:

// Recursively free page-table pages.
// All leaf mappings must already have been removed.
void
freewalk(pagetable_t pagetable)
{
    80001818:	7179                	add	sp,sp,-48
    8000181a:	f406                	sd	ra,40(sp)
    8000181c:	f022                	sd	s0,32(sp)
    8000181e:	ec26                	sd	s1,24(sp)
    80001820:	e84a                	sd	s2,16(sp)
    80001822:	e44e                	sd	s3,8(sp)
    80001824:	e052                	sd	s4,0(sp)
    80001826:	1800                	add	s0,sp,48
    80001828:	8a2a                	mv	s4,a0
  // there are 2^9 = 512 PTEs in a page table.
  for(int i = 0; i < 512; i++){
    8000182a:	84aa                	mv	s1,a0
    8000182c:	6905                	lui	s2,0x1
    8000182e:	992a                	add	s2,s2,a0
    pte_t pte = pagetable[i];
    if((pte & PTE_V) && (pte & (PTE_R|PTE_W|PTE_X)) == 0){
    80001830:	4985                	li	s3,1
    80001832:	a819                	j	80001848 <freewalk+0x30>
      // this PTE points to a lower-level page table.
      uint64 child = PTE2PA(pte);
    80001834:	83a9                	srl	a5,a5,0xa
      freewalk((pagetable_t)child);
    80001836:	00c79513          	sll	a0,a5,0xc
    8000183a:	fdfff0ef          	jal	80001818 <freewalk>
      pagetable[i] = 0;
    8000183e:	0004b023          	sd	zero,0(s1)
  for(int i = 0; i < 512; i++){
    80001842:	04a1                	add	s1,s1,8
    80001844:	01248f63          	beq	s1,s2,80001862 <freewalk+0x4a>
    pte_t pte = pagetable[i];
    80001848:	609c                	ld	a5,0(s1)
    if((pte & PTE_V) && (pte & (PTE_R|PTE_W|PTE_X)) == 0){
    8000184a:	00f7f713          	and	a4,a5,15
    8000184e:	ff3703e3          	beq	a4,s3,80001834 <freewalk+0x1c>
    } else if(pte & PTE_V){
    80001852:	8b85                	and	a5,a5,1
    80001854:	d7fd                	beqz	a5,80001842 <freewalk+0x2a>
      panic("freewalk: leaf");
    80001856:	0000d517          	auipc	a0,0xd
    8000185a:	96a50513          	add	a0,a0,-1686 # 8000e1c0 <IP_ADDR_ANY+0x1a4>
    8000185e:	fcffe0ef          	jal	8000082c <panic>
    }
  }
  kfree((void*)pagetable);
    80001862:	8552                	mv	a0,s4
    80001864:	e54ff0ef          	jal	80000eb8 <kfree>
}
    80001868:	70a2                	ld	ra,40(sp)
    8000186a:	7402                	ld	s0,32(sp)
    8000186c:	64e2                	ld	s1,24(sp)
    8000186e:	6942                	ld	s2,16(sp)
    80001870:	69a2                	ld	s3,8(sp)
    80001872:	6a02                	ld	s4,0(sp)
    80001874:	6145                	add	sp,sp,48
    80001876:	8082                	ret

0000000080001878 <uvmfree>:

// Free user memory pages,
// then free page-table pages.
void
uvmfree(pagetable_t pagetable, uint64 sz)
{
    80001878:	1101                	add	sp,sp,-32
    8000187a:	ec06                	sd	ra,24(sp)
    8000187c:	e822                	sd	s0,16(sp)
    8000187e:	e426                	sd	s1,8(sp)
    80001880:	1000                	add	s0,sp,32
    80001882:	84aa                	mv	s1,a0
  if(sz > 0)
    80001884:	e989                	bnez	a1,80001896 <uvmfree+0x1e>
    uvmunmap(pagetable, 0, PGROUNDUP(sz)/PGSIZE, 1);
  freewalk(pagetable);
    80001886:	8526                	mv	a0,s1
    80001888:	f91ff0ef          	jal	80001818 <freewalk>
}
    8000188c:	60e2                	ld	ra,24(sp)
    8000188e:	6442                	ld	s0,16(sp)
    80001890:	64a2                	ld	s1,8(sp)
    80001892:	6105                	add	sp,sp,32
    80001894:	8082                	ret
    uvmunmap(pagetable, 0, PGROUNDUP(sz)/PGSIZE, 1);
    80001896:	6785                	lui	a5,0x1
    80001898:	17fd                	add	a5,a5,-1 # fff <_entry-0x7ffff001>
    8000189a:	95be                	add	a1,a1,a5
    8000189c:	4685                	li	a3,1
    8000189e:	00c5d613          	srl	a2,a1,0xc
    800018a2:	4581                	li	a1,0
    800018a4:	e01ff0ef          	jal	800016a4 <uvmunmap>
    800018a8:	bff9                	j	80001886 <uvmfree+0xe>

00000000800018aa <uvmcopy>:
  pte_t *pte;
  uint64 pa, i;
  uint flags;
  char *mem;

  for(i = 0; i < sz; i += PGSIZE){
    800018aa:	ce49                	beqz	a2,80001944 <uvmcopy+0x9a>
{
    800018ac:	715d                	add	sp,sp,-80
    800018ae:	e486                	sd	ra,72(sp)
    800018b0:	e0a2                	sd	s0,64(sp)
    800018b2:	fc26                	sd	s1,56(sp)
    800018b4:	f84a                	sd	s2,48(sp)
    800018b6:	f44e                	sd	s3,40(sp)
    800018b8:	f052                	sd	s4,32(sp)
    800018ba:	ec56                	sd	s5,24(sp)
    800018bc:	e85a                	sd	s6,16(sp)
    800018be:	e45e                	sd	s7,8(sp)
    800018c0:	0880                	add	s0,sp,80
    800018c2:	8aaa                	mv	s5,a0
    800018c4:	8b2e                	mv	s6,a1
    800018c6:	8a32                	mv	s4,a2
  for(i = 0; i < sz; i += PGSIZE){
    800018c8:	4481                	li	s1,0
    800018ca:	a029                	j	800018d4 <uvmcopy+0x2a>
    800018cc:	6785                	lui	a5,0x1
    800018ce:	94be                	add	s1,s1,a5
    800018d0:	0544fe63          	bgeu	s1,s4,8000192c <uvmcopy+0x82>
    if((pte = walk(old, i, 0)) == 0)
    800018d4:	4601                	li	a2,0
    800018d6:	85a6                	mv	a1,s1
    800018d8:	8556                	mv	a0,s5
    800018da:	b15ff0ef          	jal	800013ee <walk>
    800018de:	d57d                	beqz	a0,800018cc <uvmcopy+0x22>
      continue;   // page table entry hasn't been allocated
    if((*pte & PTE_V) == 0)
    800018e0:	6118                	ld	a4,0(a0)
    800018e2:	00177793          	and	a5,a4,1
    800018e6:	d3fd                	beqz	a5,800018cc <uvmcopy+0x22>
      continue;   // physical page hasn't been allocated
    pa = PTE2PA(*pte);
    800018e8:	00a75593          	srl	a1,a4,0xa
    800018ec:	00c59b93          	sll	s7,a1,0xc
    flags = PTE_FLAGS(*pte);
    800018f0:	3ff77913          	and	s2,a4,1023
    if((mem = kalloc()) == 0)
    800018f4:	ea6ff0ef          	jal	80000f9a <kalloc>
    800018f8:	89aa                	mv	s3,a0
    800018fa:	c105                	beqz	a0,8000191a <uvmcopy+0x70>
      goto err;
    memmove(mem, (char*)pa, PGSIZE);
    800018fc:	6605                	lui	a2,0x1
    800018fe:	85de                	mv	a1,s7
    80001900:	89bff0ef          	jal	8000119a <memmove>
    if(mappages(new, i, PGSIZE, (uint64)mem, flags) != 0){
    80001904:	874a                	mv	a4,s2
    80001906:	86ce                	mv	a3,s3
    80001908:	6605                	lui	a2,0x1
    8000190a:	85a6                	mv	a1,s1
    8000190c:	855a                	mv	a0,s6
    8000190e:	bb9ff0ef          	jal	800014c6 <mappages>
    80001912:	dd4d                	beqz	a0,800018cc <uvmcopy+0x22>
      kfree(mem);
    80001914:	854e                	mv	a0,s3
    80001916:	da2ff0ef          	jal	80000eb8 <kfree>
    }
  }
  return 0;

 err:
  uvmunmap(new, 0, i / PGSIZE, 1);
    8000191a:	4685                	li	a3,1
    8000191c:	00c4d613          	srl	a2,s1,0xc
    80001920:	4581                	li	a1,0
    80001922:	855a                	mv	a0,s6
    80001924:	d81ff0ef          	jal	800016a4 <uvmunmap>
  return -1;
    80001928:	557d                	li	a0,-1
    8000192a:	a011                	j	8000192e <uvmcopy+0x84>
  return 0;
    8000192c:	4501                	li	a0,0
}
    8000192e:	60a6                	ld	ra,72(sp)
    80001930:	6406                	ld	s0,64(sp)
    80001932:	74e2                	ld	s1,56(sp)
    80001934:	7942                	ld	s2,48(sp)
    80001936:	79a2                	ld	s3,40(sp)
    80001938:	7a02                	ld	s4,32(sp)
    8000193a:	6ae2                	ld	s5,24(sp)
    8000193c:	6b42                	ld	s6,16(sp)
    8000193e:	6ba2                	ld	s7,8(sp)
    80001940:	6161                	add	sp,sp,80
    80001942:	8082                	ret
  return 0;
    80001944:	4501                	li	a0,0
}
    80001946:	8082                	ret

0000000080001948 <uvmclear>:

// mark a PTE invalid for user access.
// used by exec for the user stack guard page.
void
uvmclear(pagetable_t pagetable, uint64 va)
{
    80001948:	1141                	add	sp,sp,-16
    8000194a:	e406                	sd	ra,8(sp)
    8000194c:	e022                	sd	s0,0(sp)
    8000194e:	0800                	add	s0,sp,16
  pte_t *pte;
  
  pte = walk(pagetable, va, 0);
    80001950:	4601                	li	a2,0
    80001952:	a9dff0ef          	jal	800013ee <walk>
  if(pte == 0)
    80001956:	c901                	beqz	a0,80001966 <uvmclear+0x1e>
    panic("uvmclear");
  *pte &= ~PTE_U;
    80001958:	611c                	ld	a5,0(a0)
    8000195a:	9bbd                	and	a5,a5,-17
    8000195c:	e11c                	sd	a5,0(a0)
}
    8000195e:	60a2                	ld	ra,8(sp)
    80001960:	6402                	ld	s0,0(sp)
    80001962:	0141                	add	sp,sp,16
    80001964:	8082                	ret
    panic("uvmclear");
    80001966:	0000d517          	auipc	a0,0xd
    8000196a:	86a50513          	add	a0,a0,-1942 # 8000e1d0 <IP_ADDR_ANY+0x1b4>
    8000196e:	ebffe0ef          	jal	8000082c <panic>

0000000080001972 <copyinstr>:
copyinstr(pagetable_t pagetable, char *dst, uint64 srcva, uint64 max)
{
  uint64 n, va0, pa0;
  int got_null = 0;

  while(got_null == 0 && max > 0){
    80001972:	c6dd                	beqz	a3,80001a20 <copyinstr+0xae>
{
    80001974:	715d                	add	sp,sp,-80
    80001976:	e486                	sd	ra,72(sp)
    80001978:	e0a2                	sd	s0,64(sp)
    8000197a:	fc26                	sd	s1,56(sp)
    8000197c:	f84a                	sd	s2,48(sp)
    8000197e:	f44e                	sd	s3,40(sp)
    80001980:	f052                	sd	s4,32(sp)
    80001982:	ec56                	sd	s5,24(sp)
    80001984:	e85a                	sd	s6,16(sp)
    80001986:	e45e                	sd	s7,8(sp)
    80001988:	0880                	add	s0,sp,80
    8000198a:	8a2a                	mv	s4,a0
    8000198c:	8b2e                	mv	s6,a1
    8000198e:	8bb2                	mv	s7,a2
    80001990:	8936                	mv	s2,a3
    va0 = PGROUNDDOWN(srcva);
    80001992:	7afd                	lui	s5,0xfffff
    pa0 = walkaddr(pagetable, va0);
    if(pa0 == 0)
      return -1;
    n = PGSIZE - (srcva - va0);
    80001994:	6985                	lui	s3,0x1
    80001996:	a825                	j	800019ce <copyinstr+0x5c>
      n = max;

    char *p = (char *) (pa0 + (srcva - va0));
    while(n > 0){
      if(*p == '\0'){
        *dst = '\0';
    80001998:	00078023          	sb	zero,0(a5) # 1000 <_entry-0x7ffff000>
    8000199c:	4785                	li	a5,1
      dst++;
    }

    srcva = va0 + PGSIZE;
  }
  if(got_null){
    8000199e:	37fd                	addw	a5,a5,-1
    800019a0:	0007851b          	sext.w	a0,a5
    return 0;
  } else {
    return -1;
  }
}
    800019a4:	60a6                	ld	ra,72(sp)
    800019a6:	6406                	ld	s0,64(sp)
    800019a8:	74e2                	ld	s1,56(sp)
    800019aa:	7942                	ld	s2,48(sp)
    800019ac:	79a2                	ld	s3,40(sp)
    800019ae:	7a02                	ld	s4,32(sp)
    800019b0:	6ae2                	ld	s5,24(sp)
    800019b2:	6b42                	ld	s6,16(sp)
    800019b4:	6ba2                	ld	s7,8(sp)
    800019b6:	6161                	add	sp,sp,80
    800019b8:	8082                	ret
    800019ba:	fff90713          	add	a4,s2,-1 # fff <_entry-0x7ffff001>
    800019be:	9742                	add	a4,a4,a6
      --max;
    800019c0:	40b70933          	sub	s2,a4,a1
    srcva = va0 + PGSIZE;
    800019c4:	01348bb3          	add	s7,s1,s3
  while(got_null == 0 && max > 0){
    800019c8:	04e58463          	beq	a1,a4,80001a10 <copyinstr+0x9e>
{
    800019cc:	8b3e                	mv	s6,a5
    va0 = PGROUNDDOWN(srcva);
    800019ce:	015bf4b3          	and	s1,s7,s5
    pa0 = walkaddr(pagetable, va0);
    800019d2:	85a6                	mv	a1,s1
    800019d4:	8552                	mv	a0,s4
    800019d6:	ab3ff0ef          	jal	80001488 <walkaddr>
    if(pa0 == 0)
    800019da:	cd0d                	beqz	a0,80001a14 <copyinstr+0xa2>
    n = PGSIZE - (srcva - va0);
    800019dc:	417486b3          	sub	a3,s1,s7
    800019e0:	96ce                	add	a3,a3,s3
    if(n > max)
    800019e2:	00d97363          	bgeu	s2,a3,800019e8 <copyinstr+0x76>
    800019e6:	86ca                	mv	a3,s2
    char *p = (char *) (pa0 + (srcva - va0));
    800019e8:	955e                	add	a0,a0,s7
    800019ea:	8d05                	sub	a0,a0,s1
    while(n > 0){
    800019ec:	c695                	beqz	a3,80001a18 <copyinstr+0xa6>
    800019ee:	87da                	mv	a5,s6
    800019f0:	885a                	mv	a6,s6
      if(*p == '\0'){
    800019f2:	41650633          	sub	a2,a0,s6
    while(n > 0){
    800019f6:	96da                	add	a3,a3,s6
    800019f8:	85be                	mv	a1,a5
      if(*p == '\0'){
    800019fa:	00f60733          	add	a4,a2,a5
    800019fe:	00074703          	lbu	a4,0(a4)
    80001a02:	db59                	beqz	a4,80001998 <copyinstr+0x26>
        *dst = *p;
    80001a04:	00e78023          	sb	a4,0(a5)
      dst++;
    80001a08:	0785                	add	a5,a5,1
    while(n > 0){
    80001a0a:	fed797e3          	bne	a5,a3,800019f8 <copyinstr+0x86>
    80001a0e:	b775                	j	800019ba <copyinstr+0x48>
    80001a10:	4781                	li	a5,0
    80001a12:	b771                	j	8000199e <copyinstr+0x2c>
      return -1;
    80001a14:	557d                	li	a0,-1
    80001a16:	b779                	j	800019a4 <copyinstr+0x32>
    srcva = va0 + PGSIZE;
    80001a18:	6b85                	lui	s7,0x1
    80001a1a:	9ba6                	add	s7,s7,s1
    80001a1c:	87da                	mv	a5,s6
    80001a1e:	b77d                	j	800019cc <copyinstr+0x5a>
  int got_null = 0;
    80001a20:	4781                	li	a5,0
  if(got_null){
    80001a22:	37fd                	addw	a5,a5,-1
    80001a24:	0007851b          	sext.w	a0,a5
}
    80001a28:	8082                	ret

0000000080001a2a <ismapped>:
  return mem;
}

int
ismapped(pagetable_t pagetable, uint64 va)
{
    80001a2a:	1141                	add	sp,sp,-16
    80001a2c:	e406                	sd	ra,8(sp)
    80001a2e:	e022                	sd	s0,0(sp)
    80001a30:	0800                	add	s0,sp,16
  pte_t *pte = walk(pagetable, va, 0);
    80001a32:	4601                	li	a2,0
    80001a34:	9bbff0ef          	jal	800013ee <walk>
  if (pte == 0) {
    80001a38:	c519                	beqz	a0,80001a46 <ismapped+0x1c>
    return 0;
  }
  if (*pte & PTE_V){
    80001a3a:	6108                	ld	a0,0(a0)
    80001a3c:	8905                	and	a0,a0,1
    return 1;
  }
  return 0;
}
    80001a3e:	60a2                	ld	ra,8(sp)
    80001a40:	6402                	ld	s0,0(sp)
    80001a42:	0141                	add	sp,sp,16
    80001a44:	8082                	ret
    return 0;
    80001a46:	4501                	li	a0,0
    80001a48:	bfdd                	j	80001a3e <ismapped+0x14>

0000000080001a4a <vmfault>:
{
    80001a4a:	7179                	add	sp,sp,-48
    80001a4c:	f406                	sd	ra,40(sp)
    80001a4e:	f022                	sd	s0,32(sp)
    80001a50:	ec26                	sd	s1,24(sp)
    80001a52:	e44e                	sd	s3,8(sp)
    80001a54:	1800                	add	s0,sp,48
    80001a56:	89aa                	mv	s3,a0
    80001a58:	84ae                	mv	s1,a1
  struct proc *p = myproc();
    80001a5a:	35e000ef          	jal	80001db8 <myproc>
  if (va >= p->sz)
    80001a5e:	653c                	ld	a5,72(a0)
    80001a60:	00f4ea63          	bltu	s1,a5,80001a74 <vmfault+0x2a>
    return 0;
    80001a64:	4981                	li	s3,0
}
    80001a66:	854e                	mv	a0,s3
    80001a68:	70a2                	ld	ra,40(sp)
    80001a6a:	7402                	ld	s0,32(sp)
    80001a6c:	64e2                	ld	s1,24(sp)
    80001a6e:	69a2                	ld	s3,8(sp)
    80001a70:	6145                	add	sp,sp,48
    80001a72:	8082                	ret
    80001a74:	e84a                	sd	s2,16(sp)
    80001a76:	892a                	mv	s2,a0
  va = PGROUNDDOWN(va);
    80001a78:	77fd                	lui	a5,0xfffff
    80001a7a:	8cfd                	and	s1,s1,a5
  if(ismapped(pagetable, va)) {
    80001a7c:	85a6                	mv	a1,s1
    80001a7e:	854e                	mv	a0,s3
    80001a80:	fabff0ef          	jal	80001a2a <ismapped>
    return 0;
    80001a84:	4981                	li	s3,0
  if(ismapped(pagetable, va)) {
    80001a86:	c119                	beqz	a0,80001a8c <vmfault+0x42>
    80001a88:	6942                	ld	s2,16(sp)
    80001a8a:	bff1                	j	80001a66 <vmfault+0x1c>
    80001a8c:	e052                	sd	s4,0(sp)
  mem = (uint64) kalloc();
    80001a8e:	d0cff0ef          	jal	80000f9a <kalloc>
    80001a92:	8a2a                	mv	s4,a0
  if(mem == 0)
    80001a94:	c90d                	beqz	a0,80001ac6 <vmfault+0x7c>
  mem = (uint64) kalloc();
    80001a96:	89aa                	mv	s3,a0
  memset((void *) mem, 0, PGSIZE);
    80001a98:	6605                	lui	a2,0x1
    80001a9a:	4581                	li	a1,0
    80001a9c:	ea2ff0ef          	jal	8000113e <memset>
  if (mappages(p->pagetable, va, PGSIZE, mem, PTE_W|PTE_U|PTE_R) != 0) {
    80001aa0:	4759                	li	a4,22
    80001aa2:	86d2                	mv	a3,s4
    80001aa4:	6605                	lui	a2,0x1
    80001aa6:	85a6                	mv	a1,s1
    80001aa8:	05093503          	ld	a0,80(s2)
    80001aac:	a1bff0ef          	jal	800014c6 <mappages>
    80001ab0:	e501                	bnez	a0,80001ab8 <vmfault+0x6e>
    80001ab2:	6942                	ld	s2,16(sp)
    80001ab4:	6a02                	ld	s4,0(sp)
    80001ab6:	bf45                	j	80001a66 <vmfault+0x1c>
    kfree((void *)mem);
    80001ab8:	8552                	mv	a0,s4
    80001aba:	bfeff0ef          	jal	80000eb8 <kfree>
    return 0;
    80001abe:	4981                	li	s3,0
    80001ac0:	6942                	ld	s2,16(sp)
    80001ac2:	6a02                	ld	s4,0(sp)
    80001ac4:	b74d                	j	80001a66 <vmfault+0x1c>
    80001ac6:	6942                	ld	s2,16(sp)
    80001ac8:	6a02                	ld	s4,0(sp)
    80001aca:	bf71                	j	80001a66 <vmfault+0x1c>

0000000080001acc <copyout>:
  while(len > 0){
    80001acc:	c2cd                	beqz	a3,80001b6e <copyout+0xa2>
{
    80001ace:	711d                	add	sp,sp,-96
    80001ad0:	ec86                	sd	ra,88(sp)
    80001ad2:	e8a2                	sd	s0,80(sp)
    80001ad4:	e4a6                	sd	s1,72(sp)
    80001ad6:	f852                	sd	s4,48(sp)
    80001ad8:	f05a                	sd	s6,32(sp)
    80001ada:	ec5e                	sd	s7,24(sp)
    80001adc:	e862                	sd	s8,16(sp)
    80001ade:	1080                	add	s0,sp,96
    80001ae0:	8c2a                	mv	s8,a0
    80001ae2:	8b2e                	mv	s6,a1
    80001ae4:	8bb2                	mv	s7,a2
    80001ae6:	8a36                	mv	s4,a3
    va0 = PGROUNDDOWN(dstva);
    80001ae8:	74fd                	lui	s1,0xfffff
    80001aea:	8ced                	and	s1,s1,a1
    if(va0 >= MAXVA)
    80001aec:	57fd                	li	a5,-1
    80001aee:	83e9                	srl	a5,a5,0x1a
    80001af0:	0897e163          	bltu	a5,s1,80001b72 <copyout+0xa6>
    80001af4:	e0ca                	sd	s2,64(sp)
    80001af6:	fc4e                	sd	s3,56(sp)
    80001af8:	f456                	sd	s5,40(sp)
    80001afa:	e466                	sd	s9,8(sp)
    80001afc:	e06a                	sd	s10,0(sp)
    80001afe:	6d05                	lui	s10,0x1
    80001b00:	8cbe                	mv	s9,a5
    80001b02:	a015                	j	80001b26 <copyout+0x5a>
    memmove((void *)(pa0 + (dstva - va0)), src, n);
    80001b04:	409b0533          	sub	a0,s6,s1
    80001b08:	0009861b          	sext.w	a2,s3
    80001b0c:	85de                	mv	a1,s7
    80001b0e:	954a                	add	a0,a0,s2
    80001b10:	e8aff0ef          	jal	8000119a <memmove>
    len -= n;
    80001b14:	413a0a33          	sub	s4,s4,s3
    src += n;
    80001b18:	9bce                	add	s7,s7,s3
  while(len > 0){
    80001b1a:	040a0363          	beqz	s4,80001b60 <copyout+0x94>
    if(va0 >= MAXVA)
    80001b1e:	055cec63          	bltu	s9,s5,80001b76 <copyout+0xaa>
    80001b22:	84d6                	mv	s1,s5
    80001b24:	8b56                	mv	s6,s5
    pa0 = walkaddr(pagetable, va0);
    80001b26:	85a6                	mv	a1,s1
    80001b28:	8562                	mv	a0,s8
    80001b2a:	95fff0ef          	jal	80001488 <walkaddr>
    80001b2e:	892a                	mv	s2,a0
    if(pa0 == 0) {
    80001b30:	e901                	bnez	a0,80001b40 <copyout+0x74>
      if((pa0 = vmfault(pagetable, va0, 0)) == 0) {
    80001b32:	4601                	li	a2,0
    80001b34:	85a6                	mv	a1,s1
    80001b36:	8562                	mv	a0,s8
    80001b38:	f13ff0ef          	jal	80001a4a <vmfault>
    80001b3c:	892a                	mv	s2,a0
    80001b3e:	c139                	beqz	a0,80001b84 <copyout+0xb8>
    pte = walk(pagetable, va0, 0);
    80001b40:	4601                	li	a2,0
    80001b42:	85a6                	mv	a1,s1
    80001b44:	8562                	mv	a0,s8
    80001b46:	8a9ff0ef          	jal	800013ee <walk>
    if((*pte & PTE_W) == 0)
    80001b4a:	611c                	ld	a5,0(a0)
    80001b4c:	8b91                	and	a5,a5,4
    80001b4e:	c3b1                	beqz	a5,80001b92 <copyout+0xc6>
    n = PGSIZE - (dstva - va0);
    80001b50:	01a48ab3          	add	s5,s1,s10
    80001b54:	416a89b3          	sub	s3,s5,s6
    if(n > len)
    80001b58:	fb3a76e3          	bgeu	s4,s3,80001b04 <copyout+0x38>
    80001b5c:	89d2                	mv	s3,s4
    80001b5e:	b75d                	j	80001b04 <copyout+0x38>
  return 0;
    80001b60:	4501                	li	a0,0
    80001b62:	6906                	ld	s2,64(sp)
    80001b64:	79e2                	ld	s3,56(sp)
    80001b66:	7aa2                	ld	s5,40(sp)
    80001b68:	6ca2                	ld	s9,8(sp)
    80001b6a:	6d02                	ld	s10,0(sp)
    80001b6c:	a80d                	j	80001b9e <copyout+0xd2>
    80001b6e:	4501                	li	a0,0
}
    80001b70:	8082                	ret
      return -1;
    80001b72:	557d                	li	a0,-1
    80001b74:	a02d                	j	80001b9e <copyout+0xd2>
    80001b76:	557d                	li	a0,-1
    80001b78:	6906                	ld	s2,64(sp)
    80001b7a:	79e2                	ld	s3,56(sp)
    80001b7c:	7aa2                	ld	s5,40(sp)
    80001b7e:	6ca2                	ld	s9,8(sp)
    80001b80:	6d02                	ld	s10,0(sp)
    80001b82:	a831                	j	80001b9e <copyout+0xd2>
        return -1;
    80001b84:	557d                	li	a0,-1
    80001b86:	6906                	ld	s2,64(sp)
    80001b88:	79e2                	ld	s3,56(sp)
    80001b8a:	7aa2                	ld	s5,40(sp)
    80001b8c:	6ca2                	ld	s9,8(sp)
    80001b8e:	6d02                	ld	s10,0(sp)
    80001b90:	a039                	j	80001b9e <copyout+0xd2>
      return -1;
    80001b92:	557d                	li	a0,-1
    80001b94:	6906                	ld	s2,64(sp)
    80001b96:	79e2                	ld	s3,56(sp)
    80001b98:	7aa2                	ld	s5,40(sp)
    80001b9a:	6ca2                	ld	s9,8(sp)
    80001b9c:	6d02                	ld	s10,0(sp)
}
    80001b9e:	60e6                	ld	ra,88(sp)
    80001ba0:	6446                	ld	s0,80(sp)
    80001ba2:	64a6                	ld	s1,72(sp)
    80001ba4:	7a42                	ld	s4,48(sp)
    80001ba6:	7b02                	ld	s6,32(sp)
    80001ba8:	6be2                	ld	s7,24(sp)
    80001baa:	6c42                	ld	s8,16(sp)
    80001bac:	6125                	add	sp,sp,96
    80001bae:	8082                	ret

0000000080001bb0 <copyin>:
  while(len > 0){
    80001bb0:	c6c9                	beqz	a3,80001c3a <copyin+0x8a>
{
    80001bb2:	715d                	add	sp,sp,-80
    80001bb4:	e486                	sd	ra,72(sp)
    80001bb6:	e0a2                	sd	s0,64(sp)
    80001bb8:	fc26                	sd	s1,56(sp)
    80001bba:	f84a                	sd	s2,48(sp)
    80001bbc:	f44e                	sd	s3,40(sp)
    80001bbe:	f052                	sd	s4,32(sp)
    80001bc0:	ec56                	sd	s5,24(sp)
    80001bc2:	e85a                	sd	s6,16(sp)
    80001bc4:	e45e                	sd	s7,8(sp)
    80001bc6:	e062                	sd	s8,0(sp)
    80001bc8:	0880                	add	s0,sp,80
    80001bca:	8baa                	mv	s7,a0
    80001bcc:	8aae                	mv	s5,a1
    80001bce:	8932                	mv	s2,a2
    80001bd0:	8a36                	mv	s4,a3
    va0 = PGROUNDDOWN(srcva);
    80001bd2:	7c7d                	lui	s8,0xfffff
    n = PGSIZE - (srcva - va0);
    80001bd4:	6b05                	lui	s6,0x1
    80001bd6:	a035                	j	80001c02 <copyin+0x52>
    80001bd8:	412984b3          	sub	s1,s3,s2
    80001bdc:	94da                	add	s1,s1,s6
    if(n > len)
    80001bde:	009a7363          	bgeu	s4,s1,80001be4 <copyin+0x34>
    80001be2:	84d2                	mv	s1,s4
    memmove(dst, (void *)(pa0 + (srcva - va0)), n);
    80001be4:	413905b3          	sub	a1,s2,s3
    80001be8:	0004861b          	sext.w	a2,s1
    80001bec:	95aa                	add	a1,a1,a0
    80001bee:	8556                	mv	a0,s5
    80001bf0:	daaff0ef          	jal	8000119a <memmove>
    len -= n;
    80001bf4:	409a0a33          	sub	s4,s4,s1
    dst += n;
    80001bf8:	9aa6                	add	s5,s5,s1
    srcva = va0 + PGSIZE;
    80001bfa:	01698933          	add	s2,s3,s6
  while(len > 0){
    80001bfe:	020a0163          	beqz	s4,80001c20 <copyin+0x70>
    va0 = PGROUNDDOWN(srcva);
    80001c02:	018979b3          	and	s3,s2,s8
    pa0 = walkaddr(pagetable, va0);
    80001c06:	85ce                	mv	a1,s3
    80001c08:	855e                	mv	a0,s7
    80001c0a:	87fff0ef          	jal	80001488 <walkaddr>
    if(pa0 == 0) {
    80001c0e:	f569                	bnez	a0,80001bd8 <copyin+0x28>
      if((pa0 = vmfault(pagetable, va0, 0)) == 0) {
    80001c10:	4601                	li	a2,0
    80001c12:	85ce                	mv	a1,s3
    80001c14:	855e                	mv	a0,s7
    80001c16:	e35ff0ef          	jal	80001a4a <vmfault>
    80001c1a:	fd5d                	bnez	a0,80001bd8 <copyin+0x28>
        return -1;
    80001c1c:	557d                	li	a0,-1
    80001c1e:	a011                	j	80001c22 <copyin+0x72>
  return 0;
    80001c20:	4501                	li	a0,0
}
    80001c22:	60a6                	ld	ra,72(sp)
    80001c24:	6406                	ld	s0,64(sp)
    80001c26:	74e2                	ld	s1,56(sp)
    80001c28:	7942                	ld	s2,48(sp)
    80001c2a:	79a2                	ld	s3,40(sp)
    80001c2c:	7a02                	ld	s4,32(sp)
    80001c2e:	6ae2                	ld	s5,24(sp)
    80001c30:	6b42                	ld	s6,16(sp)
    80001c32:	6ba2                	ld	s7,8(sp)
    80001c34:	6c02                	ld	s8,0(sp)
    80001c36:	6161                	add	sp,sp,80
    80001c38:	8082                	ret
  return 0;
    80001c3a:	4501                	li	a0,0
}
    80001c3c:	8082                	ret

0000000080001c3e <proc_mapstacks>:
// Allocate a page for each process's kernel stack.
// Map it high in memory, followed by an invalid
// guard page.
void
proc_mapstacks(pagetable_t kpgtbl)
{
    80001c3e:	7139                	add	sp,sp,-64
    80001c40:	fc06                	sd	ra,56(sp)
    80001c42:	f822                	sd	s0,48(sp)
    80001c44:	f426                	sd	s1,40(sp)
    80001c46:	f04a                	sd	s2,32(sp)
    80001c48:	ec4e                	sd	s3,24(sp)
    80001c4a:	e852                	sd	s4,16(sp)
    80001c4c:	e456                	sd	s5,8(sp)
    80001c4e:	e05a                	sd	s6,0(sp)
    80001c50:	0080                	add	s0,sp,64
    80001c52:	8a2a                	mv	s4,a0
  struct proc *p;
  
  for(p = proc; p < &proc[NPROC]; p++) {
    80001c54:	00016497          	auipc	s1,0x16
    80001c58:	7f448493          	add	s1,s1,2036 # 80018448 <proc>
    char *pa = kalloc();
    if(pa == 0)
      panic("kalloc");
    uint64 va = KSTACK((int) (p - proc));
    80001c5c:	8b26                	mv	s6,s1
    80001c5e:	04fa5937          	lui	s2,0x4fa5
    80001c62:	fa590913          	add	s2,s2,-91 # 4fa4fa5 <_entry-0x7b05b05b>
    80001c66:	0932                	sll	s2,s2,0xc
    80001c68:	fa590913          	add	s2,s2,-91
    80001c6c:	0932                	sll	s2,s2,0xc
    80001c6e:	fa590913          	add	s2,s2,-91
    80001c72:	0932                	sll	s2,s2,0xc
    80001c74:	fa590913          	add	s2,s2,-91
    80001c78:	040009b7          	lui	s3,0x4000
    80001c7c:	19fd                	add	s3,s3,-1 # 3ffffff <_entry-0x7c000001>
    80001c7e:	09b2                	sll	s3,s3,0xc
  for(p = proc; p < &proc[NPROC]; p++) {
    80001c80:	0001ca97          	auipc	s5,0x1c
    80001c84:	1c8a8a93          	add	s5,s5,456 # 8001de48 <tickslock>
    char *pa = kalloc();
    80001c88:	b12ff0ef          	jal	80000f9a <kalloc>
    80001c8c:	862a                	mv	a2,a0
    if(pa == 0)
    80001c8e:	cd15                	beqz	a0,80001cca <proc_mapstacks+0x8c>
    uint64 va = KSTACK((int) (p - proc));
    80001c90:	416485b3          	sub	a1,s1,s6
    80001c94:	858d                	sra	a1,a1,0x3
    80001c96:	032585b3          	mul	a1,a1,s2
    80001c9a:	2585                	addw	a1,a1,1
    80001c9c:	00d5959b          	sllw	a1,a1,0xd
    kvmmap(kpgtbl, va, (uint64)pa, PGSIZE, PTE_R | PTE_W);
    80001ca0:	4719                	li	a4,6
    80001ca2:	6685                	lui	a3,0x1
    80001ca4:	40b985b3          	sub	a1,s3,a1
    80001ca8:	8552                	mv	a0,s4
    80001caa:	8cdff0ef          	jal	80001576 <kvmmap>
  for(p = proc; p < &proc[NPROC]; p++) {
    80001cae:	16848493          	add	s1,s1,360
    80001cb2:	fd549be3          	bne	s1,s5,80001c88 <proc_mapstacks+0x4a>
  }
}
    80001cb6:	70e2                	ld	ra,56(sp)
    80001cb8:	7442                	ld	s0,48(sp)
    80001cba:	74a2                	ld	s1,40(sp)
    80001cbc:	7902                	ld	s2,32(sp)
    80001cbe:	69e2                	ld	s3,24(sp)
    80001cc0:	6a42                	ld	s4,16(sp)
    80001cc2:	6aa2                	ld	s5,8(sp)
    80001cc4:	6b02                	ld	s6,0(sp)
    80001cc6:	6121                	add	sp,sp,64
    80001cc8:	8082                	ret
      panic("kalloc");
    80001cca:	0000c517          	auipc	a0,0xc
    80001cce:	51650513          	add	a0,a0,1302 # 8000e1e0 <IP_ADDR_ANY+0x1c4>
    80001cd2:	b5bfe0ef          	jal	8000082c <panic>

0000000080001cd6 <procinit>:

// initialize the proc table.
void
procinit(void)
{
    80001cd6:	7139                	add	sp,sp,-64
    80001cd8:	fc06                	sd	ra,56(sp)
    80001cda:	f822                	sd	s0,48(sp)
    80001cdc:	f426                	sd	s1,40(sp)
    80001cde:	f04a                	sd	s2,32(sp)
    80001ce0:	ec4e                	sd	s3,24(sp)
    80001ce2:	e852                	sd	s4,16(sp)
    80001ce4:	e456                	sd	s5,8(sp)
    80001ce6:	e05a                	sd	s6,0(sp)
    80001ce8:	0080                	add	s0,sp,64
  struct proc *p;
  
  initlock(&pid_lock, "nextpid");
    80001cea:	0000c597          	auipc	a1,0xc
    80001cee:	4fe58593          	add	a1,a1,1278 # 8000e1e8 <IP_ADDR_ANY+0x1cc>
    80001cf2:	00016517          	auipc	a0,0x16
    80001cf6:	32650513          	add	a0,a0,806 # 80018018 <pid_lock>
    80001cfa:	af0ff0ef          	jal	80000fea <initlock>
  initlock(&wait_lock, "wait_lock");
    80001cfe:	0000c597          	auipc	a1,0xc
    80001d02:	4f258593          	add	a1,a1,1266 # 8000e1f0 <IP_ADDR_ANY+0x1d4>
    80001d06:	00016517          	auipc	a0,0x16
    80001d0a:	32a50513          	add	a0,a0,810 # 80018030 <wait_lock>
    80001d0e:	adcff0ef          	jal	80000fea <initlock>
  for(p = proc; p < &proc[NPROC]; p++) {
    80001d12:	00016497          	auipc	s1,0x16
    80001d16:	73648493          	add	s1,s1,1846 # 80018448 <proc>
      initlock(&p->lock, "proc");
    80001d1a:	0000cb17          	auipc	s6,0xc
    80001d1e:	4e6b0b13          	add	s6,s6,1254 # 8000e200 <IP_ADDR_ANY+0x1e4>
      p->state = UNUSED;
      p->kstack = KSTACK((int) (p - proc));
    80001d22:	8aa6                	mv	s5,s1
    80001d24:	04fa5937          	lui	s2,0x4fa5
    80001d28:	fa590913          	add	s2,s2,-91 # 4fa4fa5 <_entry-0x7b05b05b>
    80001d2c:	0932                	sll	s2,s2,0xc
    80001d2e:	fa590913          	add	s2,s2,-91
    80001d32:	0932                	sll	s2,s2,0xc
    80001d34:	fa590913          	add	s2,s2,-91
    80001d38:	0932                	sll	s2,s2,0xc
    80001d3a:	fa590913          	add	s2,s2,-91
    80001d3e:	040009b7          	lui	s3,0x4000
    80001d42:	19fd                	add	s3,s3,-1 # 3ffffff <_entry-0x7c000001>
    80001d44:	09b2                	sll	s3,s3,0xc
  for(p = proc; p < &proc[NPROC]; p++) {
    80001d46:	0001ca17          	auipc	s4,0x1c
    80001d4a:	102a0a13          	add	s4,s4,258 # 8001de48 <tickslock>
      initlock(&p->lock, "proc");
    80001d4e:	85da                	mv	a1,s6
    80001d50:	8526                	mv	a0,s1
    80001d52:	a98ff0ef          	jal	80000fea <initlock>
      p->state = UNUSED;
    80001d56:	0004ac23          	sw	zero,24(s1)
      p->kstack = KSTACK((int) (p - proc));
    80001d5a:	415487b3          	sub	a5,s1,s5
    80001d5e:	878d                	sra	a5,a5,0x3
    80001d60:	032787b3          	mul	a5,a5,s2
    80001d64:	2785                	addw	a5,a5,1 # fffffffffffff001 <end+0xffffffff7feccac1>
    80001d66:	00d7979b          	sllw	a5,a5,0xd
    80001d6a:	40f987b3          	sub	a5,s3,a5
    80001d6e:	e0bc                	sd	a5,64(s1)
  for(p = proc; p < &proc[NPROC]; p++) {
    80001d70:	16848493          	add	s1,s1,360
    80001d74:	fd449de3          	bne	s1,s4,80001d4e <procinit+0x78>
  }
}
    80001d78:	70e2                	ld	ra,56(sp)
    80001d7a:	7442                	ld	s0,48(sp)
    80001d7c:	74a2                	ld	s1,40(sp)
    80001d7e:	7902                	ld	s2,32(sp)
    80001d80:	69e2                	ld	s3,24(sp)
    80001d82:	6a42                	ld	s4,16(sp)
    80001d84:	6aa2                	ld	s5,8(sp)
    80001d86:	6b02                	ld	s6,0(sp)
    80001d88:	6121                	add	sp,sp,64
    80001d8a:	8082                	ret

0000000080001d8c <cpuid>:
// Must be called with interrupts disabled,
// to prevent race with process being moved
// to a different CPU.
int
cpuid()
{
    80001d8c:	1141                	add	sp,sp,-16
    80001d8e:	e422                	sd	s0,8(sp)
    80001d90:	0800                	add	s0,sp,16
  asm volatile("mv %0, tp" : "=r" (x) );
    80001d92:	8512                	mv	a0,tp
  int id = r_tp();
  return id;
}
    80001d94:	2501                	sext.w	a0,a0
    80001d96:	6422                	ld	s0,8(sp)
    80001d98:	0141                	add	sp,sp,16
    80001d9a:	8082                	ret

0000000080001d9c <mycpu>:

// Return this CPU's cpu struct.
// Interrupts must be disabled.
struct cpu*
mycpu(void)
{
    80001d9c:	1141                	add	sp,sp,-16
    80001d9e:	e422                	sd	s0,8(sp)
    80001da0:	0800                	add	s0,sp,16
    80001da2:	8792                	mv	a5,tp
  int id = cpuid();
  struct cpu *c = &cpus[id];
    80001da4:	2781                	sext.w	a5,a5
    80001da6:	079e                	sll	a5,a5,0x7
  return c;
}
    80001da8:	00016517          	auipc	a0,0x16
    80001dac:	2a050513          	add	a0,a0,672 # 80018048 <cpus>
    80001db0:	953e                	add	a0,a0,a5
    80001db2:	6422                	ld	s0,8(sp)
    80001db4:	0141                	add	sp,sp,16
    80001db6:	8082                	ret

0000000080001db8 <myproc>:

// Return the current struct proc *, or zero if none.
struct proc*
myproc(void)
{
    80001db8:	1101                	add	sp,sp,-32
    80001dba:	ec06                	sd	ra,24(sp)
    80001dbc:	e822                	sd	s0,16(sp)
    80001dbe:	e426                	sd	s1,8(sp)
    80001dc0:	1000                	add	s0,sp,32
  push_off();
    80001dc2:	a68ff0ef          	jal	8000102a <push_off>
    80001dc6:	8792                	mv	a5,tp
  struct cpu *c = mycpu();
  struct proc *p = c->proc;
    80001dc8:	2781                	sext.w	a5,a5
    80001dca:	079e                	sll	a5,a5,0x7
    80001dcc:	00016717          	auipc	a4,0x16
    80001dd0:	24c70713          	add	a4,a4,588 # 80018018 <pid_lock>
    80001dd4:	97ba                	add	a5,a5,a4
    80001dd6:	7b84                	ld	s1,48(a5)
  pop_off();
    80001dd8:	ad6ff0ef          	jal	800010ae <pop_off>
  return p;
}
    80001ddc:	8526                	mv	a0,s1
    80001dde:	60e2                	ld	ra,24(sp)
    80001de0:	6442                	ld	s0,16(sp)
    80001de2:	64a2                	ld	s1,8(sp)
    80001de4:	6105                	add	sp,sp,32
    80001de6:	8082                	ret

0000000080001de8 <forkret>:

// A fork child's very first scheduling by scheduler()
// will swtch to forkret.
void
forkret(void)
{
    80001de8:	7179                	add	sp,sp,-48
    80001dea:	f406                	sd	ra,40(sp)
    80001dec:	f022                	sd	s0,32(sp)
    80001dee:	ec26                	sd	s1,24(sp)
    80001df0:	1800                	add	s0,sp,48
  extern char userret[];
  static int first = 1;
  struct proc *p = myproc();
    80001df2:	fc7ff0ef          	jal	80001db8 <myproc>
    80001df6:	84aa                	mv	s1,a0

  // Still holding p->lock from scheduler.
  release(&p->lock);
    80001df8:	b0aff0ef          	jal	80001102 <release>

  if (first) {
    80001dfc:	0000e797          	auipc	a5,0xe
    80001e00:	0747a783          	lw	a5,116(a5) # 8000fe70 <first.1>
    80001e04:	cf8d                	beqz	a5,80001e3e <forkret+0x56>
    // File system initialization must be run in the context of a
    // regular process (e.g., because it calls sleep), and thus cannot
    // be run from main().
    fsinit(ROOTDEV);
    80001e06:	4505                	li	a0,1
    80001e08:	3c5010ef          	jal	800039cc <fsinit>

    first = 0;
    80001e0c:	0000e797          	auipc	a5,0xe
    80001e10:	0607a223          	sw	zero,100(a5) # 8000fe70 <first.1>
    // ensure other cores see first=0.
    __sync_synchronize();
    80001e14:	0ff0000f          	fence

    // We can invoke kexec() now that file system is initialized.
    // Put the return value (argc) of kexec into a0.
    p->trapframe->a0 = kexec("/init", (char *[]){ "/init", 0 });
    80001e18:	0000c517          	auipc	a0,0xc
    80001e1c:	3f050513          	add	a0,a0,1008 # 8000e208 <IP_ADDR_ANY+0x1ec>
    80001e20:	fca43823          	sd	a0,-48(s0)
    80001e24:	fc043c23          	sd	zero,-40(s0)
    80001e28:	fd040593          	add	a1,s0,-48
    80001e2c:	4ab020ef          	jal	80004ad6 <kexec>
    80001e30:	6cbc                	ld	a5,88(s1)
    80001e32:	fba8                	sd	a0,112(a5)
    if (p->trapframe->a0 == -1) {
    80001e34:	6cbc                	ld	a5,88(s1)
    80001e36:	7bb8                	ld	a4,112(a5)
    80001e38:	57fd                	li	a5,-1
    80001e3a:	02f70d63          	beq	a4,a5,80001e74 <forkret+0x8c>
      panic("exec");
    }
  }

  // return to user space, mimicing usertrap()'s return.
  prepare_return();
    80001e3e:	2bf000ef          	jal	800028fc <prepare_return>
  uint64 satp = MAKE_SATP(p->pagetable);
    80001e42:	68a8                	ld	a0,80(s1)
    80001e44:	8131                	srl	a0,a0,0xc
  uint64 trampoline_userret = TRAMPOLINE + (userret - trampoline);
    80001e46:	04000737          	lui	a4,0x4000
    80001e4a:	177d                	add	a4,a4,-1 # 3ffffff <_entry-0x7c000001>
    80001e4c:	0732                	sll	a4,a4,0xc
    80001e4e:	0000b797          	auipc	a5,0xb
    80001e52:	24e78793          	add	a5,a5,590 # 8000d09c <userret>
    80001e56:	0000b697          	auipc	a3,0xb
    80001e5a:	1aa68693          	add	a3,a3,426 # 8000d000 <_trampoline>
    80001e5e:	8f95                	sub	a5,a5,a3
    80001e60:	97ba                	add	a5,a5,a4
  ((void (*)(uint64))trampoline_userret)(satp);
    80001e62:	577d                	li	a4,-1
    80001e64:	177e                	sll	a4,a4,0x3f
    80001e66:	8d59                	or	a0,a0,a4
    80001e68:	9782                	jalr	a5
}
    80001e6a:	70a2                	ld	ra,40(sp)
    80001e6c:	7402                	ld	s0,32(sp)
    80001e6e:	64e2                	ld	s1,24(sp)
    80001e70:	6145                	add	sp,sp,48
    80001e72:	8082                	ret
      panic("exec");
    80001e74:	0000c517          	auipc	a0,0xc
    80001e78:	39c50513          	add	a0,a0,924 # 8000e210 <IP_ADDR_ANY+0x1f4>
    80001e7c:	9b1fe0ef          	jal	8000082c <panic>

0000000080001e80 <allocpid>:
{
    80001e80:	1101                	add	sp,sp,-32
    80001e82:	ec06                	sd	ra,24(sp)
    80001e84:	e822                	sd	s0,16(sp)
    80001e86:	e426                	sd	s1,8(sp)
    80001e88:	e04a                	sd	s2,0(sp)
    80001e8a:	1000                	add	s0,sp,32
  acquire(&pid_lock);
    80001e8c:	00016917          	auipc	s2,0x16
    80001e90:	18c90913          	add	s2,s2,396 # 80018018 <pid_lock>
    80001e94:	854a                	mv	a0,s2
    80001e96:	9d4ff0ef          	jal	8000106a <acquire>
  pid = nextpid;
    80001e9a:	0000e797          	auipc	a5,0xe
    80001e9e:	fda78793          	add	a5,a5,-38 # 8000fe74 <nextpid>
    80001ea2:	4384                	lw	s1,0(a5)
  nextpid = nextpid + 1;
    80001ea4:	0014871b          	addw	a4,s1,1
    80001ea8:	c398                	sw	a4,0(a5)
  release(&pid_lock);
    80001eaa:	854a                	mv	a0,s2
    80001eac:	a56ff0ef          	jal	80001102 <release>
}
    80001eb0:	8526                	mv	a0,s1
    80001eb2:	60e2                	ld	ra,24(sp)
    80001eb4:	6442                	ld	s0,16(sp)
    80001eb6:	64a2                	ld	s1,8(sp)
    80001eb8:	6902                	ld	s2,0(sp)
    80001eba:	6105                	add	sp,sp,32
    80001ebc:	8082                	ret

0000000080001ebe <proc_pagetable>:
{
    80001ebe:	1101                	add	sp,sp,-32
    80001ec0:	ec06                	sd	ra,24(sp)
    80001ec2:	e822                	sd	s0,16(sp)
    80001ec4:	e426                	sd	s1,8(sp)
    80001ec6:	e04a                	sd	s2,0(sp)
    80001ec8:	1000                	add	s0,sp,32
    80001eca:	892a                	mv	s2,a0
  pagetable = uvmcreate();
    80001ecc:	fb2ff0ef          	jal	8000167e <uvmcreate>
    80001ed0:	84aa                	mv	s1,a0
  if(pagetable == 0)
    80001ed2:	cd05                	beqz	a0,80001f0a <proc_pagetable+0x4c>
  if(mappages(pagetable, TRAMPOLINE, PGSIZE,
    80001ed4:	4729                	li	a4,10
    80001ed6:	0000b697          	auipc	a3,0xb
    80001eda:	12a68693          	add	a3,a3,298 # 8000d000 <_trampoline>
    80001ede:	6605                	lui	a2,0x1
    80001ee0:	040005b7          	lui	a1,0x4000
    80001ee4:	15fd                	add	a1,a1,-1 # 3ffffff <_entry-0x7c000001>
    80001ee6:	05b2                	sll	a1,a1,0xc
    80001ee8:	ddeff0ef          	jal	800014c6 <mappages>
    80001eec:	02054663          	bltz	a0,80001f18 <proc_pagetable+0x5a>
  if(mappages(pagetable, TRAPFRAME, PGSIZE,
    80001ef0:	4719                	li	a4,6
    80001ef2:	05893683          	ld	a3,88(s2)
    80001ef6:	6605                	lui	a2,0x1
    80001ef8:	020005b7          	lui	a1,0x2000
    80001efc:	15fd                	add	a1,a1,-1 # 1ffffff <_entry-0x7e000001>
    80001efe:	05b6                	sll	a1,a1,0xd
    80001f00:	8526                	mv	a0,s1
    80001f02:	dc4ff0ef          	jal	800014c6 <mappages>
    80001f06:	00054f63          	bltz	a0,80001f24 <proc_pagetable+0x66>
}
    80001f0a:	8526                	mv	a0,s1
    80001f0c:	60e2                	ld	ra,24(sp)
    80001f0e:	6442                	ld	s0,16(sp)
    80001f10:	64a2                	ld	s1,8(sp)
    80001f12:	6902                	ld	s2,0(sp)
    80001f14:	6105                	add	sp,sp,32
    80001f16:	8082                	ret
    uvmfree(pagetable, 0);
    80001f18:	4581                	li	a1,0
    80001f1a:	8526                	mv	a0,s1
    80001f1c:	95dff0ef          	jal	80001878 <uvmfree>
    return 0;
    80001f20:	4481                	li	s1,0
    80001f22:	b7e5                	j	80001f0a <proc_pagetable+0x4c>
    uvmunmap(pagetable, TRAMPOLINE, 1, 0);
    80001f24:	4681                	li	a3,0
    80001f26:	4605                	li	a2,1
    80001f28:	040005b7          	lui	a1,0x4000
    80001f2c:	15fd                	add	a1,a1,-1 # 3ffffff <_entry-0x7c000001>
    80001f2e:	05b2                	sll	a1,a1,0xc
    80001f30:	8526                	mv	a0,s1
    80001f32:	f72ff0ef          	jal	800016a4 <uvmunmap>
    uvmfree(pagetable, 0);
    80001f36:	4581                	li	a1,0
    80001f38:	8526                	mv	a0,s1
    80001f3a:	93fff0ef          	jal	80001878 <uvmfree>
    return 0;
    80001f3e:	4481                	li	s1,0
    80001f40:	b7e9                	j	80001f0a <proc_pagetable+0x4c>

0000000080001f42 <proc_freepagetable>:
{
    80001f42:	1101                	add	sp,sp,-32
    80001f44:	ec06                	sd	ra,24(sp)
    80001f46:	e822                	sd	s0,16(sp)
    80001f48:	e426                	sd	s1,8(sp)
    80001f4a:	e04a                	sd	s2,0(sp)
    80001f4c:	1000                	add	s0,sp,32
    80001f4e:	84aa                	mv	s1,a0
    80001f50:	892e                	mv	s2,a1
  uvmunmap(pagetable, TRAMPOLINE, 1, 0);
    80001f52:	4681                	li	a3,0
    80001f54:	4605                	li	a2,1
    80001f56:	040005b7          	lui	a1,0x4000
    80001f5a:	15fd                	add	a1,a1,-1 # 3ffffff <_entry-0x7c000001>
    80001f5c:	05b2                	sll	a1,a1,0xc
    80001f5e:	f46ff0ef          	jal	800016a4 <uvmunmap>
  uvmunmap(pagetable, TRAPFRAME, 1, 0);
    80001f62:	4681                	li	a3,0
    80001f64:	4605                	li	a2,1
    80001f66:	020005b7          	lui	a1,0x2000
    80001f6a:	15fd                	add	a1,a1,-1 # 1ffffff <_entry-0x7e000001>
    80001f6c:	05b6                	sll	a1,a1,0xd
    80001f6e:	8526                	mv	a0,s1
    80001f70:	f34ff0ef          	jal	800016a4 <uvmunmap>
  uvmfree(pagetable, sz);
    80001f74:	85ca                	mv	a1,s2
    80001f76:	8526                	mv	a0,s1
    80001f78:	901ff0ef          	jal	80001878 <uvmfree>
}
    80001f7c:	60e2                	ld	ra,24(sp)
    80001f7e:	6442                	ld	s0,16(sp)
    80001f80:	64a2                	ld	s1,8(sp)
    80001f82:	6902                	ld	s2,0(sp)
    80001f84:	6105                	add	sp,sp,32
    80001f86:	8082                	ret

0000000080001f88 <freeproc>:
{
    80001f88:	1101                	add	sp,sp,-32
    80001f8a:	ec06                	sd	ra,24(sp)
    80001f8c:	e822                	sd	s0,16(sp)
    80001f8e:	e426                	sd	s1,8(sp)
    80001f90:	1000                	add	s0,sp,32
    80001f92:	84aa                	mv	s1,a0
  if(p->trapframe)
    80001f94:	6d28                	ld	a0,88(a0)
    80001f96:	c119                	beqz	a0,80001f9c <freeproc+0x14>
    kfree((void*)p->trapframe);
    80001f98:	f21fe0ef          	jal	80000eb8 <kfree>
  p->trapframe = 0;
    80001f9c:	0404bc23          	sd	zero,88(s1)
  if(p->pagetable)
    80001fa0:	68a8                	ld	a0,80(s1)
    80001fa2:	c501                	beqz	a0,80001faa <freeproc+0x22>
    proc_freepagetable(p->pagetable, p->sz);
    80001fa4:	64ac                	ld	a1,72(s1)
    80001fa6:	f9dff0ef          	jal	80001f42 <proc_freepagetable>
  p->pagetable = 0;
    80001faa:	0404b823          	sd	zero,80(s1)
  p->sz = 0;
    80001fae:	0404b423          	sd	zero,72(s1)
  p->pid = 0;
    80001fb2:	0204a823          	sw	zero,48(s1)
  p->parent = 0;
    80001fb6:	0204bc23          	sd	zero,56(s1)
  p->name[0] = 0;
    80001fba:	14048c23          	sb	zero,344(s1)
  p->chan = 0;
    80001fbe:	0204b023          	sd	zero,32(s1)
  p->killed = 0;
    80001fc2:	0204a423          	sw	zero,40(s1)
  p->xstate = 0;
    80001fc6:	0204a623          	sw	zero,44(s1)
  p->state = UNUSED;
    80001fca:	0004ac23          	sw	zero,24(s1)
}
    80001fce:	60e2                	ld	ra,24(sp)
    80001fd0:	6442                	ld	s0,16(sp)
    80001fd2:	64a2                	ld	s1,8(sp)
    80001fd4:	6105                	add	sp,sp,32
    80001fd6:	8082                	ret

0000000080001fd8 <allocproc>:
{
    80001fd8:	1101                	add	sp,sp,-32
    80001fda:	ec06                	sd	ra,24(sp)
    80001fdc:	e822                	sd	s0,16(sp)
    80001fde:	e426                	sd	s1,8(sp)
    80001fe0:	e04a                	sd	s2,0(sp)
    80001fe2:	1000                	add	s0,sp,32
  for(p = proc; p < &proc[NPROC]; p++) {
    80001fe4:	00016497          	auipc	s1,0x16
    80001fe8:	46448493          	add	s1,s1,1124 # 80018448 <proc>
    80001fec:	0001c917          	auipc	s2,0x1c
    80001ff0:	e5c90913          	add	s2,s2,-420 # 8001de48 <tickslock>
    acquire(&p->lock);
    80001ff4:	8526                	mv	a0,s1
    80001ff6:	874ff0ef          	jal	8000106a <acquire>
    if(p->state == UNUSED) {
    80001ffa:	4c9c                	lw	a5,24(s1)
    80001ffc:	cb91                	beqz	a5,80002010 <allocproc+0x38>
      release(&p->lock);
    80001ffe:	8526                	mv	a0,s1
    80002000:	902ff0ef          	jal	80001102 <release>
  for(p = proc; p < &proc[NPROC]; p++) {
    80002004:	16848493          	add	s1,s1,360
    80002008:	ff2496e3          	bne	s1,s2,80001ff4 <allocproc+0x1c>
  return 0;
    8000200c:	4481                	li	s1,0
    8000200e:	a089                	j	80002050 <allocproc+0x78>
  p->pid = allocpid();
    80002010:	e71ff0ef          	jal	80001e80 <allocpid>
    80002014:	d888                	sw	a0,48(s1)
  p->state = USED;
    80002016:	4785                	li	a5,1
    80002018:	cc9c                	sw	a5,24(s1)
  if((p->trapframe = (struct trapframe *)kalloc()) == 0){
    8000201a:	f81fe0ef          	jal	80000f9a <kalloc>
    8000201e:	892a                	mv	s2,a0
    80002020:	eca8                	sd	a0,88(s1)
    80002022:	cd15                	beqz	a0,8000205e <allocproc+0x86>
  p->pagetable = proc_pagetable(p);
    80002024:	8526                	mv	a0,s1
    80002026:	e99ff0ef          	jal	80001ebe <proc_pagetable>
    8000202a:	892a                	mv	s2,a0
    8000202c:	e8a8                	sd	a0,80(s1)
  if(p->pagetable == 0){
    8000202e:	c121                	beqz	a0,8000206e <allocproc+0x96>
  memset(&p->context, 0, sizeof(p->context));
    80002030:	07000613          	li	a2,112
    80002034:	4581                	li	a1,0
    80002036:	06048513          	add	a0,s1,96
    8000203a:	904ff0ef          	jal	8000113e <memset>
  p->context.ra = (uint64)forkret;
    8000203e:	00000797          	auipc	a5,0x0
    80002042:	daa78793          	add	a5,a5,-598 # 80001de8 <forkret>
    80002046:	f0bc                	sd	a5,96(s1)
  p->context.sp = p->kstack + PGSIZE;
    80002048:	60bc                	ld	a5,64(s1)
    8000204a:	6705                	lui	a4,0x1
    8000204c:	97ba                	add	a5,a5,a4
    8000204e:	f4bc                	sd	a5,104(s1)
}
    80002050:	8526                	mv	a0,s1
    80002052:	60e2                	ld	ra,24(sp)
    80002054:	6442                	ld	s0,16(sp)
    80002056:	64a2                	ld	s1,8(sp)
    80002058:	6902                	ld	s2,0(sp)
    8000205a:	6105                	add	sp,sp,32
    8000205c:	8082                	ret
    freeproc(p);
    8000205e:	8526                	mv	a0,s1
    80002060:	f29ff0ef          	jal	80001f88 <freeproc>
    release(&p->lock);
    80002064:	8526                	mv	a0,s1
    80002066:	89cff0ef          	jal	80001102 <release>
    return 0;
    8000206a:	84ca                	mv	s1,s2
    8000206c:	b7d5                	j	80002050 <allocproc+0x78>
    freeproc(p);
    8000206e:	8526                	mv	a0,s1
    80002070:	f19ff0ef          	jal	80001f88 <freeproc>
    release(&p->lock);
    80002074:	8526                	mv	a0,s1
    80002076:	88cff0ef          	jal	80001102 <release>
    return 0;
    8000207a:	84ca                	mv	s1,s2
    8000207c:	bfd1                	j	80002050 <allocproc+0x78>

000000008000207e <userinit>:
{
    8000207e:	1101                	add	sp,sp,-32
    80002080:	ec06                	sd	ra,24(sp)
    80002082:	e822                	sd	s0,16(sp)
    80002084:	e426                	sd	s1,8(sp)
    80002086:	1000                	add	s0,sp,32
  p = allocproc();
    80002088:	f51ff0ef          	jal	80001fd8 <allocproc>
    8000208c:	84aa                	mv	s1,a0
  initproc = p;
    8000208e:	0000e797          	auipc	a5,0xe
    80002092:	e2a7b923          	sd	a0,-462(a5) # 8000fec0 <initproc>
  p->cwd = namei("/");
    80002096:	0000c517          	auipc	a0,0xc
    8000209a:	18250513          	add	a0,a0,386 # 8000e218 <IP_ADDR_ANY+0x1fc>
    8000209e:	651010ef          	jal	80003eee <namei>
    800020a2:	14a4b823          	sd	a0,336(s1)
  p->state = RUNNABLE;
    800020a6:	478d                	li	a5,3
    800020a8:	cc9c                	sw	a5,24(s1)
  release(&p->lock);
    800020aa:	8526                	mv	a0,s1
    800020ac:	856ff0ef          	jal	80001102 <release>
}
    800020b0:	60e2                	ld	ra,24(sp)
    800020b2:	6442                	ld	s0,16(sp)
    800020b4:	64a2                	ld	s1,8(sp)
    800020b6:	6105                	add	sp,sp,32
    800020b8:	8082                	ret

00000000800020ba <growproc>:
{
    800020ba:	1101                	add	sp,sp,-32
    800020bc:	ec06                	sd	ra,24(sp)
    800020be:	e822                	sd	s0,16(sp)
    800020c0:	e426                	sd	s1,8(sp)
    800020c2:	e04a                	sd	s2,0(sp)
    800020c4:	1000                	add	s0,sp,32
    800020c6:	84aa                	mv	s1,a0
  struct proc *p = myproc();
    800020c8:	cf1ff0ef          	jal	80001db8 <myproc>
    800020cc:	892a                	mv	s2,a0
  sz = p->sz;
    800020ce:	652c                	ld	a1,72(a0)
  if(n > 0){
    800020d0:	02905963          	blez	s1,80002102 <growproc+0x48>
    if(sz + n > TRAPFRAME) {
    800020d4:	00b48633          	add	a2,s1,a1
    800020d8:	020007b7          	lui	a5,0x2000
    800020dc:	17fd                	add	a5,a5,-1 # 1ffffff <_entry-0x7e000001>
    800020de:	07b6                	sll	a5,a5,0xd
    800020e0:	02c7ea63          	bltu	a5,a2,80002114 <growproc+0x5a>
    if((sz = uvmalloc(p->pagetable, sz, sz + n, PTE_W)) == 0) {
    800020e4:	4691                	li	a3,4
    800020e6:	6928                	ld	a0,80(a0)
    800020e8:	e8aff0ef          	jal	80001772 <uvmalloc>
    800020ec:	85aa                	mv	a1,a0
    800020ee:	c50d                	beqz	a0,80002118 <growproc+0x5e>
  p->sz = sz;
    800020f0:	04b93423          	sd	a1,72(s2)
  return 0;
    800020f4:	4501                	li	a0,0
}
    800020f6:	60e2                	ld	ra,24(sp)
    800020f8:	6442                	ld	s0,16(sp)
    800020fa:	64a2                	ld	s1,8(sp)
    800020fc:	6902                	ld	s2,0(sp)
    800020fe:	6105                	add	sp,sp,32
    80002100:	8082                	ret
  } else if(n < 0){
    80002102:	fe04d7e3          	bgez	s1,800020f0 <growproc+0x36>
    sz = uvmdealloc(p->pagetable, sz, sz + n);
    80002106:	00b48633          	add	a2,s1,a1
    8000210a:	6928                	ld	a0,80(a0)
    8000210c:	e22ff0ef          	jal	8000172e <uvmdealloc>
    80002110:	85aa                	mv	a1,a0
    80002112:	bff9                	j	800020f0 <growproc+0x36>
      return -1;
    80002114:	557d                	li	a0,-1
    80002116:	b7c5                	j	800020f6 <growproc+0x3c>
      return -1;
    80002118:	557d                	li	a0,-1
    8000211a:	bff1                	j	800020f6 <growproc+0x3c>

000000008000211c <kfork>:
{
    8000211c:	7139                	add	sp,sp,-64
    8000211e:	fc06                	sd	ra,56(sp)
    80002120:	f822                	sd	s0,48(sp)
    80002122:	f04a                	sd	s2,32(sp)
    80002124:	e456                	sd	s5,8(sp)
    80002126:	0080                	add	s0,sp,64
  struct proc *p = myproc();
    80002128:	c91ff0ef          	jal	80001db8 <myproc>
    8000212c:	8aaa                	mv	s5,a0
  if((np = allocproc()) == 0){
    8000212e:	eabff0ef          	jal	80001fd8 <allocproc>
    80002132:	0e050a63          	beqz	a0,80002226 <kfork+0x10a>
    80002136:	e852                	sd	s4,16(sp)
    80002138:	8a2a                	mv	s4,a0
  if(uvmcopy(p->pagetable, np->pagetable, p->sz) < 0){
    8000213a:	048ab603          	ld	a2,72(s5)
    8000213e:	692c                	ld	a1,80(a0)
    80002140:	050ab503          	ld	a0,80(s5)
    80002144:	f66ff0ef          	jal	800018aa <uvmcopy>
    80002148:	04054a63          	bltz	a0,8000219c <kfork+0x80>
    8000214c:	f426                	sd	s1,40(sp)
    8000214e:	ec4e                	sd	s3,24(sp)
  np->sz = p->sz;
    80002150:	048ab783          	ld	a5,72(s5)
    80002154:	04fa3423          	sd	a5,72(s4)
  *(np->trapframe) = *(p->trapframe);
    80002158:	058ab683          	ld	a3,88(s5)
    8000215c:	87b6                	mv	a5,a3
    8000215e:	058a3703          	ld	a4,88(s4)
    80002162:	12068693          	add	a3,a3,288
    80002166:	0007b803          	ld	a6,0(a5)
    8000216a:	6788                	ld	a0,8(a5)
    8000216c:	6b8c                	ld	a1,16(a5)
    8000216e:	6f90                	ld	a2,24(a5)
    80002170:	01073023          	sd	a6,0(a4) # 1000 <_entry-0x7ffff000>
    80002174:	e708                	sd	a0,8(a4)
    80002176:	eb0c                	sd	a1,16(a4)
    80002178:	ef10                	sd	a2,24(a4)
    8000217a:	02078793          	add	a5,a5,32
    8000217e:	02070713          	add	a4,a4,32
    80002182:	fed792e3          	bne	a5,a3,80002166 <kfork+0x4a>
  np->trapframe->a0 = 0;
    80002186:	058a3783          	ld	a5,88(s4)
    8000218a:	0607b823          	sd	zero,112(a5)
  for(i = 0; i < NOFILE; i++)
    8000218e:	0d0a8493          	add	s1,s5,208
    80002192:	0d0a0913          	add	s2,s4,208
    80002196:	150a8993          	add	s3,s5,336
    8000219a:	a831                	j	800021b6 <kfork+0x9a>
    freeproc(np);
    8000219c:	8552                	mv	a0,s4
    8000219e:	debff0ef          	jal	80001f88 <freeproc>
    release(&np->lock);
    800021a2:	8552                	mv	a0,s4
    800021a4:	f5ffe0ef          	jal	80001102 <release>
    return -1;
    800021a8:	597d                	li	s2,-1
    800021aa:	6a42                	ld	s4,16(sp)
    800021ac:	a0b5                	j	80002218 <kfork+0xfc>
  for(i = 0; i < NOFILE; i++)
    800021ae:	04a1                	add	s1,s1,8
    800021b0:	0921                	add	s2,s2,8
    800021b2:	01348963          	beq	s1,s3,800021c4 <kfork+0xa8>
    if(p->ofile[i])
    800021b6:	6088                	ld	a0,0(s1)
    800021b8:	d97d                	beqz	a0,800021ae <kfork+0x92>
      np->ofile[i] = filedup(p->ofile[i]);
    800021ba:	2ce020ef          	jal	80004488 <filedup>
    800021be:	00a93023          	sd	a0,0(s2)
    800021c2:	b7f5                	j	800021ae <kfork+0x92>
  np->cwd = idup(p->cwd);
    800021c4:	150ab503          	ld	a0,336(s5)
    800021c8:	4da010ef          	jal	800036a2 <idup>
    800021cc:	14aa3823          	sd	a0,336(s4)
  safestrcpy(np->name, p->name, sizeof(p->name));
    800021d0:	4641                	li	a2,16
    800021d2:	158a8593          	add	a1,s5,344
    800021d6:	158a0513          	add	a0,s4,344
    800021da:	8a2ff0ef          	jal	8000127c <safestrcpy>
  pid = np->pid;
    800021de:	030a2903          	lw	s2,48(s4)
  release(&np->lock);
    800021e2:	8552                	mv	a0,s4
    800021e4:	f1ffe0ef          	jal	80001102 <release>
  acquire(&wait_lock);
    800021e8:	00016497          	auipc	s1,0x16
    800021ec:	e4848493          	add	s1,s1,-440 # 80018030 <wait_lock>
    800021f0:	8526                	mv	a0,s1
    800021f2:	e79fe0ef          	jal	8000106a <acquire>
  np->parent = p;
    800021f6:	035a3c23          	sd	s5,56(s4)
  release(&wait_lock);
    800021fa:	8526                	mv	a0,s1
    800021fc:	f07fe0ef          	jal	80001102 <release>
  acquire(&np->lock);
    80002200:	8552                	mv	a0,s4
    80002202:	e69fe0ef          	jal	8000106a <acquire>
  np->state = RUNNABLE;
    80002206:	478d                	li	a5,3
    80002208:	00fa2c23          	sw	a5,24(s4)
  release(&np->lock);
    8000220c:	8552                	mv	a0,s4
    8000220e:	ef5fe0ef          	jal	80001102 <release>
  return pid;
    80002212:	74a2                	ld	s1,40(sp)
    80002214:	69e2                	ld	s3,24(sp)
    80002216:	6a42                	ld	s4,16(sp)
}
    80002218:	854a                	mv	a0,s2
    8000221a:	70e2                	ld	ra,56(sp)
    8000221c:	7442                	ld	s0,48(sp)
    8000221e:	7902                	ld	s2,32(sp)
    80002220:	6aa2                	ld	s5,8(sp)
    80002222:	6121                	add	sp,sp,64
    80002224:	8082                	ret
    return -1;
    80002226:	597d                	li	s2,-1
    80002228:	bfc5                	j	80002218 <kfork+0xfc>

000000008000222a <scheduler>:
{
    8000222a:	715d                	add	sp,sp,-80
    8000222c:	e486                	sd	ra,72(sp)
    8000222e:	e0a2                	sd	s0,64(sp)
    80002230:	fc26                	sd	s1,56(sp)
    80002232:	f84a                	sd	s2,48(sp)
    80002234:	f44e                	sd	s3,40(sp)
    80002236:	f052                	sd	s4,32(sp)
    80002238:	ec56                	sd	s5,24(sp)
    8000223a:	e85a                	sd	s6,16(sp)
    8000223c:	e45e                	sd	s7,8(sp)
    8000223e:	e062                	sd	s8,0(sp)
    80002240:	0880                	add	s0,sp,80
    80002242:	8792                	mv	a5,tp
  int id = r_tp();
    80002244:	2781                	sext.w	a5,a5
  c->proc = 0;
    80002246:	00779b13          	sll	s6,a5,0x7
    8000224a:	00016717          	auipc	a4,0x16
    8000224e:	dce70713          	add	a4,a4,-562 # 80018018 <pid_lock>
    80002252:	975a                	add	a4,a4,s6
    80002254:	02073823          	sd	zero,48(a4)
        swtch(&c->context, &p->context);
    80002258:	00016717          	auipc	a4,0x16
    8000225c:	df870713          	add	a4,a4,-520 # 80018050 <cpus+0x8>
    80002260:	9b3a                	add	s6,s6,a4
        p->state = RUNNING;
    80002262:	4c11                	li	s8,4
        c->proc = p;
    80002264:	079e                	sll	a5,a5,0x7
    80002266:	00016a17          	auipc	s4,0x16
    8000226a:	db2a0a13          	add	s4,s4,-590 # 80018018 <pid_lock>
    8000226e:	9a3e                	add	s4,s4,a5
        found = 1;
    80002270:	4b85                	li	s7,1
    for(p = proc; p < &proc[NPROC]; p++) {
    80002272:	0001c997          	auipc	s3,0x1c
    80002276:	bd698993          	add	s3,s3,-1066 # 8001de48 <tickslock>
    8000227a:	a83d                	j	800022b8 <scheduler+0x8e>
      release(&p->lock);
    8000227c:	8526                	mv	a0,s1
    8000227e:	e85fe0ef          	jal	80001102 <release>
    for(p = proc; p < &proc[NPROC]; p++) {
    80002282:	16848493          	add	s1,s1,360
    80002286:	03348563          	beq	s1,s3,800022b0 <scheduler+0x86>
      acquire(&p->lock);
    8000228a:	8526                	mv	a0,s1
    8000228c:	ddffe0ef          	jal	8000106a <acquire>
      if(p->state == RUNNABLE) {
    80002290:	4c9c                	lw	a5,24(s1)
    80002292:	ff2795e3          	bne	a5,s2,8000227c <scheduler+0x52>
        p->state = RUNNING;
    80002296:	0184ac23          	sw	s8,24(s1)
        c->proc = p;
    8000229a:	029a3823          	sd	s1,48(s4)
        swtch(&c->context, &p->context);
    8000229e:	06048593          	add	a1,s1,96
    800022a2:	855a                	mv	a0,s6
    800022a4:	5b2000ef          	jal	80002856 <swtch>
        c->proc = 0;
    800022a8:	020a3823          	sd	zero,48(s4)
        found = 1;
    800022ac:	8ade                	mv	s5,s7
    800022ae:	b7f9                	j	8000227c <scheduler+0x52>
    if(found == 0) {
    800022b0:	000a9463          	bnez	s5,800022b8 <scheduler+0x8e>
      asm volatile("wfi");
    800022b4:	10500073          	wfi
  asm volatile("csrr %0, sstatus" : "=r" (x) );
    800022b8:	100027f3          	csrr	a5,sstatus
  w_sstatus(r_sstatus() | SSTATUS_SIE);
    800022bc:	0027e793          	or	a5,a5,2
  asm volatile("csrw sstatus, %0" : : "r" (x));
    800022c0:	10079073          	csrw	sstatus,a5
  asm volatile("csrr %0, sstatus" : "=r" (x) );
    800022c4:	100027f3          	csrr	a5,sstatus
  w_sstatus(r_sstatus() & ~SSTATUS_SIE);
    800022c8:	9bf5                	and	a5,a5,-3
  asm volatile("csrw sstatus, %0" : : "r" (x));
    800022ca:	10079073          	csrw	sstatus,a5
    int found = 0;
    800022ce:	4a81                	li	s5,0
    for(p = proc; p < &proc[NPROC]; p++) {
    800022d0:	00016497          	auipc	s1,0x16
    800022d4:	17848493          	add	s1,s1,376 # 80018448 <proc>
      if(p->state == RUNNABLE) {
    800022d8:	490d                	li	s2,3
    800022da:	bf45                	j	8000228a <scheduler+0x60>

00000000800022dc <sched>:
{
    800022dc:	7179                	add	sp,sp,-48
    800022de:	f406                	sd	ra,40(sp)
    800022e0:	f022                	sd	s0,32(sp)
    800022e2:	ec26                	sd	s1,24(sp)
    800022e4:	e84a                	sd	s2,16(sp)
    800022e6:	e44e                	sd	s3,8(sp)
    800022e8:	1800                	add	s0,sp,48
  struct proc *p = myproc();
    800022ea:	acfff0ef          	jal	80001db8 <myproc>
    800022ee:	84aa                	mv	s1,a0
  if(!holding(&p->lock))
    800022f0:	d11fe0ef          	jal	80001000 <holding>
    800022f4:	c92d                	beqz	a0,80002366 <sched+0x8a>
  asm volatile("mv %0, tp" : "=r" (x) );
    800022f6:	8792                	mv	a5,tp
  if(mycpu()->noff != 1)
    800022f8:	2781                	sext.w	a5,a5
    800022fa:	079e                	sll	a5,a5,0x7
    800022fc:	00016717          	auipc	a4,0x16
    80002300:	d1c70713          	add	a4,a4,-740 # 80018018 <pid_lock>
    80002304:	97ba                	add	a5,a5,a4
    80002306:	0a87a703          	lw	a4,168(a5)
    8000230a:	4785                	li	a5,1
    8000230c:	06f71363          	bne	a4,a5,80002372 <sched+0x96>
  if(p->state == RUNNING)
    80002310:	4c98                	lw	a4,24(s1)
    80002312:	4791                	li	a5,4
    80002314:	06f70563          	beq	a4,a5,8000237e <sched+0xa2>
  asm volatile("csrr %0, sstatus" : "=r" (x) );
    80002318:	100027f3          	csrr	a5,sstatus
  return (x & SSTATUS_SIE) != 0;
    8000231c:	8b89                	and	a5,a5,2
  if(intr_get())
    8000231e:	e7b5                	bnez	a5,8000238a <sched+0xae>
  asm volatile("mv %0, tp" : "=r" (x) );
    80002320:	8792                	mv	a5,tp
  intena = mycpu()->intena;
    80002322:	00016917          	auipc	s2,0x16
    80002326:	cf690913          	add	s2,s2,-778 # 80018018 <pid_lock>
    8000232a:	2781                	sext.w	a5,a5
    8000232c:	079e                	sll	a5,a5,0x7
    8000232e:	97ca                	add	a5,a5,s2
    80002330:	0ac7a983          	lw	s3,172(a5)
    80002334:	8792                	mv	a5,tp
  swtch(&p->context, &mycpu()->context);
    80002336:	2781                	sext.w	a5,a5
    80002338:	079e                	sll	a5,a5,0x7
    8000233a:	00016597          	auipc	a1,0x16
    8000233e:	d1658593          	add	a1,a1,-746 # 80018050 <cpus+0x8>
    80002342:	95be                	add	a1,a1,a5
    80002344:	06048513          	add	a0,s1,96
    80002348:	50e000ef          	jal	80002856 <swtch>
    8000234c:	8792                	mv	a5,tp
  mycpu()->intena = intena;
    8000234e:	2781                	sext.w	a5,a5
    80002350:	079e                	sll	a5,a5,0x7
    80002352:	993e                	add	s2,s2,a5
    80002354:	0b392623          	sw	s3,172(s2)
}
    80002358:	70a2                	ld	ra,40(sp)
    8000235a:	7402                	ld	s0,32(sp)
    8000235c:	64e2                	ld	s1,24(sp)
    8000235e:	6942                	ld	s2,16(sp)
    80002360:	69a2                	ld	s3,8(sp)
    80002362:	6145                	add	sp,sp,48
    80002364:	8082                	ret
    panic("sched p->lock");
    80002366:	0000c517          	auipc	a0,0xc
    8000236a:	eba50513          	add	a0,a0,-326 # 8000e220 <IP_ADDR_ANY+0x204>
    8000236e:	cbefe0ef          	jal	8000082c <panic>
    panic("sched locks");
    80002372:	0000c517          	auipc	a0,0xc
    80002376:	ebe50513          	add	a0,a0,-322 # 8000e230 <IP_ADDR_ANY+0x214>
    8000237a:	cb2fe0ef          	jal	8000082c <panic>
    panic("sched RUNNING");
    8000237e:	0000c517          	auipc	a0,0xc
    80002382:	ec250513          	add	a0,a0,-318 # 8000e240 <IP_ADDR_ANY+0x224>
    80002386:	ca6fe0ef          	jal	8000082c <panic>
    panic("sched interruptible");
    8000238a:	0000c517          	auipc	a0,0xc
    8000238e:	ec650513          	add	a0,a0,-314 # 8000e250 <IP_ADDR_ANY+0x234>
    80002392:	c9afe0ef          	jal	8000082c <panic>

0000000080002396 <yield>:
{
    80002396:	1101                	add	sp,sp,-32
    80002398:	ec06                	sd	ra,24(sp)
    8000239a:	e822                	sd	s0,16(sp)
    8000239c:	e426                	sd	s1,8(sp)
    8000239e:	1000                	add	s0,sp,32
  struct proc *p = myproc();
    800023a0:	a19ff0ef          	jal	80001db8 <myproc>
    800023a4:	84aa                	mv	s1,a0
  acquire(&p->lock);
    800023a6:	cc5fe0ef          	jal	8000106a <acquire>
  p->state = RUNNABLE;
    800023aa:	478d                	li	a5,3
    800023ac:	cc9c                	sw	a5,24(s1)
  sched();
    800023ae:	f2fff0ef          	jal	800022dc <sched>
  release(&p->lock);
    800023b2:	8526                	mv	a0,s1
    800023b4:	d4ffe0ef          	jal	80001102 <release>
}
    800023b8:	60e2                	ld	ra,24(sp)
    800023ba:	6442                	ld	s0,16(sp)
    800023bc:	64a2                	ld	s1,8(sp)
    800023be:	6105                	add	sp,sp,32
    800023c0:	8082                	ret

00000000800023c2 <sleep>:

// Sleep on channel chan, releasing condition lock lk.
// Re-acquires lk when awakened.
void
sleep(void *chan, struct spinlock *lk)
{
    800023c2:	7179                	add	sp,sp,-48
    800023c4:	f406                	sd	ra,40(sp)
    800023c6:	f022                	sd	s0,32(sp)
    800023c8:	ec26                	sd	s1,24(sp)
    800023ca:	e84a                	sd	s2,16(sp)
    800023cc:	e44e                	sd	s3,8(sp)
    800023ce:	1800                	add	s0,sp,48
    800023d0:	89aa                	mv	s3,a0
    800023d2:	892e                	mv	s2,a1
  struct proc *p = myproc();
    800023d4:	9e5ff0ef          	jal	80001db8 <myproc>
    800023d8:	84aa                	mv	s1,a0
  // Once we hold p->lock, we can be
  // guaranteed that we won't miss any wakeup
  // (wakeup locks p->lock),
  // so it's okay to release lk.

  acquire(&p->lock);  //DOC: sleeplock1
    800023da:	c91fe0ef          	jal	8000106a <acquire>
  release(lk);
    800023de:	854a                	mv	a0,s2
    800023e0:	d23fe0ef          	jal	80001102 <release>

  // Go to sleep.
  p->chan = chan;
    800023e4:	0334b023          	sd	s3,32(s1)
  p->state = SLEEPING;
    800023e8:	4789                	li	a5,2
    800023ea:	cc9c                	sw	a5,24(s1)

  sched();
    800023ec:	ef1ff0ef          	jal	800022dc <sched>

  // Tidy up.
  p->chan = 0;
    800023f0:	0204b023          	sd	zero,32(s1)

  // Reacquire original lock.
  release(&p->lock);
    800023f4:	8526                	mv	a0,s1
    800023f6:	d0dfe0ef          	jal	80001102 <release>
  acquire(lk);
    800023fa:	854a                	mv	a0,s2
    800023fc:	c6ffe0ef          	jal	8000106a <acquire>
}
    80002400:	70a2                	ld	ra,40(sp)
    80002402:	7402                	ld	s0,32(sp)
    80002404:	64e2                	ld	s1,24(sp)
    80002406:	6942                	ld	s2,16(sp)
    80002408:	69a2                	ld	s3,8(sp)
    8000240a:	6145                	add	sp,sp,48
    8000240c:	8082                	ret

000000008000240e <wakeup>:

// Wake up all processes sleeping on channel chan.
// Caller should hold the condition lock.
void
wakeup(void *chan)
{
    8000240e:	7139                	add	sp,sp,-64
    80002410:	fc06                	sd	ra,56(sp)
    80002412:	f822                	sd	s0,48(sp)
    80002414:	f426                	sd	s1,40(sp)
    80002416:	f04a                	sd	s2,32(sp)
    80002418:	ec4e                	sd	s3,24(sp)
    8000241a:	e852                	sd	s4,16(sp)
    8000241c:	e456                	sd	s5,8(sp)
    8000241e:	0080                	add	s0,sp,64
    80002420:	8a2a                	mv	s4,a0
  struct proc *p;

  for(p = proc; p < &proc[NPROC]; p++) {
    80002422:	00016497          	auipc	s1,0x16
    80002426:	02648493          	add	s1,s1,38 # 80018448 <proc>
    if(p != myproc()){
      acquire(&p->lock);
      if(p->state == SLEEPING && p->chan == chan) {
    8000242a:	4989                	li	s3,2
        p->state = RUNNABLE;
    8000242c:	4a8d                	li	s5,3
  for(p = proc; p < &proc[NPROC]; p++) {
    8000242e:	0001c917          	auipc	s2,0x1c
    80002432:	a1a90913          	add	s2,s2,-1510 # 8001de48 <tickslock>
    80002436:	a801                	j	80002446 <wakeup+0x38>
      }
      release(&p->lock);
    80002438:	8526                	mv	a0,s1
    8000243a:	cc9fe0ef          	jal	80001102 <release>
  for(p = proc; p < &proc[NPROC]; p++) {
    8000243e:	16848493          	add	s1,s1,360
    80002442:	03248263          	beq	s1,s2,80002466 <wakeup+0x58>
    if(p != myproc()){
    80002446:	973ff0ef          	jal	80001db8 <myproc>
    8000244a:	fea48ae3          	beq	s1,a0,8000243e <wakeup+0x30>
      acquire(&p->lock);
    8000244e:	8526                	mv	a0,s1
    80002450:	c1bfe0ef          	jal	8000106a <acquire>
      if(p->state == SLEEPING && p->chan == chan) {
    80002454:	4c9c                	lw	a5,24(s1)
    80002456:	ff3791e3          	bne	a5,s3,80002438 <wakeup+0x2a>
    8000245a:	709c                	ld	a5,32(s1)
    8000245c:	fd479ee3          	bne	a5,s4,80002438 <wakeup+0x2a>
        p->state = RUNNABLE;
    80002460:	0154ac23          	sw	s5,24(s1)
    80002464:	bfd1                	j	80002438 <wakeup+0x2a>
    }
  }
}
    80002466:	70e2                	ld	ra,56(sp)
    80002468:	7442                	ld	s0,48(sp)
    8000246a:	74a2                	ld	s1,40(sp)
    8000246c:	7902                	ld	s2,32(sp)
    8000246e:	69e2                	ld	s3,24(sp)
    80002470:	6a42                	ld	s4,16(sp)
    80002472:	6aa2                	ld	s5,8(sp)
    80002474:	6121                	add	sp,sp,64
    80002476:	8082                	ret

0000000080002478 <reparent>:
{
    80002478:	7179                	add	sp,sp,-48
    8000247a:	f406                	sd	ra,40(sp)
    8000247c:	f022                	sd	s0,32(sp)
    8000247e:	ec26                	sd	s1,24(sp)
    80002480:	e84a                	sd	s2,16(sp)
    80002482:	e44e                	sd	s3,8(sp)
    80002484:	e052                	sd	s4,0(sp)
    80002486:	1800                	add	s0,sp,48
    80002488:	892a                	mv	s2,a0
  for(pp = proc; pp < &proc[NPROC]; pp++){
    8000248a:	00016497          	auipc	s1,0x16
    8000248e:	fbe48493          	add	s1,s1,-66 # 80018448 <proc>
      pp->parent = initproc;
    80002492:	0000ea17          	auipc	s4,0xe
    80002496:	a2ea0a13          	add	s4,s4,-1490 # 8000fec0 <initproc>
  for(pp = proc; pp < &proc[NPROC]; pp++){
    8000249a:	0001c997          	auipc	s3,0x1c
    8000249e:	9ae98993          	add	s3,s3,-1618 # 8001de48 <tickslock>
    800024a2:	a029                	j	800024ac <reparent+0x34>
    800024a4:	16848493          	add	s1,s1,360
    800024a8:	01348b63          	beq	s1,s3,800024be <reparent+0x46>
    if(pp->parent == p){
    800024ac:	7c9c                	ld	a5,56(s1)
    800024ae:	ff279be3          	bne	a5,s2,800024a4 <reparent+0x2c>
      pp->parent = initproc;
    800024b2:	000a3503          	ld	a0,0(s4)
    800024b6:	fc88                	sd	a0,56(s1)
      wakeup(initproc);
    800024b8:	f57ff0ef          	jal	8000240e <wakeup>
    800024bc:	b7e5                	j	800024a4 <reparent+0x2c>
}
    800024be:	70a2                	ld	ra,40(sp)
    800024c0:	7402                	ld	s0,32(sp)
    800024c2:	64e2                	ld	s1,24(sp)
    800024c4:	6942                	ld	s2,16(sp)
    800024c6:	69a2                	ld	s3,8(sp)
    800024c8:	6a02                	ld	s4,0(sp)
    800024ca:	6145                	add	sp,sp,48
    800024cc:	8082                	ret

00000000800024ce <kexit>:
{
    800024ce:	7179                	add	sp,sp,-48
    800024d0:	f406                	sd	ra,40(sp)
    800024d2:	f022                	sd	s0,32(sp)
    800024d4:	ec26                	sd	s1,24(sp)
    800024d6:	e84a                	sd	s2,16(sp)
    800024d8:	e44e                	sd	s3,8(sp)
    800024da:	e052                	sd	s4,0(sp)
    800024dc:	1800                	add	s0,sp,48
    800024de:	8a2a                	mv	s4,a0
  struct proc *p = myproc();
    800024e0:	8d9ff0ef          	jal	80001db8 <myproc>
    800024e4:	89aa                	mv	s3,a0
  if(p == initproc)
    800024e6:	0000e797          	auipc	a5,0xe
    800024ea:	9da7b783          	ld	a5,-1574(a5) # 8000fec0 <initproc>
    800024ee:	0d050493          	add	s1,a0,208
    800024f2:	15050913          	add	s2,a0,336
    800024f6:	00a79f63          	bne	a5,a0,80002514 <kexit+0x46>
    panic("init exiting");
    800024fa:	0000c517          	auipc	a0,0xc
    800024fe:	d6e50513          	add	a0,a0,-658 # 8000e268 <IP_ADDR_ANY+0x24c>
    80002502:	b2afe0ef          	jal	8000082c <panic>
      fileclose(f);
    80002506:	7c9010ef          	jal	800044ce <fileclose>
      p->ofile[fd] = 0;
    8000250a:	0004b023          	sd	zero,0(s1)
  for(int fd = 0; fd < NOFILE; fd++){
    8000250e:	04a1                	add	s1,s1,8
    80002510:	01248563          	beq	s1,s2,8000251a <kexit+0x4c>
    if(p->ofile[fd]){
    80002514:	6088                	ld	a0,0(s1)
    80002516:	f965                	bnez	a0,80002506 <kexit+0x38>
    80002518:	bfdd                	j	8000250e <kexit+0x40>
  begin_op();
    8000251a:	3a9010ef          	jal	800040c2 <begin_op>
  iput(p->cwd);
    8000251e:	1509b503          	ld	a0,336(s3)
    80002522:	338010ef          	jal	8000385a <iput>
  end_op();
    80002526:	407010ef          	jal	8000412c <end_op>
  p->cwd = 0;
    8000252a:	1409b823          	sd	zero,336(s3)
  acquire(&wait_lock);
    8000252e:	00016497          	auipc	s1,0x16
    80002532:	b0248493          	add	s1,s1,-1278 # 80018030 <wait_lock>
    80002536:	8526                	mv	a0,s1
    80002538:	b33fe0ef          	jal	8000106a <acquire>
  reparent(p);
    8000253c:	854e                	mv	a0,s3
    8000253e:	f3bff0ef          	jal	80002478 <reparent>
  wakeup(p->parent);
    80002542:	0389b503          	ld	a0,56(s3)
    80002546:	ec9ff0ef          	jal	8000240e <wakeup>
  acquire(&p->lock);
    8000254a:	854e                	mv	a0,s3
    8000254c:	b1ffe0ef          	jal	8000106a <acquire>
  p->xstate = status;
    80002550:	0349a623          	sw	s4,44(s3)
  p->state = ZOMBIE;
    80002554:	4795                	li	a5,5
    80002556:	00f9ac23          	sw	a5,24(s3)
  release(&wait_lock);
    8000255a:	8526                	mv	a0,s1
    8000255c:	ba7fe0ef          	jal	80001102 <release>
  sched();
    80002560:	d7dff0ef          	jal	800022dc <sched>
  panic("zombie exit");
    80002564:	0000c517          	auipc	a0,0xc
    80002568:	d1450513          	add	a0,a0,-748 # 8000e278 <IP_ADDR_ANY+0x25c>
    8000256c:	ac0fe0ef          	jal	8000082c <panic>

0000000080002570 <kkill>:
// Kill the process with the given pid.
// The victim won't exit until it tries to return
// to user space (see usertrap() in trap.c).
int
kkill(int pid)
{
    80002570:	7179                	add	sp,sp,-48
    80002572:	f406                	sd	ra,40(sp)
    80002574:	f022                	sd	s0,32(sp)
    80002576:	ec26                	sd	s1,24(sp)
    80002578:	e84a                	sd	s2,16(sp)
    8000257a:	e44e                	sd	s3,8(sp)
    8000257c:	1800                	add	s0,sp,48
    8000257e:	892a                	mv	s2,a0
  struct proc *p;

  for(p = proc; p < &proc[NPROC]; p++){
    80002580:	00016497          	auipc	s1,0x16
    80002584:	ec848493          	add	s1,s1,-312 # 80018448 <proc>
    80002588:	0001c997          	auipc	s3,0x1c
    8000258c:	8c098993          	add	s3,s3,-1856 # 8001de48 <tickslock>
    acquire(&p->lock);
    80002590:	8526                	mv	a0,s1
    80002592:	ad9fe0ef          	jal	8000106a <acquire>
    if(p->pid == pid){
    80002596:	589c                	lw	a5,48(s1)
    80002598:	01278b63          	beq	a5,s2,800025ae <kkill+0x3e>
        p->state = RUNNABLE;
      }
      release(&p->lock);
      return 0;
    }
    release(&p->lock);
    8000259c:	8526                	mv	a0,s1
    8000259e:	b65fe0ef          	jal	80001102 <release>
  for(p = proc; p < &proc[NPROC]; p++){
    800025a2:	16848493          	add	s1,s1,360
    800025a6:	ff3495e3          	bne	s1,s3,80002590 <kkill+0x20>
  }
  return -1;
    800025aa:	557d                	li	a0,-1
    800025ac:	a819                	j	800025c2 <kkill+0x52>
      p->killed = 1;
    800025ae:	4785                	li	a5,1
    800025b0:	d49c                	sw	a5,40(s1)
      if(p->state == SLEEPING){
    800025b2:	4c98                	lw	a4,24(s1)
    800025b4:	4789                	li	a5,2
    800025b6:	00f70d63          	beq	a4,a5,800025d0 <kkill+0x60>
      release(&p->lock);
    800025ba:	8526                	mv	a0,s1
    800025bc:	b47fe0ef          	jal	80001102 <release>
      return 0;
    800025c0:	4501                	li	a0,0
}
    800025c2:	70a2                	ld	ra,40(sp)
    800025c4:	7402                	ld	s0,32(sp)
    800025c6:	64e2                	ld	s1,24(sp)
    800025c8:	6942                	ld	s2,16(sp)
    800025ca:	69a2                	ld	s3,8(sp)
    800025cc:	6145                	add	sp,sp,48
    800025ce:	8082                	ret
        p->state = RUNNABLE;
    800025d0:	478d                	li	a5,3
    800025d2:	cc9c                	sw	a5,24(s1)
    800025d4:	b7dd                	j	800025ba <kkill+0x4a>

00000000800025d6 <setkilled>:

void
setkilled(struct proc *p)
{
    800025d6:	1101                	add	sp,sp,-32
    800025d8:	ec06                	sd	ra,24(sp)
    800025da:	e822                	sd	s0,16(sp)
    800025dc:	e426                	sd	s1,8(sp)
    800025de:	1000                	add	s0,sp,32
    800025e0:	84aa                	mv	s1,a0
  acquire(&p->lock);
    800025e2:	a89fe0ef          	jal	8000106a <acquire>
  p->killed = 1;
    800025e6:	4785                	li	a5,1
    800025e8:	d49c                	sw	a5,40(s1)
  release(&p->lock);
    800025ea:	8526                	mv	a0,s1
    800025ec:	b17fe0ef          	jal	80001102 <release>
}
    800025f0:	60e2                	ld	ra,24(sp)
    800025f2:	6442                	ld	s0,16(sp)
    800025f4:	64a2                	ld	s1,8(sp)
    800025f6:	6105                	add	sp,sp,32
    800025f8:	8082                	ret

00000000800025fa <killed>:

int
killed(struct proc *p)
{
    800025fa:	1101                	add	sp,sp,-32
    800025fc:	ec06                	sd	ra,24(sp)
    800025fe:	e822                	sd	s0,16(sp)
    80002600:	e426                	sd	s1,8(sp)
    80002602:	e04a                	sd	s2,0(sp)
    80002604:	1000                	add	s0,sp,32
    80002606:	84aa                	mv	s1,a0
  int k;
  
  acquire(&p->lock);
    80002608:	a63fe0ef          	jal	8000106a <acquire>
  k = p->killed;
    8000260c:	0284a903          	lw	s2,40(s1)
  release(&p->lock);
    80002610:	8526                	mv	a0,s1
    80002612:	af1fe0ef          	jal	80001102 <release>
  return k;
}
    80002616:	854a                	mv	a0,s2
    80002618:	60e2                	ld	ra,24(sp)
    8000261a:	6442                	ld	s0,16(sp)
    8000261c:	64a2                	ld	s1,8(sp)
    8000261e:	6902                	ld	s2,0(sp)
    80002620:	6105                	add	sp,sp,32
    80002622:	8082                	ret

0000000080002624 <kwait>:
{
    80002624:	715d                	add	sp,sp,-80
    80002626:	e486                	sd	ra,72(sp)
    80002628:	e0a2                	sd	s0,64(sp)
    8000262a:	fc26                	sd	s1,56(sp)
    8000262c:	f84a                	sd	s2,48(sp)
    8000262e:	f44e                	sd	s3,40(sp)
    80002630:	f052                	sd	s4,32(sp)
    80002632:	ec56                	sd	s5,24(sp)
    80002634:	e85a                	sd	s6,16(sp)
    80002636:	e45e                	sd	s7,8(sp)
    80002638:	e062                	sd	s8,0(sp)
    8000263a:	0880                	add	s0,sp,80
    8000263c:	8b2a                	mv	s6,a0
  struct proc *p = myproc();
    8000263e:	f7aff0ef          	jal	80001db8 <myproc>
    80002642:	892a                	mv	s2,a0
  acquire(&wait_lock);
    80002644:	00016517          	auipc	a0,0x16
    80002648:	9ec50513          	add	a0,a0,-1556 # 80018030 <wait_lock>
    8000264c:	a1ffe0ef          	jal	8000106a <acquire>
    havekids = 0;
    80002650:	4b81                	li	s7,0
        if(pp->state == ZOMBIE){
    80002652:	4a15                	li	s4,5
        havekids = 1;
    80002654:	4a85                	li	s5,1
    for(pp = proc; pp < &proc[NPROC]; pp++){
    80002656:	0001b997          	auipc	s3,0x1b
    8000265a:	7f298993          	add	s3,s3,2034 # 8001de48 <tickslock>
    sleep(p, &wait_lock);  //DOC: wait-sleep
    8000265e:	00016c17          	auipc	s8,0x16
    80002662:	9d2c0c13          	add	s8,s8,-1582 # 80018030 <wait_lock>
    80002666:	a871                	j	80002702 <kwait+0xde>
          pid = pp->pid;
    80002668:	0304a983          	lw	s3,48(s1)
          if(addr != 0 && copyout(p->pagetable, addr, (char *)&pp->xstate,
    8000266c:	000b0c63          	beqz	s6,80002684 <kwait+0x60>
    80002670:	4691                	li	a3,4
    80002672:	02c48613          	add	a2,s1,44
    80002676:	85da                	mv	a1,s6
    80002678:	05093503          	ld	a0,80(s2)
    8000267c:	c50ff0ef          	jal	80001acc <copyout>
    80002680:	02054b63          	bltz	a0,800026b6 <kwait+0x92>
          freeproc(pp);
    80002684:	8526                	mv	a0,s1
    80002686:	903ff0ef          	jal	80001f88 <freeproc>
          release(&pp->lock);
    8000268a:	8526                	mv	a0,s1
    8000268c:	a77fe0ef          	jal	80001102 <release>
          release(&wait_lock);
    80002690:	00016517          	auipc	a0,0x16
    80002694:	9a050513          	add	a0,a0,-1632 # 80018030 <wait_lock>
    80002698:	a6bfe0ef          	jal	80001102 <release>
}
    8000269c:	854e                	mv	a0,s3
    8000269e:	60a6                	ld	ra,72(sp)
    800026a0:	6406                	ld	s0,64(sp)
    800026a2:	74e2                	ld	s1,56(sp)
    800026a4:	7942                	ld	s2,48(sp)
    800026a6:	79a2                	ld	s3,40(sp)
    800026a8:	7a02                	ld	s4,32(sp)
    800026aa:	6ae2                	ld	s5,24(sp)
    800026ac:	6b42                	ld	s6,16(sp)
    800026ae:	6ba2                	ld	s7,8(sp)
    800026b0:	6c02                	ld	s8,0(sp)
    800026b2:	6161                	add	sp,sp,80
    800026b4:	8082                	ret
            release(&pp->lock);
    800026b6:	8526                	mv	a0,s1
    800026b8:	a4bfe0ef          	jal	80001102 <release>
            release(&wait_lock);
    800026bc:	00016517          	auipc	a0,0x16
    800026c0:	97450513          	add	a0,a0,-1676 # 80018030 <wait_lock>
    800026c4:	a3ffe0ef          	jal	80001102 <release>
            return -1;
    800026c8:	59fd                	li	s3,-1
    800026ca:	bfc9                	j	8000269c <kwait+0x78>
    for(pp = proc; pp < &proc[NPROC]; pp++){
    800026cc:	16848493          	add	s1,s1,360
    800026d0:	03348063          	beq	s1,s3,800026f0 <kwait+0xcc>
      if(pp->parent == p){
    800026d4:	7c9c                	ld	a5,56(s1)
    800026d6:	ff279be3          	bne	a5,s2,800026cc <kwait+0xa8>
        acquire(&pp->lock);
    800026da:	8526                	mv	a0,s1
    800026dc:	98ffe0ef          	jal	8000106a <acquire>
        if(pp->state == ZOMBIE){
    800026e0:	4c9c                	lw	a5,24(s1)
    800026e2:	f94783e3          	beq	a5,s4,80002668 <kwait+0x44>
        release(&pp->lock);
    800026e6:	8526                	mv	a0,s1
    800026e8:	a1bfe0ef          	jal	80001102 <release>
        havekids = 1;
    800026ec:	8756                	mv	a4,s5
    800026ee:	bff9                	j	800026cc <kwait+0xa8>
    if(!havekids || killed(p)){
    800026f0:	cf19                	beqz	a4,8000270e <kwait+0xea>
    800026f2:	854a                	mv	a0,s2
    800026f4:	f07ff0ef          	jal	800025fa <killed>
    800026f8:	e919                	bnez	a0,8000270e <kwait+0xea>
    sleep(p, &wait_lock);  //DOC: wait-sleep
    800026fa:	85e2                	mv	a1,s8
    800026fc:	854a                	mv	a0,s2
    800026fe:	cc5ff0ef          	jal	800023c2 <sleep>
    havekids = 0;
    80002702:	875e                	mv	a4,s7
    for(pp = proc; pp < &proc[NPROC]; pp++){
    80002704:	00016497          	auipc	s1,0x16
    80002708:	d4448493          	add	s1,s1,-700 # 80018448 <proc>
    8000270c:	b7e1                	j	800026d4 <kwait+0xb0>
      release(&wait_lock);
    8000270e:	00016517          	auipc	a0,0x16
    80002712:	92250513          	add	a0,a0,-1758 # 80018030 <wait_lock>
    80002716:	9edfe0ef          	jal	80001102 <release>
      return -1;
    8000271a:	59fd                	li	s3,-1
    8000271c:	b741                	j	8000269c <kwait+0x78>

000000008000271e <either_copyout>:
// Copy to either a user address, or kernel address,
// depending on usr_dst.
// Returns 0 on success, -1 on error.
int
either_copyout(int user_dst, uint64 dst, void *src, uint64 len)
{
    8000271e:	7179                	add	sp,sp,-48
    80002720:	f406                	sd	ra,40(sp)
    80002722:	f022                	sd	s0,32(sp)
    80002724:	ec26                	sd	s1,24(sp)
    80002726:	e84a                	sd	s2,16(sp)
    80002728:	e44e                	sd	s3,8(sp)
    8000272a:	e052                	sd	s4,0(sp)
    8000272c:	1800                	add	s0,sp,48
    8000272e:	84aa                	mv	s1,a0
    80002730:	892e                	mv	s2,a1
    80002732:	89b2                	mv	s3,a2
    80002734:	8a36                	mv	s4,a3
  struct proc *p = myproc();
    80002736:	e82ff0ef          	jal	80001db8 <myproc>
  if(user_dst){
    8000273a:	cc99                	beqz	s1,80002758 <either_copyout+0x3a>
    return copyout(p->pagetable, dst, src, len);
    8000273c:	86d2                	mv	a3,s4
    8000273e:	864e                	mv	a2,s3
    80002740:	85ca                	mv	a1,s2
    80002742:	6928                	ld	a0,80(a0)
    80002744:	b88ff0ef          	jal	80001acc <copyout>
  } else {
    memmove((char *)dst, src, len);
    return 0;
  }
}
    80002748:	70a2                	ld	ra,40(sp)
    8000274a:	7402                	ld	s0,32(sp)
    8000274c:	64e2                	ld	s1,24(sp)
    8000274e:	6942                	ld	s2,16(sp)
    80002750:	69a2                	ld	s3,8(sp)
    80002752:	6a02                	ld	s4,0(sp)
    80002754:	6145                	add	sp,sp,48
    80002756:	8082                	ret
    memmove((char *)dst, src, len);
    80002758:	000a061b          	sext.w	a2,s4
    8000275c:	85ce                	mv	a1,s3
    8000275e:	854a                	mv	a0,s2
    80002760:	a3bfe0ef          	jal	8000119a <memmove>
    return 0;
    80002764:	8526                	mv	a0,s1
    80002766:	b7cd                	j	80002748 <either_copyout+0x2a>

0000000080002768 <either_copyin>:
// Copy from either a user address, or kernel address,
// depending on usr_src.
// Returns 0 on success, -1 on error.
int
either_copyin(void *dst, int user_src, uint64 src, uint64 len)
{
    80002768:	7179                	add	sp,sp,-48
    8000276a:	f406                	sd	ra,40(sp)
    8000276c:	f022                	sd	s0,32(sp)
    8000276e:	ec26                	sd	s1,24(sp)
    80002770:	e84a                	sd	s2,16(sp)
    80002772:	e44e                	sd	s3,8(sp)
    80002774:	e052                	sd	s4,0(sp)
    80002776:	1800                	add	s0,sp,48
    80002778:	892a                	mv	s2,a0
    8000277a:	84ae                	mv	s1,a1
    8000277c:	89b2                	mv	s3,a2
    8000277e:	8a36                	mv	s4,a3
  struct proc *p = myproc();
    80002780:	e38ff0ef          	jal	80001db8 <myproc>
  if(user_src){
    80002784:	cc99                	beqz	s1,800027a2 <either_copyin+0x3a>
    return copyin(p->pagetable, dst, src, len);
    80002786:	86d2                	mv	a3,s4
    80002788:	864e                	mv	a2,s3
    8000278a:	85ca                	mv	a1,s2
    8000278c:	6928                	ld	a0,80(a0)
    8000278e:	c22ff0ef          	jal	80001bb0 <copyin>
  } else {
    memmove(dst, (char*)src, len);
    return 0;
  }
}
    80002792:	70a2                	ld	ra,40(sp)
    80002794:	7402                	ld	s0,32(sp)
    80002796:	64e2                	ld	s1,24(sp)
    80002798:	6942                	ld	s2,16(sp)
    8000279a:	69a2                	ld	s3,8(sp)
    8000279c:	6a02                	ld	s4,0(sp)
    8000279e:	6145                	add	sp,sp,48
    800027a0:	8082                	ret
    memmove(dst, (char*)src, len);
    800027a2:	000a061b          	sext.w	a2,s4
    800027a6:	85ce                	mv	a1,s3
    800027a8:	854a                	mv	a0,s2
    800027aa:	9f1fe0ef          	jal	8000119a <memmove>
    return 0;
    800027ae:	8526                	mv	a0,s1
    800027b0:	b7cd                	j	80002792 <either_copyin+0x2a>

00000000800027b2 <procdump>:
// Print a process listing to console.  For debugging.
// Runs when user types ^P on console.
// No lock to avoid wedging a stuck machine further.
void
procdump(void)
{
    800027b2:	715d                	add	sp,sp,-80
    800027b4:	e486                	sd	ra,72(sp)
    800027b6:	e0a2                	sd	s0,64(sp)
    800027b8:	fc26                	sd	s1,56(sp)
    800027ba:	f84a                	sd	s2,48(sp)
    800027bc:	f44e                	sd	s3,40(sp)
    800027be:	f052                	sd	s4,32(sp)
    800027c0:	ec56                	sd	s5,24(sp)
    800027c2:	e85a                	sd	s6,16(sp)
    800027c4:	e45e                	sd	s7,8(sp)
    800027c6:	0880                	add	s0,sp,80
  [ZOMBIE]    "zombie"
  };
  struct proc *p;
  char *state;

  printf("\n");
    800027c8:	0000d517          	auipc	a0,0xd
    800027cc:	bf050513          	add	a0,a0,-1040 # 8000f3b8 <IP_ADDR_ANY+0x139c>
    800027d0:	d77fd0ef          	jal	80000546 <printf>
  for(p = proc; p < &proc[NPROC]; p++){
    800027d4:	00016497          	auipc	s1,0x16
    800027d8:	dcc48493          	add	s1,s1,-564 # 800185a0 <proc+0x158>
    800027dc:	0001b917          	auipc	s2,0x1b
    800027e0:	7c490913          	add	s2,s2,1988 # 8001dfa0 <bcache+0x140>
    if(p->state == UNUSED)
      continue;
    if(p->state >= 0 && p->state < NELEM(states) && states[p->state])
    800027e4:	4b15                	li	s6,5
      state = states[p->state];
    else
      state = "???";
    800027e6:	0000c997          	auipc	s3,0xc
    800027ea:	aa298993          	add	s3,s3,-1374 # 8000e288 <IP_ADDR_ANY+0x26c>
    printf("%d %s %s", p->pid, state, p->name);
    800027ee:	0000ca97          	auipc	s5,0xc
    800027f2:	aa2a8a93          	add	s5,s5,-1374 # 8000e290 <IP_ADDR_ANY+0x274>
    printf("\n");
    800027f6:	0000da17          	auipc	s4,0xd
    800027fa:	bc2a0a13          	add	s4,s4,-1086 # 8000f3b8 <IP_ADDR_ANY+0x139c>
    if(p->state >= 0 && p->state < NELEM(states) && states[p->state])
    800027fe:	0000db97          	auipc	s7,0xd
    80002802:	132b8b93          	add	s7,s7,306 # 8000f930 <states.0>
    80002806:	a829                	j	80002820 <procdump+0x6e>
    printf("%d %s %s", p->pid, state, p->name);
    80002808:	ed86a583          	lw	a1,-296(a3)
    8000280c:	8556                	mv	a0,s5
    8000280e:	d39fd0ef          	jal	80000546 <printf>
    printf("\n");
    80002812:	8552                	mv	a0,s4
    80002814:	d33fd0ef          	jal	80000546 <printf>
  for(p = proc; p < &proc[NPROC]; p++){
    80002818:	16848493          	add	s1,s1,360
    8000281c:	03248263          	beq	s1,s2,80002840 <procdump+0x8e>
    if(p->state == UNUSED)
    80002820:	86a6                	mv	a3,s1
    80002822:	ec04a783          	lw	a5,-320(s1)
    80002826:	dbed                	beqz	a5,80002818 <procdump+0x66>
      state = "???";
    80002828:	864e                	mv	a2,s3
    if(p->state >= 0 && p->state < NELEM(states) && states[p->state])
    8000282a:	fcfb6fe3          	bltu	s6,a5,80002808 <procdump+0x56>
    8000282e:	02079713          	sll	a4,a5,0x20
    80002832:	01d75793          	srl	a5,a4,0x1d
    80002836:	97de                	add	a5,a5,s7
    80002838:	6390                	ld	a2,0(a5)
    8000283a:	f679                	bnez	a2,80002808 <procdump+0x56>
      state = "???";
    8000283c:	864e                	mv	a2,s3
    8000283e:	b7e9                	j	80002808 <procdump+0x56>
  }
}
    80002840:	60a6                	ld	ra,72(sp)
    80002842:	6406                	ld	s0,64(sp)
    80002844:	74e2                	ld	s1,56(sp)
    80002846:	7942                	ld	s2,48(sp)
    80002848:	79a2                	ld	s3,40(sp)
    8000284a:	7a02                	ld	s4,32(sp)
    8000284c:	6ae2                	ld	s5,24(sp)
    8000284e:	6b42                	ld	s6,16(sp)
    80002850:	6ba2                	ld	s7,8(sp)
    80002852:	6161                	add	sp,sp,80
    80002854:	8082                	ret

0000000080002856 <swtch>:
# Save current registers in old. Load from new.	


.globl swtch
swtch:
        sd ra, 0(a0)
    80002856:	00153023          	sd	ra,0(a0)
        sd sp, 8(a0)
    8000285a:	00253423          	sd	sp,8(a0)
        sd s0, 16(a0)
    8000285e:	e900                	sd	s0,16(a0)
        sd s1, 24(a0)
    80002860:	ed04                	sd	s1,24(a0)
        sd s2, 32(a0)
    80002862:	03253023          	sd	s2,32(a0)
        sd s3, 40(a0)
    80002866:	03353423          	sd	s3,40(a0)
        sd s4, 48(a0)
    8000286a:	03453823          	sd	s4,48(a0)
        sd s5, 56(a0)
    8000286e:	03553c23          	sd	s5,56(a0)
        sd s6, 64(a0)
    80002872:	05653023          	sd	s6,64(a0)
        sd s7, 72(a0)
    80002876:	05753423          	sd	s7,72(a0)
        sd s8, 80(a0)
    8000287a:	05853823          	sd	s8,80(a0)
        sd s9, 88(a0)
    8000287e:	05953c23          	sd	s9,88(a0)
        sd s10, 96(a0)
    80002882:	07a53023          	sd	s10,96(a0)
        sd s11, 104(a0)
    80002886:	07b53423          	sd	s11,104(a0)

        ld ra, 0(a1)
    8000288a:	0005b083          	ld	ra,0(a1)
        ld sp, 8(a1)
    8000288e:	0085b103          	ld	sp,8(a1)
        ld s0, 16(a1)
    80002892:	6980                	ld	s0,16(a1)
        ld s1, 24(a1)
    80002894:	6d84                	ld	s1,24(a1)
        ld s2, 32(a1)
    80002896:	0205b903          	ld	s2,32(a1)
        ld s3, 40(a1)
    8000289a:	0285b983          	ld	s3,40(a1)
        ld s4, 48(a1)
    8000289e:	0305ba03          	ld	s4,48(a1)
        ld s5, 56(a1)
    800028a2:	0385ba83          	ld	s5,56(a1)
        ld s6, 64(a1)
    800028a6:	0405bb03          	ld	s6,64(a1)
        ld s7, 72(a1)
    800028aa:	0485bb83          	ld	s7,72(a1)
        ld s8, 80(a1)
    800028ae:	0505bc03          	ld	s8,80(a1)
        ld s9, 88(a1)
    800028b2:	0585bc83          	ld	s9,88(a1)
        ld s10, 96(a1)
    800028b6:	0605bd03          	ld	s10,96(a1)
        ld s11, 104(a1)
    800028ba:	0685bd83          	ld	s11,104(a1)
        
        ret
    800028be:	8082                	ret

00000000800028c0 <trapinit>:

extern int devintr();

void
trapinit(void)
{
    800028c0:	1141                	add	sp,sp,-16
    800028c2:	e406                	sd	ra,8(sp)
    800028c4:	e022                	sd	s0,0(sp)
    800028c6:	0800                	add	s0,sp,16
  initlock(&tickslock, "time");
    800028c8:	0000c597          	auipc	a1,0xc
    800028cc:	a0858593          	add	a1,a1,-1528 # 8000e2d0 <IP_ADDR_ANY+0x2b4>
    800028d0:	0001b517          	auipc	a0,0x1b
    800028d4:	57850513          	add	a0,a0,1400 # 8001de48 <tickslock>
    800028d8:	f12fe0ef          	jal	80000fea <initlock>
}
    800028dc:	60a2                	ld	ra,8(sp)
    800028de:	6402                	ld	s0,0(sp)
    800028e0:	0141                	add	sp,sp,16
    800028e2:	8082                	ret

00000000800028e4 <trapinithart>:

// set up to take exceptions and traps while in the kernel.
void
trapinithart(void)
{
    800028e4:	1141                	add	sp,sp,-16
    800028e6:	e422                	sd	s0,8(sp)
    800028e8:	0800                	add	s0,sp,16
  asm volatile("csrw stvec, %0" : : "r" (x));
    800028ea:	00003797          	auipc	a5,0x3
    800028ee:	f5678793          	add	a5,a5,-170 # 80005840 <kernelvec>
    800028f2:	10579073          	csrw	stvec,a5
  w_stvec((uint64)kernelvec);
}
    800028f6:	6422                	ld	s0,8(sp)
    800028f8:	0141                	add	sp,sp,16
    800028fa:	8082                	ret

00000000800028fc <prepare_return>:
//
// set up trapframe and control registers for a return to user space
//
void
prepare_return(void)
{
    800028fc:	1141                	add	sp,sp,-16
    800028fe:	e406                	sd	ra,8(sp)
    80002900:	e022                	sd	s0,0(sp)
    80002902:	0800                	add	s0,sp,16
  struct proc *p = myproc();
    80002904:	cb4ff0ef          	jal	80001db8 <myproc>
  asm volatile("csrr %0, sstatus" : "=r" (x) );
    80002908:	100027f3          	csrr	a5,sstatus
  w_sstatus(r_sstatus() & ~SSTATUS_SIE);
    8000290c:	9bf5                	and	a5,a5,-3
  asm volatile("csrw sstatus, %0" : : "r" (x));
    8000290e:	10079073          	csrw	sstatus,a5
  // kerneltrap() to usertrap(). because a trap from kernel
  // code to usertrap would be a disaster, turn off interrupts.
  intr_off();

  // send syscalls, interrupts, and exceptions to uservec in trampoline.S
  uint64 trampoline_uservec = TRAMPOLINE + (uservec - trampoline);
    80002912:	04000737          	lui	a4,0x4000
    80002916:	177d                	add	a4,a4,-1 # 3ffffff <_entry-0x7c000001>
    80002918:	0732                	sll	a4,a4,0xc
    8000291a:	0000a797          	auipc	a5,0xa
    8000291e:	6e678793          	add	a5,a5,1766 # 8000d000 <_trampoline>
    80002922:	0000a697          	auipc	a3,0xa
    80002926:	6de68693          	add	a3,a3,1758 # 8000d000 <_trampoline>
    8000292a:	8f95                	sub	a5,a5,a3
    8000292c:	97ba                	add	a5,a5,a4
  asm volatile("csrw stvec, %0" : : "r" (x));
    8000292e:	10579073          	csrw	stvec,a5
  w_stvec(trampoline_uservec);

  // set up trapframe values that uservec will need when
  // the process next traps into the kernel.
  p->trapframe->kernel_satp = r_satp();         // kernel page table
    80002932:	6d3c                	ld	a5,88(a0)
  asm volatile("csrr %0, satp" : "=r" (x) );
    80002934:	18002773          	csrr	a4,satp
    80002938:	e398                	sd	a4,0(a5)
  p->trapframe->kernel_sp = p->kstack + PGSIZE; // process's kernel stack
    8000293a:	6d38                	ld	a4,88(a0)
    8000293c:	613c                	ld	a5,64(a0)
    8000293e:	6685                	lui	a3,0x1
    80002940:	97b6                	add	a5,a5,a3
    80002942:	e71c                	sd	a5,8(a4)
  p->trapframe->kernel_trap = (uint64)usertrap;
    80002944:	6d3c                	ld	a5,88(a0)
    80002946:	00000717          	auipc	a4,0x0
    8000294a:	10470713          	add	a4,a4,260 # 80002a4a <usertrap>
    8000294e:	eb98                	sd	a4,16(a5)
  p->trapframe->kernel_hartid = r_tp();         // hartid for cpuid()
    80002950:	6d3c                	ld	a5,88(a0)
  asm volatile("mv %0, tp" : "=r" (x) );
    80002952:	8712                	mv	a4,tp
    80002954:	f398                	sd	a4,32(a5)
  asm volatile("csrr %0, sstatus" : "=r" (x) );
    80002956:	100027f3          	csrr	a5,sstatus
  // set up the registers that trampoline.S's sret will use
  // to get to user space.
  
  // set S Previous Privilege mode to User.
  unsigned long x = r_sstatus();
  x &= ~SSTATUS_SPP; // clear SPP to 0 for user mode
    8000295a:	eff7f793          	and	a5,a5,-257
  x |= SSTATUS_SPIE; // enable interrupts in user mode
    8000295e:	0207e793          	or	a5,a5,32
  asm volatile("csrw sstatus, %0" : : "r" (x));
    80002962:	10079073          	csrw	sstatus,a5
  w_sstatus(x);

  // set S Exception Program Counter to the saved user pc.
  w_sepc(p->trapframe->epc);
    80002966:	6d3c                	ld	a5,88(a0)
  asm volatile("csrw sepc, %0" : : "r" (x));
    80002968:	6f9c                	ld	a5,24(a5)
    8000296a:	14179073          	csrw	sepc,a5
}
    8000296e:	60a2                	ld	ra,8(sp)
    80002970:	6402                	ld	s0,0(sp)
    80002972:	0141                	add	sp,sp,16
    80002974:	8082                	ret

0000000080002976 <clockintr>:
  w_sstatus(sstatus);
}

void
clockintr()
{
    80002976:	1101                	add	sp,sp,-32
    80002978:	ec06                	sd	ra,24(sp)
    8000297a:	e822                	sd	s0,16(sp)
    8000297c:	1000                	add	s0,sp,32
  if(cpuid() == 0){
    8000297e:	c0eff0ef          	jal	80001d8c <cpuid>
    80002982:	cd11                	beqz	a0,8000299e <clockintr+0x28>
  asm volatile("csrr %0, time" : "=r" (x) );
    80002984:	c01027f3          	rdtime	a5
  }

  // ask for the next timer interrupt. this also clears
  // the interrupt request. 1000000 is about a tenth
  // of a second.
  w_stimecmp(r_time() + 1000000);
    80002988:	000f4737          	lui	a4,0xf4
    8000298c:	24070713          	add	a4,a4,576 # f4240 <_entry-0x7ff0bdc0>
    80002990:	97ba                	add	a5,a5,a4
  asm volatile("csrw 0x14d, %0" : : "r" (x));
    80002992:	14d79073          	csrw	stimecmp,a5
}
    80002996:	60e2                	ld	ra,24(sp)
    80002998:	6442                	ld	s0,16(sp)
    8000299a:	6105                	add	sp,sp,32
    8000299c:	8082                	ret
    8000299e:	e426                	sd	s1,8(sp)
    acquire(&tickslock);
    800029a0:	0001b497          	auipc	s1,0x1b
    800029a4:	4a848493          	add	s1,s1,1192 # 8001de48 <tickslock>
    800029a8:	8526                	mv	a0,s1
    800029aa:	ec0fe0ef          	jal	8000106a <acquire>
    ticks++;
    800029ae:	0000d517          	auipc	a0,0xd
    800029b2:	51a50513          	add	a0,a0,1306 # 8000fec8 <ticks>
    800029b6:	411c                	lw	a5,0(a0)
    800029b8:	2785                	addw	a5,a5,1
    800029ba:	c11c                	sw	a5,0(a0)
    wakeup(&ticks);
    800029bc:	a53ff0ef          	jal	8000240e <wakeup>
    release(&tickslock);
    800029c0:	8526                	mv	a0,s1
    800029c2:	f40fe0ef          	jal	80001102 <release>
    800029c6:	64a2                	ld	s1,8(sp)
    800029c8:	bf75                	j	80002984 <clockintr+0xe>

00000000800029ca <devintr>:
// returns 2 if timer interrupt,
// 1 if other device,
// 0 if not recognized.
int
devintr()
{
    800029ca:	1101                	add	sp,sp,-32
    800029cc:	ec06                	sd	ra,24(sp)
    800029ce:	e822                	sd	s0,16(sp)
    800029d0:	1000                	add	s0,sp,32
  asm volatile("csrr %0, scause" : "=r" (x) );
    800029d2:	14202773          	csrr	a4,scause
  uint64 scause = r_scause();

  if(scause == 0x8000000000000009L){
    800029d6:	57fd                	li	a5,-1
    800029d8:	17fe                	sll	a5,a5,0x3f
    800029da:	07a5                	add	a5,a5,9
    800029dc:	00f70c63          	beq	a4,a5,800029f4 <devintr+0x2a>
    // now allowed to interrupt again.
    if(irq)
      plic_complete(irq);

    return 1;
  } else if(scause == 0x8000000000000005L){
    800029e0:	57fd                	li	a5,-1
    800029e2:	17fe                	sll	a5,a5,0x3f
