
kernel/kernel:     file format elf64-littleriscv


Disassembly of section .text:

0000000080000000 <_entry>:
    80000000:	00011117          	auipc	sp,0x11
    80000004:	6d010113          	add	sp,sp,1744 # 800116d0 <stack0>
    80000008:	6505                	lui	a0,0x1
    8000000a:	f14025f3          	csrr	a1,mhartid
    8000000e:	0585                	add	a1,a1,1
    80000010:	02b50533          	mul	a0,a0,a1
    80000014:	912a                	add	sp,sp,a0
    80000016:	04a000ef          	jal	80000060 <start>

000000008000001a <spin>:
    8000001a:	a001                	j	8000001a <spin>

000000008000001c <timerinit>:
}

// ask each hart to generate timer interrupts.
void
timerinit()
{
    8000001c:	1141                	add	sp,sp,-16
    8000001e:	e422                	sd	s0,8(sp)
    80000020:	0800                	add	s0,sp,16
#define MIE_STIE (1L << 5)  // supervisor timer
static inline uint64
r_mie()
{
  uint64 x;
  asm volatile("csrr %0, mie" : "=r" (x) );
    80000022:	304027f3          	csrr	a5,mie
  // enable supervisor-mode timer interrupts.
  w_mie(r_mie() | MIE_STIE);
    80000026:	0207e793          	or	a5,a5,32
}

static inline void 
w_mie(uint64 x)
{
  asm volatile("csrw mie, %0" : : "r" (x));
    8000002a:	30479073          	csrw	mie,a5
static inline uint64
r_menvcfg()
{
  uint64 x;
  // asm volatile("csrr %0, menvcfg" : "=r" (x) );
  asm volatile("csrr %0, 0x30a" : "=r" (x) );
    8000002e:	30a027f3          	csrr	a5,0x30a
  
  // enable the sstc extension (i.e. stimecmp).
  w_menvcfg(r_menvcfg() | (1L << 63)); 
    80000032:	577d                	li	a4,-1
    80000034:	177e                	sll	a4,a4,0x3f
    80000036:	8fd9                	or	a5,a5,a4

static inline void 
w_menvcfg(uint64 x)
{
  // asm volatile("csrw menvcfg, %0" : : "r" (x));
  asm volatile("csrw 0x30a, %0" : : "r" (x));
    80000038:	30a79073          	csrw	0x30a,a5

static inline uint64
r_mcounteren()
{
  uint64 x;
  asm volatile("csrr %0, mcounteren" : "=r" (x) );
    8000003c:	306027f3          	csrr	a5,mcounteren
  
  // allow supervisor to use stimecmp and time.
  w_mcounteren(r_mcounteren() | 2);
    80000040:	0027e793          	or	a5,a5,2
  asm volatile("csrw mcounteren, %0" : : "r" (x));
    80000044:	30679073          	csrw	mcounteren,a5
// machine-mode cycle counter
static inline uint64
r_time()
{
  uint64 x;
  asm volatile("csrr %0, time" : "=r" (x) );
    80000048:	c01027f3          	rdtime	a5
  
  // ask for the very first timer interrupt.
  w_stimecmp(r_time() + 1000000);
    8000004c:	000f4737          	lui	a4,0xf4
    80000050:	24070713          	add	a4,a4,576 # f4240 <_entry-0x7ff0bdc0>
    80000054:	97ba                	add	a5,a5,a4
  asm volatile("csrw 0x14d, %0" : : "r" (x));
    80000056:	14d79073          	csrw	stimecmp,a5
}
    8000005a:	6422                	ld	s0,8(sp)
    8000005c:	0141                	add	sp,sp,16
    8000005e:	8082                	ret

0000000080000060 <start>:
{
    80000060:	1141                	add	sp,sp,-16
    80000062:	e406                	sd	ra,8(sp)
    80000064:	e022                	sd	s0,0(sp)
    80000066:	0800                	add	s0,sp,16
  asm volatile("csrr %0, mstatus" : "=r" (x) );
    80000068:	300027f3          	csrr	a5,mstatus
  x &= ~MSTATUS_MPP_MASK;
    8000006c:	7779                	lui	a4,0xffffe
    8000006e:	7ff70713          	add	a4,a4,2047 # ffffffffffffe7ff <end+0xffffffff7fecaacf>
    80000072:	8ff9                	and	a5,a5,a4
  x |= MSTATUS_MPP_S;
    80000074:	6705                	lui	a4,0x1
    80000076:	80070713          	add	a4,a4,-2048 # 800 <_entry-0x7ffff800>
    8000007a:	8fd9                	or	a5,a5,a4
  asm volatile("csrw mstatus, %0" : : "r" (x));
    8000007c:	30079073          	csrw	mstatus,a5
  asm volatile("csrw mepc, %0" : : "r" (x));
    80000080:	00001797          	auipc	a5,0x1
    80000084:	fee78793          	add	a5,a5,-18 # 8000106e <main>
    80000088:	34179073          	csrw	mepc,a5
  asm volatile("csrw satp, %0" : : "r" (x));
    8000008c:	4781                	li	a5,0
    8000008e:	18079073          	csrw	satp,a5
  asm volatile("csrw medeleg, %0" : : "r" (x));
    80000092:	67c1                	lui	a5,0x10
    80000094:	17fd                	add	a5,a5,-1 # ffff <_entry-0x7fff0001>
    80000096:	30279073          	csrw	medeleg,a5
  asm volatile("csrw mideleg, %0" : : "r" (x));
    8000009a:	30379073          	csrw	mideleg,a5
  asm volatile("csrr %0, sie" : "=r" (x) );
    8000009e:	104027f3          	csrr	a5,sie
  w_sie(r_sie() | SIE_SEIE | SIE_STIE | SIE_SSIE);
    800000a2:	2227e793          	or	a5,a5,546
  asm volatile("csrw sie, %0" : : "r" (x));
    800000a6:	10479073          	csrw	sie,a5
  asm volatile("csrw pmpaddr0, %0" : : "r" (x));
    800000aa:	57fd                	li	a5,-1
    800000ac:	83a9                	srl	a5,a5,0xa
    800000ae:	3b079073          	csrw	pmpaddr0,a5
  asm volatile("csrw pmpcfg0, %0" : : "r" (x));
    800000b2:	47bd                	li	a5,15
    800000b4:	3a079073          	csrw	pmpcfg0,a5
  timerinit();
    800000b8:	f65ff0ef          	jal	8000001c <timerinit>
  asm volatile("csrr %0, mhartid" : "=r" (x) );
    800000bc:	f14027f3          	csrr	a5,mhartid
  w_tp(id);
    800000c0:	2781                	sext.w	a5,a5
}

static inline void 
w_tp(uint64 x)
{
  asm volatile("mv tp, %0" : : "r" (x));
    800000c2:	823e                	mv	tp,a5
  asm volatile("mret");
    800000c4:	30200073          	mret
}
    800000c8:	60a2                	ld	ra,8(sp)
    800000ca:	6402                	ld	s0,0(sp)
    800000cc:	0141                	add	sp,sp,16
    800000ce:	8082                	ret

00000000800000d0 <consolewrite>:
//
// user write()s to the console go here.
//
int
consolewrite(int user_src, uint64 src, int n)
{
    800000d0:	715d                	add	sp,sp,-80
    800000d2:	e486                	sd	ra,72(sp)
    800000d4:	e0a2                	sd	s0,64(sp)
    800000d6:	f84a                	sd	s2,48(sp)
    800000d8:	0880                	add	s0,sp,80
  int i;

  for(i = 0; i < n; i++){
    800000da:	04c05263          	blez	a2,8000011e <consolewrite+0x4e>
    800000de:	fc26                	sd	s1,56(sp)
    800000e0:	f44e                	sd	s3,40(sp)
    800000e2:	f052                	sd	s4,32(sp)
    800000e4:	ec56                	sd	s5,24(sp)
    800000e6:	8a2a                	mv	s4,a0
    800000e8:	84ae                	mv	s1,a1
    800000ea:	89b2                	mv	s3,a2
    800000ec:	4901                	li	s2,0
    char c;
    if(either_copyin(&c, user_src, src+i, 1) == -1)
    800000ee:	5afd                	li	s5,-1
    800000f0:	4685                	li	a3,1
    800000f2:	8626                	mv	a2,s1
    800000f4:	85d2                	mv	a1,s4
    800000f6:	fbf40513          	add	a0,s0,-65
    800000fa:	3d6020ef          	jal	800024d0 <either_copyin>
    800000fe:	03550263          	beq	a0,s5,80000122 <consolewrite+0x52>
      break;
    uartputc(c);
    80000102:	fbf44503          	lbu	a0,-65(s0)
    80000106:	219000ef          	jal	80000b1e <uartputc>
  for(i = 0; i < n; i++){
    8000010a:	2905                	addw	s2,s2,1
    8000010c:	0485                	add	s1,s1,1
    8000010e:	ff2991e3          	bne	s3,s2,800000f0 <consolewrite+0x20>
    80000112:	894e                	mv	s2,s3
    80000114:	74e2                	ld	s1,56(sp)
    80000116:	79a2                	ld	s3,40(sp)
    80000118:	7a02                	ld	s4,32(sp)
    8000011a:	6ae2                	ld	s5,24(sp)
    8000011c:	a039                	j	8000012a <consolewrite+0x5a>
    8000011e:	4901                	li	s2,0
    80000120:	a029                	j	8000012a <consolewrite+0x5a>
    80000122:	74e2                	ld	s1,56(sp)
    80000124:	79a2                	ld	s3,40(sp)
    80000126:	7a02                	ld	s4,32(sp)
    80000128:	6ae2                	ld	s5,24(sp)
  }

  return i;
}
    8000012a:	854a                	mv	a0,s2
    8000012c:	60a6                	ld	ra,72(sp)
    8000012e:	6406                	ld	s0,64(sp)
    80000130:	7942                	ld	s2,48(sp)
    80000132:	6161                	add	sp,sp,80
    80000134:	8082                	ret

0000000080000136 <consoleread>:
// user_dist indicates whether dst is a user
// or kernel address.
//
int
consoleread(int user_dst, uint64 dst, int n)
{
    80000136:	711d                	add	sp,sp,-96
    80000138:	ec86                	sd	ra,88(sp)
    8000013a:	e8a2                	sd	s0,80(sp)
    8000013c:	e4a6                	sd	s1,72(sp)
    8000013e:	e0ca                	sd	s2,64(sp)
    80000140:	fc4e                	sd	s3,56(sp)
    80000142:	f852                	sd	s4,48(sp)
    80000144:	f456                	sd	s5,40(sp)
    80000146:	f05a                	sd	s6,32(sp)
    80000148:	1080                	add	s0,sp,96
    8000014a:	8aaa                	mv	s5,a0
    8000014c:	8a2e                	mv	s4,a1
    8000014e:	89b2                	mv	s3,a2
  uint target;
  int c;
  char cbuf;

  target = n;
    80000150:	00060b1b          	sext.w	s6,a2
  acquire(&cons.lock);
    80000154:	00019517          	auipc	a0,0x19
    80000158:	57c50513          	add	a0,a0,1404 # 800196d0 <cons>
    8000015c:	47d000ef          	jal	80000dd8 <acquire>
  while(n > 0){
    // wait until interrupt handler has put some
    // input into cons.buffer.
    while(cons.r == cons.w){
    80000160:	00019497          	auipc	s1,0x19
    80000164:	57048493          	add	s1,s1,1392 # 800196d0 <cons>
      if(killed(myproc())){
        release(&cons.lock);
        return -1;
      }
      sleep(&cons.r, &cons.lock);
    80000168:	00019917          	auipc	s2,0x19
    8000016c:	60090913          	add	s2,s2,1536 # 80019768 <cons+0x98>
  while(n > 0){
    80000170:	0b305d63          	blez	s3,8000022a <consoleread+0xf4>
    while(cons.r == cons.w){
    80000174:	0984a783          	lw	a5,152(s1)
    80000178:	09c4a703          	lw	a4,156(s1)
    8000017c:	0af71263          	bne	a4,a5,80000220 <consoleread+0xea>
      if(killed(myproc())){
    80000180:	1dd010ef          	jal	80001b5c <myproc>
    80000184:	1de020ef          	jal	80002362 <killed>
    80000188:	e12d                	bnez	a0,800001ea <consoleread+0xb4>
      sleep(&cons.r, &cons.lock);
    8000018a:	85a6                	mv	a1,s1
    8000018c:	854a                	mv	a0,s2
    8000018e:	79d010ef          	jal	8000212a <sleep>
    while(cons.r == cons.w){
    80000192:	0984a783          	lw	a5,152(s1)
    80000196:	09c4a703          	lw	a4,156(s1)
    8000019a:	fef703e3          	beq	a4,a5,80000180 <consoleread+0x4a>
    8000019e:	ec5e                	sd	s7,24(sp)
    }

    c = cons.buf[cons.r++ % INPUT_BUF_SIZE];
    800001a0:	00019717          	auipc	a4,0x19
    800001a4:	53070713          	add	a4,a4,1328 # 800196d0 <cons>
    800001a8:	0017869b          	addw	a3,a5,1
    800001ac:	08d72c23          	sw	a3,152(a4)
    800001b0:	07f7f693          	and	a3,a5,127
    800001b4:	9736                	add	a4,a4,a3
    800001b6:	01874703          	lbu	a4,24(a4)
    800001ba:	00070b9b          	sext.w	s7,a4

    if(c == C('D')){  // end-of-file
    800001be:	4691                	li	a3,4
    800001c0:	04db8663          	beq	s7,a3,8000020c <consoleread+0xd6>
      }
      break;
    }

    // copy the input byte to the user-space buffer.
    cbuf = c;
    800001c4:	fae407a3          	sb	a4,-81(s0)
    if(either_copyout(user_dst, dst, &cbuf, 1) == -1)
    800001c8:	4685                	li	a3,1
    800001ca:	faf40613          	add	a2,s0,-81
    800001ce:	85d2                	mv	a1,s4
    800001d0:	8556                	mv	a0,s5
    800001d2:	2b4020ef          	jal	80002486 <either_copyout>
    800001d6:	57fd                	li	a5,-1
    800001d8:	04f50863          	beq	a0,a5,80000228 <consoleread+0xf2>
      break;

    dst++;
    800001dc:	0a05                	add	s4,s4,1
    --n;
    800001de:	39fd                	addw	s3,s3,-1

    if(c == '\n'){
    800001e0:	47a9                	li	a5,10
    800001e2:	04fb8d63          	beq	s7,a5,8000023c <consoleread+0x106>
    800001e6:	6be2                	ld	s7,24(sp)
    800001e8:	b761                	j	80000170 <consoleread+0x3a>
        release(&cons.lock);
    800001ea:	00019517          	auipc	a0,0x19
    800001ee:	4e650513          	add	a0,a0,1254 # 800196d0 <cons>
    800001f2:	47f000ef          	jal	80000e70 <release>
        return -1;
    800001f6:	557d                	li	a0,-1
    }
  }
  release(&cons.lock);

  return target - n;
}
    800001f8:	60e6                	ld	ra,88(sp)
    800001fa:	6446                	ld	s0,80(sp)
    800001fc:	64a6                	ld	s1,72(sp)
    800001fe:	6906                	ld	s2,64(sp)
    80000200:	79e2                	ld	s3,56(sp)
    80000202:	7a42                	ld	s4,48(sp)
    80000204:	7aa2                	ld	s5,40(sp)
    80000206:	7b02                	ld	s6,32(sp)
    80000208:	6125                	add	sp,sp,96
    8000020a:	8082                	ret
      if(n < target){
    8000020c:	0009871b          	sext.w	a4,s3
    80000210:	01677a63          	bgeu	a4,s6,80000224 <consoleread+0xee>
        cons.r--;
    80000214:	00019717          	auipc	a4,0x19
    80000218:	54f72a23          	sw	a5,1364(a4) # 80019768 <cons+0x98>
    8000021c:	6be2                	ld	s7,24(sp)
    8000021e:	a031                	j	8000022a <consoleread+0xf4>
    80000220:	ec5e                	sd	s7,24(sp)
    80000222:	bfbd                	j	800001a0 <consoleread+0x6a>
    80000224:	6be2                	ld	s7,24(sp)
    80000226:	a011                	j	8000022a <consoleread+0xf4>
    80000228:	6be2                	ld	s7,24(sp)
  release(&cons.lock);
    8000022a:	00019517          	auipc	a0,0x19
    8000022e:	4a650513          	add	a0,a0,1190 # 800196d0 <cons>
    80000232:	43f000ef          	jal	80000e70 <release>
  return target - n;
    80000236:	413b053b          	subw	a0,s6,s3
    8000023a:	bf7d                	j	800001f8 <consoleread+0xc2>
    8000023c:	6be2                	ld	s7,24(sp)
    8000023e:	b7f5                	j	8000022a <consoleread+0xf4>

0000000080000240 <consputc>:
{
    80000240:	1141                	add	sp,sp,-16
    80000242:	e406                	sd	ra,8(sp)
    80000244:	e022                	sd	s0,0(sp)
    80000246:	0800                	add	s0,sp,16
  if(c == BACKSPACE){
    80000248:	10000793          	li	a5,256
    8000024c:	00f50863          	beq	a0,a5,8000025c <consputc+0x1c>
    uartputc_sync(c);
    80000250:	7e8000ef          	jal	80000a38 <uartputc_sync>
}
    80000254:	60a2                	ld	ra,8(sp)
    80000256:	6402                	ld	s0,0(sp)
    80000258:	0141                	add	sp,sp,16
    8000025a:	8082                	ret
    uartputc_sync('\b'); uartputc_sync(' '); uartputc_sync('\b');
    8000025c:	4521                	li	a0,8
    8000025e:	7da000ef          	jal	80000a38 <uartputc_sync>
    80000262:	02000513          	li	a0,32
    80000266:	7d2000ef          	jal	80000a38 <uartputc_sync>
    8000026a:	4521                	li	a0,8
    8000026c:	7cc000ef          	jal	80000a38 <uartputc_sync>
    80000270:	b7d5                	j	80000254 <consputc+0x14>

0000000080000272 <consoleintr>:
// do erase/kill processing, append to cons.buf,
// wake up consoleread() if a whole line has arrived.
//
void
consoleintr(int c)
{
    80000272:	1101                	add	sp,sp,-32
    80000274:	ec06                	sd	ra,24(sp)
    80000276:	e822                	sd	s0,16(sp)
    80000278:	e426                	sd	s1,8(sp)
    8000027a:	1000                	add	s0,sp,32
    8000027c:	84aa                	mv	s1,a0
  acquire(&cons.lock);
    8000027e:	00019517          	auipc	a0,0x19
    80000282:	45250513          	add	a0,a0,1106 # 800196d0 <cons>
    80000286:	353000ef          	jal	80000dd8 <acquire>

  switch(c){
    8000028a:	47d5                	li	a5,21
    8000028c:	08f48f63          	beq	s1,a5,8000032a <consoleintr+0xb8>
    80000290:	0297c563          	blt	a5,s1,800002ba <consoleintr+0x48>
    80000294:	47a1                	li	a5,8
    80000296:	0ef48463          	beq	s1,a5,8000037e <consoleintr+0x10c>
    8000029a:	47c1                	li	a5,16
    8000029c:	10f49563          	bne	s1,a5,800003a6 <consoleintr+0x134>
  case C('P'):  // Print process list.
    procdump();
    800002a0:	27a020ef          	jal	8000251a <procdump>
      }
    }
    break;
  }
  
  release(&cons.lock);
    800002a4:	00019517          	auipc	a0,0x19
    800002a8:	42c50513          	add	a0,a0,1068 # 800196d0 <cons>
    800002ac:	3c5000ef          	jal	80000e70 <release>
}
    800002b0:	60e2                	ld	ra,24(sp)
    800002b2:	6442                	ld	s0,16(sp)
    800002b4:	64a2                	ld	s1,8(sp)
    800002b6:	6105                	add	sp,sp,32
    800002b8:	8082                	ret
  switch(c){
    800002ba:	07f00793          	li	a5,127
    800002be:	0cf48063          	beq	s1,a5,8000037e <consoleintr+0x10c>
    if(c != 0 && cons.e-cons.r < INPUT_BUF_SIZE){
    800002c2:	00019717          	auipc	a4,0x19
    800002c6:	40e70713          	add	a4,a4,1038 # 800196d0 <cons>
    800002ca:	0a072783          	lw	a5,160(a4)
    800002ce:	09872703          	lw	a4,152(a4)
    800002d2:	9f99                	subw	a5,a5,a4
    800002d4:	07f00713          	li	a4,127
    800002d8:	fcf766e3          	bltu	a4,a5,800002a4 <consoleintr+0x32>
      c = (c == '\r') ? '\n' : c;
    800002dc:	47b5                	li	a5,13
    800002de:	0cf48763          	beq	s1,a5,800003ac <consoleintr+0x13a>
      consputc(c);
    800002e2:	8526                	mv	a0,s1
    800002e4:	f5dff0ef          	jal	80000240 <consputc>
      cons.buf[cons.e++ % INPUT_BUF_SIZE] = c;
    800002e8:	00019797          	auipc	a5,0x19
    800002ec:	3e878793          	add	a5,a5,1000 # 800196d0 <cons>
    800002f0:	0a07a683          	lw	a3,160(a5)
    800002f4:	0016871b          	addw	a4,a3,1
    800002f8:	0007061b          	sext.w	a2,a4
    800002fc:	0ae7a023          	sw	a4,160(a5)
    80000300:	07f6f693          	and	a3,a3,127
    80000304:	97b6                	add	a5,a5,a3
    80000306:	00978c23          	sb	s1,24(a5)
      if(c == '\n' || c == C('D') || cons.e-cons.r == INPUT_BUF_SIZE){
    8000030a:	47a9                	li	a5,10
    8000030c:	0cf48563          	beq	s1,a5,800003d6 <consoleintr+0x164>
    80000310:	4791                	li	a5,4
    80000312:	0cf48263          	beq	s1,a5,800003d6 <consoleintr+0x164>
    80000316:	00019797          	auipc	a5,0x19
    8000031a:	4527a783          	lw	a5,1106(a5) # 80019768 <cons+0x98>
    8000031e:	9f1d                	subw	a4,a4,a5
    80000320:	08000793          	li	a5,128
    80000324:	f8f710e3          	bne	a4,a5,800002a4 <consoleintr+0x32>
    80000328:	a07d                	j	800003d6 <consoleintr+0x164>
    8000032a:	e04a                	sd	s2,0(sp)
    while(cons.e != cons.w &&
    8000032c:	00019717          	auipc	a4,0x19
    80000330:	3a470713          	add	a4,a4,932 # 800196d0 <cons>
    80000334:	0a072783          	lw	a5,160(a4)
    80000338:	09c72703          	lw	a4,156(a4)
          cons.buf[(cons.e-1) % INPUT_BUF_SIZE] != '\n'){
    8000033c:	00019497          	auipc	s1,0x19
    80000340:	39448493          	add	s1,s1,916 # 800196d0 <cons>
    while(cons.e != cons.w &&
    80000344:	4929                	li	s2,10
    80000346:	02f70863          	beq	a4,a5,80000376 <consoleintr+0x104>
          cons.buf[(cons.e-1) % INPUT_BUF_SIZE] != '\n'){
    8000034a:	37fd                	addw	a5,a5,-1
    8000034c:	07f7f713          	and	a4,a5,127
    80000350:	9726                	add	a4,a4,s1
    while(cons.e != cons.w &&
    80000352:	01874703          	lbu	a4,24(a4)
    80000356:	03270263          	beq	a4,s2,8000037a <consoleintr+0x108>
      cons.e--;
    8000035a:	0af4a023          	sw	a5,160(s1)
      consputc(BACKSPACE);
    8000035e:	10000513          	li	a0,256
    80000362:	edfff0ef          	jal	80000240 <consputc>
    while(cons.e != cons.w &&
    80000366:	0a04a783          	lw	a5,160(s1)
    8000036a:	09c4a703          	lw	a4,156(s1)
    8000036e:	fcf71ee3          	bne	a4,a5,8000034a <consoleintr+0xd8>
    80000372:	6902                	ld	s2,0(sp)
    80000374:	bf05                	j	800002a4 <consoleintr+0x32>
    80000376:	6902                	ld	s2,0(sp)
    80000378:	b735                	j	800002a4 <consoleintr+0x32>
    8000037a:	6902                	ld	s2,0(sp)
    8000037c:	b725                	j	800002a4 <consoleintr+0x32>
    if(cons.e != cons.w){
    8000037e:	00019717          	auipc	a4,0x19
    80000382:	35270713          	add	a4,a4,850 # 800196d0 <cons>
    80000386:	0a072783          	lw	a5,160(a4)
    8000038a:	09c72703          	lw	a4,156(a4)
    8000038e:	f0f70be3          	beq	a4,a5,800002a4 <consoleintr+0x32>
      cons.e--;
    80000392:	37fd                	addw	a5,a5,-1
    80000394:	00019717          	auipc	a4,0x19
    80000398:	3cf72e23          	sw	a5,988(a4) # 80019770 <cons+0xa0>
      consputc(BACKSPACE);
    8000039c:	10000513          	li	a0,256
    800003a0:	ea1ff0ef          	jal	80000240 <consputc>
    800003a4:	b701                	j	800002a4 <consoleintr+0x32>
    if(c != 0 && cons.e-cons.r < INPUT_BUF_SIZE){
    800003a6:	ee048fe3          	beqz	s1,800002a4 <consoleintr+0x32>
    800003aa:	bf21                	j	800002c2 <consoleintr+0x50>
      consputc(c);
    800003ac:	4529                	li	a0,10
    800003ae:	e93ff0ef          	jal	80000240 <consputc>
      cons.buf[cons.e++ % INPUT_BUF_SIZE] = c;
    800003b2:	00019797          	auipc	a5,0x19
    800003b6:	31e78793          	add	a5,a5,798 # 800196d0 <cons>
    800003ba:	0a07a703          	lw	a4,160(a5)
    800003be:	0017069b          	addw	a3,a4,1
    800003c2:	0006861b          	sext.w	a2,a3
    800003c6:	0ad7a023          	sw	a3,160(a5)
    800003ca:	07f77713          	and	a4,a4,127
    800003ce:	97ba                	add	a5,a5,a4
    800003d0:	4729                	li	a4,10
    800003d2:	00e78c23          	sb	a4,24(a5)
        cons.w = cons.e;
    800003d6:	00019797          	auipc	a5,0x19
    800003da:	38c7ab23          	sw	a2,918(a5) # 8001976c <cons+0x9c>
        wakeup(&cons.r);
    800003de:	00019517          	auipc	a0,0x19
    800003e2:	38a50513          	add	a0,a0,906 # 80019768 <cons+0x98>
    800003e6:	591010ef          	jal	80002176 <wakeup>
    800003ea:	bd6d                	j	800002a4 <consoleintr+0x32>

00000000800003ec <consoleinit>:

void
consoleinit(void)
{
    800003ec:	1141                	add	sp,sp,-16
    800003ee:	e406                	sd	ra,8(sp)
    800003f0:	e022                	sd	s0,0(sp)
    800003f2:	0800                	add	s0,sp,16
  initlock(&cons.lock, "cons");
    800003f4:	0000f597          	auipc	a1,0xf
    800003f8:	c3c58593          	add	a1,a1,-964 # 8000f030 <IP_ADDR_ANY+0xc>
    800003fc:	00019517          	auipc	a0,0x19
    80000400:	2d450513          	add	a0,a0,724 # 800196d0 <cons>
    80000404:	155000ef          	jal	80000d58 <initlock>

  uartinit();
    80000408:	5d8000ef          	jal	800009e0 <uartinit>

  // connect read and write system calls
  // to consoleread and consolewrite.
  devsw[CONSOLE].read = consoleread;
    8000040c:	00029797          	auipc	a5,0x29
    80000410:	47478793          	add	a5,a5,1140 # 80029880 <devsw>
    80000414:	00000717          	auipc	a4,0x0
    80000418:	d2270713          	add	a4,a4,-734 # 80000136 <consoleread>
    8000041c:	eb98                	sd	a4,16(a5)
  devsw[CONSOLE].write = consolewrite;
    8000041e:	00000717          	auipc	a4,0x0
    80000422:	cb270713          	add	a4,a4,-846 # 800000d0 <consolewrite>
    80000426:	ef98                	sd	a4,24(a5)
}
    80000428:	60a2                	ld	ra,8(sp)
    8000042a:	6402                	ld	s0,0(sp)
    8000042c:	0141                	add	sp,sp,16
    8000042e:	8082                	ret

0000000080000430 <putch>:
  int locking;
} pr;

static void
putch(int ch, int *cnt)
{
    80000430:	1141                	add	sp,sp,-16
    80000432:	e406                	sd	ra,8(sp)
    80000434:	e022                	sd	s0,0(sp)
    80000436:	0800                	add	s0,sp,16
  consputc(ch);
    80000438:	e09ff0ef          	jal	80000240 <consputc>
  (void)*cnt++;
}
    8000043c:	60a2                	ld	ra,8(sp)
    8000043e:	6402                	ld	s0,0(sp)
    80000440:	0141                	add	sp,sp,16
    80000442:	8082                	ret

0000000080000444 <vcprintf>:

int
vcprintf(const char *fmt, va_list ap)
{
    80000444:	1101                	add	sp,sp,-32
    80000446:	ec06                	sd	ra,24(sp)
    80000448:	e822                	sd	s0,16(sp)
    8000044a:	1000                	add	s0,sp,32
    8000044c:	862a                	mv	a2,a0
    8000044e:	86ae                	mv	a3,a1
  int cnt = 0;
    80000450:	fe042623          	sw	zero,-20(s0)

  vprintfmt((void*)putch, &cnt, fmt, ap);
    80000454:	fec40593          	add	a1,s0,-20
    80000458:	00000517          	auipc	a0,0x0
    8000045c:	fd850513          	add	a0,a0,-40 # 80000430 <putch>
    80000460:	1a6000ef          	jal	80000606 <vprintfmt>
  return cnt;
}
    80000464:	fec42503          	lw	a0,-20(s0)
    80000468:	60e2                	ld	ra,24(sp)
    8000046a:	6442                	ld	s0,16(sp)
    8000046c:	6105                	add	sp,sp,32
    8000046e:	8082                	ret

0000000080000470 <printf>:

int
printf(char *fmt, ...)
{
    80000470:	7159                	add	sp,sp,-112
    80000472:	f406                	sd	ra,40(sp)
    80000474:	f022                	sd	s0,32(sp)
    80000476:	ec26                	sd	s1,24(sp)
    80000478:	1800                	add	s0,sp,48
    8000047a:	84aa                	mv	s1,a0
    8000047c:	e40c                	sd	a1,8(s0)
    8000047e:	e810                	sd	a2,16(s0)
    80000480:	ec14                	sd	a3,24(s0)
    80000482:	f018                	sd	a4,32(s0)
    80000484:	f41c                	sd	a5,40(s0)
    80000486:	03043823          	sd	a6,48(s0)
    8000048a:	03143c23          	sd	a7,56(s0)
  int locking, cnt;
  va_list ap;

  locking = pr.locking;
  if(locking)
    8000048e:	00019797          	auipc	a5,0x19
    80000492:	3027a783          	lw	a5,770(a5) # 80019790 <pr+0x18>
    80000496:	ef91                	bnez	a5,800004b2 <printf+0x42>
    acquire(&pr.lock);

  va_start(ap, fmt);
    80000498:	00840593          	add	a1,s0,8
    8000049c:	fcb43c23          	sd	a1,-40(s0)
  cnt = vcprintf(fmt, ap);
    800004a0:	fa5ff0ef          	jal	80000444 <vcprintf>
    800004a4:	84aa                	mv	s1,a0

  if(locking)
    release(&pr.lock);

  return cnt;
}
    800004a6:	8526                	mv	a0,s1
    800004a8:	70a2                	ld	ra,40(sp)
    800004aa:	7402                	ld	s0,32(sp)
    800004ac:	64e2                	ld	s1,24(sp)
    800004ae:	6165                	add	sp,sp,112
    800004b0:	8082                	ret
    800004b2:	e84a                	sd	s2,16(sp)
    acquire(&pr.lock);
    800004b4:	00019917          	auipc	s2,0x19
    800004b8:	2c490913          	add	s2,s2,708 # 80019778 <pr>
    800004bc:	854a                	mv	a0,s2
    800004be:	11b000ef          	jal	80000dd8 <acquire>
  va_start(ap, fmt);
    800004c2:	00840593          	add	a1,s0,8
    800004c6:	fcb43c23          	sd	a1,-40(s0)
  cnt = vcprintf(fmt, ap);
    800004ca:	8526                	mv	a0,s1
    800004cc:	f79ff0ef          	jal	80000444 <vcprintf>
    800004d0:	84aa                	mv	s1,a0
    release(&pr.lock);
    800004d2:	854a                	mv	a0,s2
    800004d4:	19d000ef          	jal	80000e70 <release>
    800004d8:	6942                	ld	s2,16(sp)
    800004da:	b7f1                	j	800004a6 <printf+0x36>

00000000800004dc <panic>:

void
panic(char *s)
{
    800004dc:	1101                	add	sp,sp,-32
    800004de:	ec06                	sd	ra,24(sp)
    800004e0:	e822                	sd	s0,16(sp)
    800004e2:	e426                	sd	s1,8(sp)
    800004e4:	1000                	add	s0,sp,32
    800004e6:	84aa                	mv	s1,a0
  pr.locking = 0;
    800004e8:	00019797          	auipc	a5,0x19
    800004ec:	2a07a423          	sw	zero,680(a5) # 80019790 <pr+0x18>
  printf("panic: ");
    800004f0:	0000f517          	auipc	a0,0xf
    800004f4:	b4850513          	add	a0,a0,-1208 # 8000f038 <IP_ADDR_ANY+0x14>
    800004f8:	f79ff0ef          	jal	80000470 <printf>
  printf("%s\n", s);
    800004fc:	85a6                	mv	a1,s1
    800004fe:	0000f517          	auipc	a0,0xf
    80000502:	b4250513          	add	a0,a0,-1214 # 8000f040 <IP_ADDR_ANY+0x1c>
    80000506:	f6bff0ef          	jal	80000470 <printf>
  panicked = 1; // freeze uart output from other CPUs
    8000050a:	4785                	li	a5,1
    8000050c:	00011717          	auipc	a4,0x11
    80000510:	12f72a23          	sw	a5,308(a4) # 80011640 <panicked>
  for(;;)
    80000514:	a001                	j	80000514 <panic+0x38>

0000000080000516 <printfinit>:
    ;
}

void
printfinit(void)
{
    80000516:	1101                	add	sp,sp,-32
    80000518:	ec06                	sd	ra,24(sp)
    8000051a:	e822                	sd	s0,16(sp)
    8000051c:	e426                	sd	s1,8(sp)
    8000051e:	1000                	add	s0,sp,32
  initlock(&pr.lock, "pr");
    80000520:	00019497          	auipc	s1,0x19
    80000524:	25848493          	add	s1,s1,600 # 80019778 <pr>
    80000528:	0000f597          	auipc	a1,0xf
    8000052c:	b2058593          	add	a1,a1,-1248 # 8000f048 <IP_ADDR_ANY+0x24>
    80000530:	8526                	mv	a0,s1
    80000532:	027000ef          	jal	80000d58 <initlock>
  pr.locking = 1;
    80000536:	4785                	li	a5,1
    80000538:	cc9c                	sw	a5,24(s1)
}
    8000053a:	60e2                	ld	ra,24(sp)
    8000053c:	6442                	ld	s0,16(sp)
    8000053e:	64a2                	ld	s1,8(sp)
    80000540:	6105                	add	sp,sp,32
    80000542:	8082                	ret

0000000080000544 <printnum>:
 * using specified putch function and associated pointer putdat.
 */
static void
printnum(void (*putch)(int, void*), void *putdat,
   unsigned long long num, unsigned base, int width, int padc)
{
    80000544:	7139                	add	sp,sp,-64
    80000546:	fc06                	sd	ra,56(sp)
    80000548:	f822                	sd	s0,48(sp)
    8000054a:	f04a                	sd	s2,32(sp)
    8000054c:	ec4e                	sd	s3,24(sp)
    8000054e:	e852                	sd	s4,16(sp)
    80000550:	e456                	sd	s5,8(sp)
    80000552:	e05a                	sd	s6,0(sp)
    80000554:	0080                	add	s0,sp,64
    80000556:	892a                	mv	s2,a0
    80000558:	89ae                	mv	s3,a1
    8000055a:	8ab2                	mv	s5,a2
    8000055c:	8a3e                	mv	s4,a5
  // first recursively print all preceding (more significant) digits
  if (num >= base) {
    8000055e:	02069b13          	sll	s6,a3,0x20
    80000562:	020b5b13          	srl	s6,s6,0x20
    80000566:	05667363          	bgeu	a2,s6,800005ac <printnum+0x68>
    8000056a:	f426                	sd	s1,40(sp)
    printnum(putch, putdat, num / base, base, width - 1, padc);
  } else {
    // print any needed pad characters before first digit
    while (--width > 0)
    8000056c:	fff7049b          	addw	s1,a4,-1
    80000570:	02905c63          	blez	s1,800005a8 <printnum+0x64>
      putch(padc, putdat);
    80000574:	85ce                	mv	a1,s3
    80000576:	8552                	mv	a0,s4
    80000578:	9902                	jalr	s2
    while (--width > 0)
    8000057a:	34fd                	addw	s1,s1,-1
    8000057c:	fce5                	bnez	s1,80000574 <printnum+0x30>
    8000057e:	74a2                	ld	s1,40(sp)
  }

  // then print this (the least significant) digit
  putch("0123456789abcdef"[num % base], putdat);
    80000580:	036afab3          	remu	s5,s5,s6
    80000584:	0000f797          	auipc	a5,0xf
    80000588:	acc78793          	add	a5,a5,-1332 # 8000f050 <IP_ADDR_ANY+0x2c>
    8000058c:	97d6                	add	a5,a5,s5
    8000058e:	85ce                	mv	a1,s3
    80000590:	0007c503          	lbu	a0,0(a5)
    80000594:	9902                	jalr	s2
}
    80000596:	70e2                	ld	ra,56(sp)
    80000598:	7442                	ld	s0,48(sp)
    8000059a:	7902                	ld	s2,32(sp)
    8000059c:	69e2                	ld	s3,24(sp)
    8000059e:	6a42                	ld	s4,16(sp)
    800005a0:	6aa2                	ld	s5,8(sp)
    800005a2:	6b02                	ld	s6,0(sp)
    800005a4:	6121                	add	sp,sp,64
    800005a6:	8082                	ret
    800005a8:	74a2                	ld	s1,40(sp)
    800005aa:	bfd9                	j	80000580 <printnum+0x3c>
    printnum(putch, putdat, num / base, base, width - 1, padc);
    800005ac:	377d                	addw	a4,a4,-1
    800005ae:	03665633          	divu	a2,a2,s6
    800005b2:	f93ff0ef          	jal	80000544 <printnum>
    800005b6:	b7e9                	j	80000580 <printnum+0x3c>

00000000800005b8 <sprintputch>:
  int cnt;
};

static void
sprintputch(int ch, struct sprintbuf *b)
{
    800005b8:	1141                	add	sp,sp,-16
    800005ba:	e422                	sd	s0,8(sp)
    800005bc:	0800                	add	s0,sp,16
  b->cnt++;
    800005be:	499c                	lw	a5,16(a1)
    800005c0:	2785                	addw	a5,a5,1
    800005c2:	c99c                	sw	a5,16(a1)
  if (b->buf < b->ebuf)
    800005c4:	619c                	ld	a5,0(a1)
    800005c6:	6598                	ld	a4,8(a1)
    800005c8:	00e7f763          	bgeu	a5,a4,800005d6 <sprintputch+0x1e>
    *b->buf++ = ch;
    800005cc:	00178713          	add	a4,a5,1
    800005d0:	e198                	sd	a4,0(a1)
    800005d2:	00a78023          	sb	a0,0(a5)
}
    800005d6:	6422                	ld	s0,8(sp)
    800005d8:	0141                	add	sp,sp,16
    800005da:	8082                	ret

00000000800005dc <printfmt>:
{
    800005dc:	715d                	add	sp,sp,-80
    800005de:	ec06                	sd	ra,24(sp)
    800005e0:	e822                	sd	s0,16(sp)
    800005e2:	1000                	add	s0,sp,32
    800005e4:	e414                	sd	a3,8(s0)
    800005e6:	e818                	sd	a4,16(s0)
    800005e8:	ec1c                	sd	a5,24(s0)
    800005ea:	03043023          	sd	a6,32(s0)
    800005ee:	03143423          	sd	a7,40(s0)
  va_start(ap, fmt);
    800005f2:	00840693          	add	a3,s0,8
    800005f6:	fed43423          	sd	a3,-24(s0)
  vprintfmt(putch, putdat, fmt, ap);
    800005fa:	00c000ef          	jal	80000606 <vprintfmt>
}
    800005fe:	60e2                	ld	ra,24(sp)
    80000600:	6442                	ld	s0,16(sp)
    80000602:	6161                	add	sp,sp,80
    80000604:	8082                	ret

0000000080000606 <vprintfmt>:
{
    80000606:	7119                	add	sp,sp,-128
    80000608:	fc86                	sd	ra,120(sp)
    8000060a:	f8a2                	sd	s0,112(sp)
    8000060c:	f4a6                	sd	s1,104(sp)
    8000060e:	f0ca                	sd	s2,96(sp)
    80000610:	ecce                	sd	s3,88(sp)
    80000612:	e8d2                	sd	s4,80(sp)
    80000614:	e4d6                	sd	s5,72(sp)
    80000616:	e0da                	sd	s6,64(sp)
    80000618:	fc5e                	sd	s7,56(sp)
    8000061a:	f862                	sd	s8,48(sp)
    8000061c:	f466                	sd	s9,40(sp)
    8000061e:	f06a                	sd	s10,32(sp)
    80000620:	ec6e                	sd	s11,24(sp)
    80000622:	0100                	add	s0,sp,128
    80000624:	89aa                	mv	s3,a0
    80000626:	892e                	mv	s2,a1
    80000628:	8ab2                	mv	s5,a2
    8000062a:	8c36                	mv	s8,a3
    while ((ch = *(unsigned char *) fmt++) != '%') {
    8000062c:	02500a13          	li	s4,37
    switch (ch = *(unsigned char *) fmt++) {
    80000630:	05700d13          	li	s10,87
    80000634:	00010c97          	auipc	s9,0x10
    80000638:	72cc8c93          	add	s9,s9,1836 # 80010d60 <IP_ADDR_ANY+0x1d3c>
    while ((ch = *(unsigned char *) fmt++) != '%') {
    8000063c:	001a8493          	add	s1,s5,1
    80000640:	000ac503          	lbu	a0,0(s5)
    80000644:	01450b63          	beq	a0,s4,8000065a <vprintfmt+0x54>
      if (ch == '\0')
    80000648:	30050263          	beqz	a0,8000094c <vprintfmt+0x346>
      putch(ch, putdat);
    8000064c:	85ca                	mv	a1,s2
    8000064e:	9982                	jalr	s3
    while ((ch = *(unsigned char *) fmt++) != '%') {
    80000650:	0485                	add	s1,s1,1
    80000652:	fff4c503          	lbu	a0,-1(s1)
    80000656:	ff4519e3          	bne	a0,s4,80000648 <vprintfmt+0x42>
    padc = ' ';
    8000065a:	02000793          	li	a5,32
    8000065e:	f8f43423          	sd	a5,-120(s0)
    altflag = 0;
    80000662:	4d81                	li	s11,0
    precision = -1;
    80000664:	5bfd                	li	s7,-1
    width = -1;
    80000666:	5b7d                	li	s6,-1
    lflag = 0;
    80000668:	4601                	li	a2,0
    switch (ch = *(unsigned char *) fmt++) {
    8000066a:	00148a93          	add	s5,s1,1
    8000066e:	0004c703          	lbu	a4,0(s1)
    80000672:	fdd7079b          	addw	a5,a4,-35
    80000676:	0ff7f693          	zext.b	a3,a5
    8000067a:	26dd6c63          	bltu	s10,a3,800008f2 <vprintfmt+0x2ec>
    8000067e:	00269793          	sll	a5,a3,0x2
    80000682:	97e6                	add	a5,a5,s9
    80000684:	439c                	lw	a5,0(a5)
    80000686:	97e6                	add	a5,a5,s9
    80000688:	8782                	jr	a5
      for (fmt--; fmt[-1] != '%'; fmt--)
    8000068a:	8aa6                	mv	s5,s1
    8000068c:	bf45                	j	8000063c <vprintfmt+0x36>
    switch (ch = *(unsigned char *) fmt++) {
    8000068e:	f8e43423          	sd	a4,-120(s0)
    80000692:	84d6                	mv	s1,s5
    80000694:	bfd9                	j	8000066a <vprintfmt+0x64>
        precision = precision * 10 + ch - '0';
    80000696:	fd070b9b          	addw	s7,a4,-48
        ch = *fmt;
    8000069a:	0014c783          	lbu	a5,1(s1)
    8000069e:	0007871b          	sext.w	a4,a5
        if (ch < '0' || ch > '9')
    800006a2:	fd07879b          	addw	a5,a5,-48
    800006a6:	46a5                	li	a3,9
    800006a8:	04f6eb63          	bltu	a3,a5,800006fe <vprintfmt+0xf8>
      for (precision = 0; ; ++fmt) {
    800006ac:	0a85                	add	s5,s5,1
        precision = precision * 10 + ch - '0';
    800006ae:	002b979b          	sllw	a5,s7,0x2
    800006b2:	017787bb          	addw	a5,a5,s7
    800006b6:	0017979b          	sllw	a5,a5,0x1
    800006ba:	9fb9                	addw	a5,a5,a4
    800006bc:	fd078b9b          	addw	s7,a5,-48
        ch = *fmt;
    800006c0:	000ac783          	lbu	a5,0(s5)
    800006c4:	0007871b          	sext.w	a4,a5
        if (ch < '0' || ch > '9')
    800006c8:	fd07879b          	addw	a5,a5,-48
    800006cc:	fef6f0e3          	bgeu	a3,a5,800006ac <vprintfmt+0xa6>
    800006d0:	84d6                	mv	s1,s5
    800006d2:	a029                	j	800006dc <vprintfmt+0xd6>
      precision = va_arg(ap, int);
    800006d4:	000c2b83          	lw	s7,0(s8)
    800006d8:	0c21                	add	s8,s8,8
    switch (ch = *(unsigned char *) fmt++) {
    800006da:	84d6                	mv	s1,s5
      if (width < 0)
    800006dc:	f80b57e3          	bgez	s6,8000066a <vprintfmt+0x64>
        width = precision, precision = -1;
    800006e0:	8b5e                	mv	s6,s7
    800006e2:	5bfd                	li	s7,-1
    800006e4:	b759                	j	8000066a <vprintfmt+0x64>
      if (width < 0)
    800006e6:	fffb4793          	not	a5,s6
    800006ea:	97fd                	sra	a5,a5,0x3f
    800006ec:	00fb77b3          	and	a5,s6,a5
    800006f0:	00078b1b          	sext.w	s6,a5
    switch (ch = *(unsigned char *) fmt++) {
    800006f4:	84d6                	mv	s1,s5
      goto reswitch;
    800006f6:	bf95                	j	8000066a <vprintfmt+0x64>
    switch (ch = *(unsigned char *) fmt++) {
    800006f8:	84d6                	mv	s1,s5
      altflag = 1;
    800006fa:	4d85                	li	s11,1
      goto reswitch;
    800006fc:	b7bd                	j	8000066a <vprintfmt+0x64>
    switch (ch = *(unsigned char *) fmt++) {
    800006fe:	84d6                	mv	s1,s5
    80000700:	bff1                	j	800006dc <vprintfmt+0xd6>
      lflag++;
    80000702:	2605                	addw	a2,a2,1
    switch (ch = *(unsigned char *) fmt++) {
    80000704:	84d6                	mv	s1,s5
      goto reswitch;
    80000706:	b795                	j	8000066a <vprintfmt+0x64>
      putch(va_arg(ap, int), putdat);
    80000708:	008c0493          	add	s1,s8,8
    8000070c:	85ca                	mv	a1,s2
    8000070e:	000c2503          	lw	a0,0(s8)
    80000712:	9982                	jalr	s3
    80000714:	8c26                	mv	s8,s1
      break;
    80000716:	b71d                	j	8000063c <vprintfmt+0x36>
      err = va_arg(ap, int);
    80000718:	008c0493          	add	s1,s8,8
      if (err < 0)
    8000071c:	000c2783          	lw	a5,0(s8)
    80000720:	41f7d71b          	sraw	a4,a5,0x1f
    80000724:	8fb9                	xor	a5,a5,a4
    80000726:	40e786bb          	subw	a3,a5,a4
      if (err >= MAXERROR || (p = error_string[err]) == NULL)
    8000072a:	47bd                	li	a5,15
    8000072c:	02d7c663          	blt	a5,a3,80000758 <vprintfmt+0x152>
    80000730:	00369713          	sll	a4,a3,0x3
    80000734:	00010797          	auipc	a5,0x10
    80000738:	78c78793          	add	a5,a5,1932 # 80010ec0 <error_string>
    8000073c:	97ba                	add	a5,a5,a4
    8000073e:	639c                	ld	a5,0(a5)
    80000740:	cf81                	beqz	a5,80000758 <vprintfmt+0x152>
        printfmt(putch, putdat, "%s", p);
    80000742:	86be                	mv	a3,a5
    80000744:	0000f617          	auipc	a2,0xf
    80000748:	93c60613          	add	a2,a2,-1732 # 8000f080 <IP_ADDR_ANY+0x5c>
    8000074c:	85ca                	mv	a1,s2
    8000074e:	854e                	mv	a0,s3
    80000750:	e8dff0ef          	jal	800005dc <printfmt>
      err = va_arg(ap, int);
    80000754:	8c26                	mv	s8,s1
    80000756:	b5dd                	j	8000063c <vprintfmt+0x36>
        printfmt(putch, putdat, "error %d", err);
    80000758:	0000f617          	auipc	a2,0xf
    8000075c:	91860613          	add	a2,a2,-1768 # 8000f070 <IP_ADDR_ANY+0x4c>
    80000760:	85ca                	mv	a1,s2
    80000762:	854e                	mv	a0,s3
    80000764:	e79ff0ef          	jal	800005dc <printfmt>
      err = va_arg(ap, int);
    80000768:	8c26                	mv	s8,s1
        printfmt(putch, putdat, "error %d", err);
    8000076a:	bdc9                	j	8000063c <vprintfmt+0x36>
      if ((p = va_arg(ap, char *)) == NULL)
    8000076c:	008c0793          	add	a5,s8,8
    80000770:	f8f43023          	sd	a5,-128(s0)
    80000774:	000c3c03          	ld	s8,0(s8)
    80000778:	1a0c0b63          	beqz	s8,8000092e <vprintfmt+0x328>
      if (width > 0 && padc != '-')
    8000077c:	19605e63          	blez	s6,80000918 <vprintfmt+0x312>
    80000780:	02d00793          	li	a5,45
    80000784:	f8843703          	ld	a4,-120(s0)
    80000788:	00f71c63          	bne	a4,a5,800007a0 <vprintfmt+0x19a>
      for (; (ch = *p++) != '\0' && (precision < 0 || --precision >= 0); width--)
    8000078c:	001c0493          	add	s1,s8,1
    80000790:	000c4783          	lbu	a5,0(s8)
    80000794:	0007851b          	sext.w	a0,a5
    80000798:	cba5                	beqz	a5,80000808 <vprintfmt+0x202>
        if (altflag && (ch < ' ' || ch > '~'))
    8000079a:	05e00c13          	li	s8,94
    8000079e:	a0a1                	j	800007e6 <vprintfmt+0x1e0>
        for (width -= strnlen(p, precision); width > 0; width--)
    800007a0:	85de                	mv	a1,s7
    800007a2:	8562                	mv	a0,s8
    800007a4:	0a3000ef          	jal	80001046 <strnlen>
    800007a8:	40ab0b3b          	subw	s6,s6,a0
    800007ac:	17605663          	blez	s6,80000918 <vprintfmt+0x312>
          putch(padc, putdat);
    800007b0:	f8842483          	lw	s1,-120(s0)
    800007b4:	85ca                	mv	a1,s2
    800007b6:	8526                	mv	a0,s1
    800007b8:	9982                	jalr	s3
        for (width -= strnlen(p, precision); width > 0; width--)
    800007ba:	3b7d                	addw	s6,s6,-1
    800007bc:	fe0b1ce3          	bnez	s6,800007b4 <vprintfmt+0x1ae>
      for (; (ch = *p++) != '\0' && (precision < 0 || --precision >= 0); width--)
    800007c0:	001c0493          	add	s1,s8,1
    800007c4:	000c4783          	lbu	a5,0(s8)
    800007c8:	0007851b          	sext.w	a0,a5
    800007cc:	f7f9                	bnez	a5,8000079a <vprintfmt+0x194>
      if ((p = va_arg(ap, char *)) == NULL)
    800007ce:	f8043c03          	ld	s8,-128(s0)
    800007d2:	b5ad                	j	8000063c <vprintfmt+0x36>
          putch(ch, putdat);
    800007d4:	85ca                	mv	a1,s2
    800007d6:	9982                	jalr	s3
      for (; (ch = *p++) != '\0' && (precision < 0 || --precision >= 0); width--)
    800007d8:	3b7d                	addw	s6,s6,-1
    800007da:	0485                	add	s1,s1,1
    800007dc:	fff4c783          	lbu	a5,-1(s1)
    800007e0:	0007851b          	sext.w	a0,a5
    800007e4:	c385                	beqz	a5,80000804 <vprintfmt+0x1fe>
    800007e6:	000bc563          	bltz	s7,800007f0 <vprintfmt+0x1ea>
    800007ea:	3bfd                	addw	s7,s7,-1
    800007ec:	000bcc63          	bltz	s7,80000804 <vprintfmt+0x1fe>
        if (altflag && (ch < ' ' || ch > '~'))
    800007f0:	fe0d82e3          	beqz	s11,800007d4 <vprintfmt+0x1ce>
    800007f4:	3781                	addw	a5,a5,-32
    800007f6:	fcfc7fe3          	bgeu	s8,a5,800007d4 <vprintfmt+0x1ce>
          putch('?', putdat);
    800007fa:	85ca                	mv	a1,s2
    800007fc:	03f00513          	li	a0,63
    80000800:	9982                	jalr	s3
    80000802:	bfd9                	j	800007d8 <vprintfmt+0x1d2>
      for (; width > 0; width--)
    80000804:	01605c63          	blez	s6,8000081c <vprintfmt+0x216>
        putch(' ', putdat);
    80000808:	85ca                	mv	a1,s2
    8000080a:	02000513          	li	a0,32
    8000080e:	9982                	jalr	s3
      for (; width > 0; width--)
    80000810:	3b7d                	addw	s6,s6,-1
    80000812:	fe0b1be3          	bnez	s6,80000808 <vprintfmt+0x202>
      if ((p = va_arg(ap, char *)) == NULL)
    80000816:	f8043c03          	ld	s8,-128(s0)
    8000081a:	b50d                	j	8000063c <vprintfmt+0x36>
    8000081c:	f8043c03          	ld	s8,-128(s0)
    80000820:	bd31                	j	8000063c <vprintfmt+0x36>
  if (lflag >= 2)
    80000822:	4785                	li	a5,1
    80000824:	00c7c763          	blt	a5,a2,80000832 <vprintfmt+0x22c>
  else if (lflag)
    80000828:	ce09                	beqz	a2,80000842 <vprintfmt+0x23c>
    return va_arg(*ap, long);
    8000082a:	000c3483          	ld	s1,0(s8)
    8000082e:	0c21                	add	s8,s8,8
    80000830:	a021                	j	80000838 <vprintfmt+0x232>
    return va_arg(*ap, long long);
    80000832:	000c3483          	ld	s1,0(s8)
    80000836:	0c21                	add	s8,s8,8
      if ((long long) num < 0) {
    80000838:	0004c963          	bltz	s1,8000084a <vprintfmt+0x244>
      num = getint(&ap, lflag);
    8000083c:	8626                	mv	a2,s1
      base = 10;
    8000083e:	46a9                	li	a3,10
    80000840:	a88d                	j	800008b2 <vprintfmt+0x2ac>
    return va_arg(*ap, int);
    80000842:	000c2483          	lw	s1,0(s8)
    80000846:	0c21                	add	s8,s8,8
    80000848:	bfc5                	j	80000838 <vprintfmt+0x232>
        putch('-', putdat);
    8000084a:	85ca                	mv	a1,s2
    8000084c:	02d00513          	li	a0,45
    80000850:	9982                	jalr	s3
        num = -(long long) num;
    80000852:	40900633          	neg	a2,s1
      base = 10;
    80000856:	46a9                	li	a3,10
    80000858:	a8a9                	j	800008b2 <vprintfmt+0x2ac>
  if (lflag >= 2)
    8000085a:	4785                	li	a5,1
    8000085c:	00c7c863          	blt	a5,a2,8000086c <vprintfmt+0x266>
  else if (lflag)
    80000860:	ca19                	beqz	a2,80000876 <vprintfmt+0x270>
    return va_arg(*ap, unsigned long);
    80000862:	000c3603          	ld	a2,0(s8)
    80000866:	0c21                	add	s8,s8,8
      base = 10;
    80000868:	46a9                	li	a3,10
    return va_arg(*ap, unsigned long);
    8000086a:	a0a1                	j	800008b2 <vprintfmt+0x2ac>
    return va_arg(*ap, unsigned long long);
    8000086c:	000c3603          	ld	a2,0(s8)
    80000870:	0c21                	add	s8,s8,8
      base = 10;
    80000872:	46a9                	li	a3,10
    return va_arg(*ap, unsigned long long);
    80000874:	a83d                	j	800008b2 <vprintfmt+0x2ac>
    return va_arg(*ap, unsigned int);
    80000876:	000c6603          	lwu	a2,0(s8)
    8000087a:	0c21                	add	s8,s8,8
      base = 10;
    8000087c:	46a9                	li	a3,10
    return va_arg(*ap, unsigned int);
    8000087e:	a815                	j	800008b2 <vprintfmt+0x2ac>
      putch('X', putdat);
    80000880:	85ca                	mv	a1,s2
    80000882:	05800513          	li	a0,88
    80000886:	9982                	jalr	s3
      putch('X', putdat);
    80000888:	85ca                	mv	a1,s2
    8000088a:	05800513          	li	a0,88
    8000088e:	9982                	jalr	s3
      putch('X', putdat);
    80000890:	85ca                	mv	a1,s2
    80000892:	05800513          	li	a0,88
    80000896:	9982                	jalr	s3
      break;
    80000898:	b355                	j	8000063c <vprintfmt+0x36>
      putch('0', putdat);
    8000089a:	85ca                	mv	a1,s2
    8000089c:	03000513          	li	a0,48
    800008a0:	9982                	jalr	s3
      putch('x', putdat);
    800008a2:	85ca                	mv	a1,s2
    800008a4:	07800513          	li	a0,120
    800008a8:	9982                	jalr	s3
      num = (unsigned long long)
    800008aa:	000c3603          	ld	a2,0(s8)
        (uintptr_t) va_arg(ap, void *);
    800008ae:	0c21                	add	s8,s8,8
      base = 16;
    800008b0:	46c1                	li	a3,16
      printnum(putch, putdat, num, base, width, padc);
    800008b2:	f8842783          	lw	a5,-120(s0)
    800008b6:	875a                	mv	a4,s6
    800008b8:	85ca                	mv	a1,s2
    800008ba:	854e                	mv	a0,s3
    800008bc:	c89ff0ef          	jal	80000544 <printnum>
      break;
    800008c0:	bbb5                	j	8000063c <vprintfmt+0x36>
  if (lflag >= 2)
    800008c2:	4785                	li	a5,1
    800008c4:	00c7c863          	blt	a5,a2,800008d4 <vprintfmt+0x2ce>
  else if (lflag)
    800008c8:	ca19                	beqz	a2,800008de <vprintfmt+0x2d8>
    return va_arg(*ap, unsigned long);
    800008ca:	000c3603          	ld	a2,0(s8)
    800008ce:	0c21                	add	s8,s8,8
      base = 16;
    800008d0:	46c1                	li	a3,16
    return va_arg(*ap, unsigned long);
    800008d2:	b7c5                	j	800008b2 <vprintfmt+0x2ac>
    return va_arg(*ap, unsigned long long);
    800008d4:	000c3603          	ld	a2,0(s8)
    800008d8:	0c21                	add	s8,s8,8
      base = 16;
    800008da:	46c1                	li	a3,16
    return va_arg(*ap, unsigned long long);
    800008dc:	bfd9                	j	800008b2 <vprintfmt+0x2ac>
    return va_arg(*ap, unsigned int);
    800008de:	000c6603          	lwu	a2,0(s8)
    800008e2:	0c21                	add	s8,s8,8
      base = 16;
    800008e4:	46c1                	li	a3,16
    return va_arg(*ap, unsigned int);
    800008e6:	b7f1                	j	800008b2 <vprintfmt+0x2ac>
      putch(ch, putdat);
    800008e8:	85ca                	mv	a1,s2
    800008ea:	02500513          	li	a0,37
    800008ee:	9982                	jalr	s3
      break;
    800008f0:	b3b1                	j	8000063c <vprintfmt+0x36>
      putch('%', putdat);
    800008f2:	85ca                	mv	a1,s2
    800008f4:	02500513          	li	a0,37
    800008f8:	9982                	jalr	s3
      for (fmt--; fmt[-1] != '%'; fmt--)
    800008fa:	fff4c703          	lbu	a4,-1(s1)
    800008fe:	02500793          	li	a5,37
    80000902:	d8f704e3          	beq	a4,a5,8000068a <vprintfmt+0x84>
    80000906:	8aa6                	mv	s5,s1
    80000908:	02500713          	li	a4,37
    8000090c:	1afd                	add	s5,s5,-1
    8000090e:	fffac783          	lbu	a5,-1(s5)
    80000912:	fee79de3          	bne	a5,a4,8000090c <vprintfmt+0x306>
    80000916:	b31d                	j	8000063c <vprintfmt+0x36>
      for (; (ch = *p++) != '\0' && (precision < 0 || --precision >= 0); width--)
    80000918:	001c0493          	add	s1,s8,1
    8000091c:	000c4783          	lbu	a5,0(s8)
    80000920:	0007851b          	sext.w	a0,a5
    80000924:	e6079be3          	bnez	a5,8000079a <vprintfmt+0x194>
      if ((p = va_arg(ap, char *)) == NULL)
    80000928:	f8043c03          	ld	s8,-128(s0)
    8000092c:	bb01                	j	8000063c <vprintfmt+0x36>
        p = "(null)";
    8000092e:	0000ec17          	auipc	s8,0xe
    80000932:	73ac0c13          	add	s8,s8,1850 # 8000f068 <IP_ADDR_ANY+0x44>
      if (width > 0 && padc != '-')
    80000936:	e56045e3          	bgtz	s6,80000780 <vprintfmt+0x17a>
      for (; (ch = *p++) != '\0' && (precision < 0 || --precision >= 0); width--)
    8000093a:	02800513          	li	a0,40
    8000093e:	02800793          	li	a5,40
    80000942:	0000e497          	auipc	s1,0xe
    80000946:	72748493          	add	s1,s1,1831 # 8000f069 <IP_ADDR_ANY+0x45>
    8000094a:	bd81                	j	8000079a <vprintfmt+0x194>
}
    8000094c:	70e6                	ld	ra,120(sp)
    8000094e:	7446                	ld	s0,112(sp)
    80000950:	74a6                	ld	s1,104(sp)
    80000952:	7906                	ld	s2,96(sp)
    80000954:	69e6                	ld	s3,88(sp)
    80000956:	6a46                	ld	s4,80(sp)
    80000958:	6aa6                	ld	s5,72(sp)
    8000095a:	6b06                	ld	s6,64(sp)
    8000095c:	7be2                	ld	s7,56(sp)
    8000095e:	7c42                	ld	s8,48(sp)
    80000960:	7ca2                	ld	s9,40(sp)
    80000962:	7d02                	ld	s10,32(sp)
    80000964:	6de2                	ld	s11,24(sp)
    80000966:	6109                	add	sp,sp,128
    80000968:	8082                	ret

000000008000096a <vsnprintf>:

int
vsnprintf(char *buf, int n, const char *fmt, va_list ap)
{
    8000096a:	7179                	add	sp,sp,-48
    8000096c:	f406                	sd	ra,40(sp)
    8000096e:	f022                	sd	s0,32(sp)
    80000970:	1800                	add	s0,sp,48
  struct sprintbuf b = {buf, buf+n-1, 0};
    80000972:	fca43c23          	sd	a0,-40(s0)
    80000976:	fff58793          	add	a5,a1,-1
    8000097a:	97aa                	add	a5,a5,a0
    8000097c:	fef43023          	sd	a5,-32(s0)
    80000980:	fe042423          	sw	zero,-24(s0)

  if (buf == NULL || n < 1)
    80000984:	c50d                	beqz	a0,800009ae <vsnprintf+0x44>
    80000986:	02b05663          	blez	a1,800009b2 <vsnprintf+0x48>
    return -E_INVAL;

  // print the string to the buffer
  vprintfmt((void*)sprintputch, &b, fmt, ap);
    8000098a:	fd840593          	add	a1,s0,-40
    8000098e:	00000517          	auipc	a0,0x0
    80000992:	c2a50513          	add	a0,a0,-982 # 800005b8 <sprintputch>
    80000996:	c71ff0ef          	jal	80000606 <vprintfmt>

  // null terminate the buffer
  *b.buf = '\0';
    8000099a:	fd843783          	ld	a5,-40(s0)
    8000099e:	00078023          	sb	zero,0(a5)

  return b.cnt;
    800009a2:	fe842503          	lw	a0,-24(s0)
}
    800009a6:	70a2                	ld	ra,40(sp)
    800009a8:	7402                	ld	s0,32(sp)
    800009aa:	6145                	add	sp,sp,48
    800009ac:	8082                	ret
    return -E_INVAL;
    800009ae:	5575                	li	a0,-3
    800009b0:	bfdd                	j	800009a6 <vsnprintf+0x3c>
    800009b2:	5575                	li	a0,-3
    800009b4:	bfcd                	j	800009a6 <vsnprintf+0x3c>

00000000800009b6 <snprintf>:

int
snprintf(char *buf, int n, const char *fmt, ...)
{
    800009b6:	715d                	add	sp,sp,-80
    800009b8:	ec06                	sd	ra,24(sp)
    800009ba:	e822                	sd	s0,16(sp)
    800009bc:	1000                	add	s0,sp,32
    800009be:	e414                	sd	a3,8(s0)
    800009c0:	e818                	sd	a4,16(s0)
    800009c2:	ec1c                	sd	a5,24(s0)
    800009c4:	03043023          	sd	a6,32(s0)
    800009c8:	03143423          	sd	a7,40(s0)
  va_list ap;
  int rc;

  va_start(ap, fmt);
    800009cc:	00840693          	add	a3,s0,8
    800009d0:	fed43423          	sd	a3,-24(s0)
  rc = vsnprintf(buf, n, fmt, ap);
    800009d4:	f97ff0ef          	jal	8000096a <vsnprintf>
  va_end(ap);

  return rc;
}
    800009d8:	60e2                	ld	ra,24(sp)
    800009da:	6442                	ld	s0,16(sp)
    800009dc:	6161                	add	sp,sp,80
    800009de:	8082                	ret

00000000800009e0 <uartinit>:

void uartstart();

void
uartinit(void)
{
    800009e0:	1141                	add	sp,sp,-16
    800009e2:	e406                	sd	ra,8(sp)
    800009e4:	e022                	sd	s0,0(sp)
    800009e6:	0800                	add	s0,sp,16
  // disable interrupts.
  WriteReg(IER, 0x00);
    800009e8:	100007b7          	lui	a5,0x10000
    800009ec:	000780a3          	sb	zero,1(a5) # 10000001 <_entry-0x6fffffff>

  // special mode to set baud rate.
  WriteReg(LCR, LCR_BAUD_LATCH);
    800009f0:	10000737          	lui	a4,0x10000
    800009f4:	f8000693          	li	a3,-128
    800009f8:	00d701a3          	sb	a3,3(a4) # 10000003 <_entry-0x6ffffffd>

  // LSB for baud rate of 38.4K.
  WriteReg(0, 0x03);
    800009fc:	468d                	li	a3,3
    800009fe:	10000637          	lui	a2,0x10000
    80000a02:	00d60023          	sb	a3,0(a2) # 10000000 <_entry-0x70000000>

  // MSB for baud rate of 38.4K.
  WriteReg(1, 0x00);
    80000a06:	000780a3          	sb	zero,1(a5)

  // leave set-baud mode,
  // and set word length to 8 bits, no parity.
  WriteReg(LCR, LCR_EIGHT_BITS);
    80000a0a:	00d701a3          	sb	a3,3(a4)

  // reset and enable FIFOs.
  WriteReg(FCR, FCR_FIFO_ENABLE | FCR_FIFO_CLEAR);
    80000a0e:	10000737          	lui	a4,0x10000
    80000a12:	461d                	li	a2,7
    80000a14:	00c70123          	sb	a2,2(a4) # 10000002 <_entry-0x6ffffffe>

  // enable transmit and receive interrupts.
  WriteReg(IER, IER_TX_ENABLE | IER_RX_ENABLE);
    80000a18:	00d780a3          	sb	a3,1(a5)

  initlock(&uart_tx_lock, "uart");
    80000a1c:	0000e597          	auipc	a1,0xe
    80000a20:	7c458593          	add	a1,a1,1988 # 8000f1e0 <IP_ADDR_ANY+0x1bc>
    80000a24:	00019517          	auipc	a0,0x19
    80000a28:	d7450513          	add	a0,a0,-652 # 80019798 <uart_tx_lock>
    80000a2c:	32c000ef          	jal	80000d58 <initlock>
}
    80000a30:	60a2                	ld	ra,8(sp)
    80000a32:	6402                	ld	s0,0(sp)
    80000a34:	0141                	add	sp,sp,16
    80000a36:	8082                	ret

0000000080000a38 <uartputc_sync>:
// use interrupts, for use by kernel printf() and
// to echo characters. it spins waiting for the uart's
// output register to be empty.
void
uartputc_sync(int c)
{
    80000a38:	1101                	add	sp,sp,-32
    80000a3a:	ec06                	sd	ra,24(sp)
    80000a3c:	e822                	sd	s0,16(sp)
    80000a3e:	e426                	sd	s1,8(sp)
    80000a40:	1000                	add	s0,sp,32
    80000a42:	84aa                	mv	s1,a0
  push_off();
    80000a44:	354000ef          	jal	80000d98 <push_off>

  if(panicked){
    80000a48:	00011797          	auipc	a5,0x11
    80000a4c:	bf87a783          	lw	a5,-1032(a5) # 80011640 <panicked>
    80000a50:	e795                	bnez	a5,80000a7c <uartputc_sync+0x44>
    for(;;)
      ;
  }

  // wait for Transmit Holding Empty to be set in LSR.
  while((ReadReg(LSR) & LSR_TX_IDLE) == 0)
    80000a52:	10000737          	lui	a4,0x10000
    80000a56:	0715                	add	a4,a4,5 # 10000005 <_entry-0x6ffffffb>
    80000a58:	00074783          	lbu	a5,0(a4)
    80000a5c:	0207f793          	and	a5,a5,32
    80000a60:	dfe5                	beqz	a5,80000a58 <uartputc_sync+0x20>
    ;
  WriteReg(THR, c);
    80000a62:	0ff4f513          	zext.b	a0,s1
    80000a66:	100007b7          	lui	a5,0x10000
    80000a6a:	00a78023          	sb	a0,0(a5) # 10000000 <_entry-0x70000000>

  pop_off();
    80000a6e:	3ae000ef          	jal	80000e1c <pop_off>
}
    80000a72:	60e2                	ld	ra,24(sp)
    80000a74:	6442                	ld	s0,16(sp)
    80000a76:	64a2                	ld	s1,8(sp)
    80000a78:	6105                	add	sp,sp,32
    80000a7a:	8082                	ret
    for(;;)
    80000a7c:	a001                	j	80000a7c <uartputc_sync+0x44>

0000000080000a7e <uartstart>:
// called from both the top- and bottom-half.
void
uartstart()
{
  while(1){
    if(uart_tx_w == uart_tx_r){
    80000a7e:	00011797          	auipc	a5,0x11
    80000a82:	bca7b783          	ld	a5,-1078(a5) # 80011648 <uart_tx_r>
    80000a86:	00011717          	auipc	a4,0x11
    80000a8a:	bca73703          	ld	a4,-1078(a4) # 80011650 <uart_tx_w>
    80000a8e:	08f70263          	beq	a4,a5,80000b12 <uartstart+0x94>
{
    80000a92:	7139                	add	sp,sp,-64
    80000a94:	fc06                	sd	ra,56(sp)
    80000a96:	f822                	sd	s0,48(sp)
    80000a98:	f426                	sd	s1,40(sp)
    80000a9a:	f04a                	sd	s2,32(sp)
    80000a9c:	ec4e                	sd	s3,24(sp)
    80000a9e:	e852                	sd	s4,16(sp)
    80000aa0:	e456                	sd	s5,8(sp)
    80000aa2:	e05a                	sd	s6,0(sp)
    80000aa4:	0080                	add	s0,sp,64
      // transmit buffer is empty.
      ReadReg(ISR);
      return;
    }
    
    if((ReadReg(LSR) & LSR_TX_IDLE) == 0){
    80000aa6:	10000937          	lui	s2,0x10000
    80000aaa:	0915                	add	s2,s2,5 # 10000005 <_entry-0x6ffffffb>
      // so we cannot give it another byte.
      // it will interrupt when it's ready for a new byte.
      return;
    }
    
    int c = uart_tx_buf[uart_tx_r % UART_TX_BUF_SIZE];
    80000aac:	00019a97          	auipc	s5,0x19
    80000ab0:	ceca8a93          	add	s5,s5,-788 # 80019798 <uart_tx_lock>
    uart_tx_r += 1;
    80000ab4:	00011497          	auipc	s1,0x11
    80000ab8:	b9448493          	add	s1,s1,-1132 # 80011648 <uart_tx_r>
    
    // maybe uartputc() is waiting for space in the buffer.
    wakeup(&uart_tx_r);
    
    WriteReg(THR, c);
    80000abc:	10000a37          	lui	s4,0x10000
    if(uart_tx_w == uart_tx_r){
    80000ac0:	00011997          	auipc	s3,0x11
    80000ac4:	b9098993          	add	s3,s3,-1136 # 80011650 <uart_tx_w>
    if((ReadReg(LSR) & LSR_TX_IDLE) == 0){
    80000ac8:	00094703          	lbu	a4,0(s2)
    80000acc:	02077713          	and	a4,a4,32
    80000ad0:	c71d                	beqz	a4,80000afe <uartstart+0x80>
    int c = uart_tx_buf[uart_tx_r % UART_TX_BUF_SIZE];
    80000ad2:	01f7f713          	and	a4,a5,31
    80000ad6:	9756                	add	a4,a4,s5
    80000ad8:	01874b03          	lbu	s6,24(a4)
    uart_tx_r += 1;
    80000adc:	0785                	add	a5,a5,1
    80000ade:	e09c                	sd	a5,0(s1)
    wakeup(&uart_tx_r);
    80000ae0:	8526                	mv	a0,s1
    80000ae2:	694010ef          	jal	80002176 <wakeup>
    WriteReg(THR, c);
    80000ae6:	016a0023          	sb	s6,0(s4) # 10000000 <_entry-0x70000000>
    if(uart_tx_w == uart_tx_r){
    80000aea:	609c                	ld	a5,0(s1)
    80000aec:	0009b703          	ld	a4,0(s3)
    80000af0:	fcf71ce3          	bne	a4,a5,80000ac8 <uartstart+0x4a>
      ReadReg(ISR);
    80000af4:	100007b7          	lui	a5,0x10000
    80000af8:	0789                	add	a5,a5,2 # 10000002 <_entry-0x6ffffffe>
    80000afa:	0007c783          	lbu	a5,0(a5)
  }
}
    80000afe:	70e2                	ld	ra,56(sp)
    80000b00:	7442                	ld	s0,48(sp)
    80000b02:	74a2                	ld	s1,40(sp)
    80000b04:	7902                	ld	s2,32(sp)
    80000b06:	69e2                	ld	s3,24(sp)
    80000b08:	6a42                	ld	s4,16(sp)
    80000b0a:	6aa2                	ld	s5,8(sp)
    80000b0c:	6b02                	ld	s6,0(sp)
    80000b0e:	6121                	add	sp,sp,64
    80000b10:	8082                	ret
      ReadReg(ISR);
    80000b12:	100007b7          	lui	a5,0x10000
    80000b16:	0789                	add	a5,a5,2 # 10000002 <_entry-0x6ffffffe>
    80000b18:	0007c783          	lbu	a5,0(a5)
      return;
    80000b1c:	8082                	ret

0000000080000b1e <uartputc>:
{
    80000b1e:	7179                	add	sp,sp,-48
    80000b20:	f406                	sd	ra,40(sp)
    80000b22:	f022                	sd	s0,32(sp)
    80000b24:	ec26                	sd	s1,24(sp)
    80000b26:	e84a                	sd	s2,16(sp)
    80000b28:	e44e                	sd	s3,8(sp)
    80000b2a:	e052                	sd	s4,0(sp)
    80000b2c:	1800                	add	s0,sp,48
    80000b2e:	8a2a                	mv	s4,a0
  acquire(&uart_tx_lock);
    80000b30:	00019517          	auipc	a0,0x19
    80000b34:	c6850513          	add	a0,a0,-920 # 80019798 <uart_tx_lock>
    80000b38:	2a0000ef          	jal	80000dd8 <acquire>
  if(panicked){
    80000b3c:	00011797          	auipc	a5,0x11
    80000b40:	b047a783          	lw	a5,-1276(a5) # 80011640 <panicked>
    80000b44:	efbd                	bnez	a5,80000bc2 <uartputc+0xa4>
  while(uart_tx_w == uart_tx_r + UART_TX_BUF_SIZE){
    80000b46:	00011717          	auipc	a4,0x11
    80000b4a:	b0a73703          	ld	a4,-1270(a4) # 80011650 <uart_tx_w>
    80000b4e:	00011797          	auipc	a5,0x11
    80000b52:	afa7b783          	ld	a5,-1286(a5) # 80011648 <uart_tx_r>
    80000b56:	02078793          	add	a5,a5,32
    sleep(&uart_tx_r, &uart_tx_lock);
    80000b5a:	00019997          	auipc	s3,0x19
    80000b5e:	c3e98993          	add	s3,s3,-962 # 80019798 <uart_tx_lock>
    80000b62:	00011497          	auipc	s1,0x11
    80000b66:	ae648493          	add	s1,s1,-1306 # 80011648 <uart_tx_r>
  while(uart_tx_w == uart_tx_r + UART_TX_BUF_SIZE){
    80000b6a:	00011917          	auipc	s2,0x11
    80000b6e:	ae690913          	add	s2,s2,-1306 # 80011650 <uart_tx_w>
    80000b72:	00e79d63          	bne	a5,a4,80000b8c <uartputc+0x6e>
    sleep(&uart_tx_r, &uart_tx_lock);
    80000b76:	85ce                	mv	a1,s3
    80000b78:	8526                	mv	a0,s1
    80000b7a:	5b0010ef          	jal	8000212a <sleep>
  while(uart_tx_w == uart_tx_r + UART_TX_BUF_SIZE){
    80000b7e:	00093703          	ld	a4,0(s2)
    80000b82:	609c                	ld	a5,0(s1)
    80000b84:	02078793          	add	a5,a5,32
    80000b88:	fee787e3          	beq	a5,a4,80000b76 <uartputc+0x58>
  uart_tx_buf[uart_tx_w % UART_TX_BUF_SIZE] = c;
    80000b8c:	00019497          	auipc	s1,0x19
    80000b90:	c0c48493          	add	s1,s1,-1012 # 80019798 <uart_tx_lock>
    80000b94:	01f77793          	and	a5,a4,31
    80000b98:	97a6                	add	a5,a5,s1
    80000b9a:	01478c23          	sb	s4,24(a5)
  uart_tx_w += 1;
    80000b9e:	0705                	add	a4,a4,1
    80000ba0:	00011797          	auipc	a5,0x11
    80000ba4:	aae7b823          	sd	a4,-1360(a5) # 80011650 <uart_tx_w>
  uartstart();
    80000ba8:	ed7ff0ef          	jal	80000a7e <uartstart>
  release(&uart_tx_lock);
    80000bac:	8526                	mv	a0,s1
    80000bae:	2c2000ef          	jal	80000e70 <release>
}
    80000bb2:	70a2                	ld	ra,40(sp)
    80000bb4:	7402                	ld	s0,32(sp)
    80000bb6:	64e2                	ld	s1,24(sp)
    80000bb8:	6942                	ld	s2,16(sp)
    80000bba:	69a2                	ld	s3,8(sp)
    80000bbc:	6a02                	ld	s4,0(sp)
    80000bbe:	6145                	add	sp,sp,48
    80000bc0:	8082                	ret
    for(;;)
    80000bc2:	a001                	j	80000bc2 <uartputc+0xa4>

0000000080000bc4 <uartgetc>:

// read one input character from the UART.
// return -1 if none is waiting.
int
uartgetc(void)
{
    80000bc4:	1141                	add	sp,sp,-16
    80000bc6:	e422                	sd	s0,8(sp)
    80000bc8:	0800                	add	s0,sp,16
  if(ReadReg(LSR) & 0x01){
    80000bca:	100007b7          	lui	a5,0x10000
    80000bce:	0795                	add	a5,a5,5 # 10000005 <_entry-0x6ffffffb>
    80000bd0:	0007c783          	lbu	a5,0(a5)
    80000bd4:	8b85                	and	a5,a5,1
    80000bd6:	cb81                	beqz	a5,80000be6 <uartgetc+0x22>
    // input data is ready.
    return ReadReg(RHR);
    80000bd8:	100007b7          	lui	a5,0x10000
    80000bdc:	0007c503          	lbu	a0,0(a5) # 10000000 <_entry-0x70000000>
  } else {
    return -1;
  }
}
    80000be0:	6422                	ld	s0,8(sp)
    80000be2:	0141                	add	sp,sp,16
    80000be4:	8082                	ret
    return -1;
    80000be6:	557d                	li	a0,-1
    80000be8:	bfe5                	j	80000be0 <uartgetc+0x1c>

0000000080000bea <uartintr>:
// handle a uart interrupt, raised because input has
// arrived, or the uart is ready for more output, or
// both. called from devintr().
void
uartintr(void)
{
    80000bea:	1101                	add	sp,sp,-32
    80000bec:	ec06                	sd	ra,24(sp)
    80000bee:	e822                	sd	s0,16(sp)
    80000bf0:	e426                	sd	s1,8(sp)
    80000bf2:	1000                	add	s0,sp,32
  // read and process incoming characters.
  while(1){
    int c = uartgetc();
    if(c == -1)
    80000bf4:	54fd                	li	s1,-1
    80000bf6:	a019                	j	80000bfc <uartintr+0x12>
      break;
    consoleintr(c);
    80000bf8:	e7aff0ef          	jal	80000272 <consoleintr>
    int c = uartgetc();
    80000bfc:	fc9ff0ef          	jal	80000bc4 <uartgetc>
    if(c == -1)
    80000c00:	fe951ce3          	bne	a0,s1,80000bf8 <uartintr+0xe>
  }

  // send buffered characters.
  acquire(&uart_tx_lock);
    80000c04:	00019497          	auipc	s1,0x19
    80000c08:	b9448493          	add	s1,s1,-1132 # 80019798 <uart_tx_lock>
    80000c0c:	8526                	mv	a0,s1
    80000c0e:	1ca000ef          	jal	80000dd8 <acquire>
  uartstart();
    80000c12:	e6dff0ef          	jal	80000a7e <uartstart>
  release(&uart_tx_lock);
    80000c16:	8526                	mv	a0,s1
    80000c18:	258000ef          	jal	80000e70 <release>
}
    80000c1c:	60e2                	ld	ra,24(sp)
    80000c1e:	6442                	ld	s0,16(sp)
    80000c20:	64a2                	ld	s1,8(sp)
    80000c22:	6105                	add	sp,sp,32
    80000c24:	8082                	ret

0000000080000c26 <kfree>:
// which normally should have been returned by a
// call to kalloc().  (The exception is when
// initializing the allocator; see kinit above.)
void
kfree(void *pa)
{
    80000c26:	1101                	add	sp,sp,-32
    80000c28:	ec06                	sd	ra,24(sp)
    80000c2a:	e822                	sd	s0,16(sp)
    80000c2c:	e426                	sd	s1,8(sp)
    80000c2e:	e04a                	sd	s2,0(sp)
    80000c30:	1000                	add	s0,sp,32
  struct run *r;

  if(((uint64)pa % PGSIZE) != 0 || (char*)pa < end || (uint64)pa >= PHYSTOP)
    80000c32:	03451793          	sll	a5,a0,0x34
    80000c36:	e7a9                	bnez	a5,80000c80 <kfree+0x5a>
    80000c38:	84aa                	mv	s1,a0
    80000c3a:	00133797          	auipc	a5,0x133
    80000c3e:	0f678793          	add	a5,a5,246 # 80133d30 <end>
    80000c42:	02f56f63          	bltu	a0,a5,80000c80 <kfree+0x5a>
    80000c46:	47c5                	li	a5,17
    80000c48:	07ee                	sll	a5,a5,0x1b
    80000c4a:	02f57b63          	bgeu	a0,a5,80000c80 <kfree+0x5a>
    panic("kfree");

  // Fill with junk to catch dangling refs.
  memset(pa, 1, PGSIZE);
    80000c4e:	6605                	lui	a2,0x1
    80000c50:	4585                	li	a1,1
    80000c52:	25a000ef          	jal	80000eac <memset>

  r = (struct run*)pa;

  acquire(&kmem.lock);
    80000c56:	00019917          	auipc	s2,0x19
    80000c5a:	b7a90913          	add	s2,s2,-1158 # 800197d0 <kmem>
    80000c5e:	854a                	mv	a0,s2
    80000c60:	178000ef          	jal	80000dd8 <acquire>
  r->next = kmem.freelist;
    80000c64:	01893783          	ld	a5,24(s2)
    80000c68:	e09c                	sd	a5,0(s1)
  kmem.freelist = r;
    80000c6a:	00993c23          	sd	s1,24(s2)
  release(&kmem.lock);
    80000c6e:	854a                	mv	a0,s2
    80000c70:	200000ef          	jal	80000e70 <release>
}
    80000c74:	60e2                	ld	ra,24(sp)
    80000c76:	6442                	ld	s0,16(sp)
    80000c78:	64a2                	ld	s1,8(sp)
    80000c7a:	6902                	ld	s2,0(sp)
    80000c7c:	6105                	add	sp,sp,32
    80000c7e:	8082                	ret
    panic("kfree");
    80000c80:	0000e517          	auipc	a0,0xe
    80000c84:	56850513          	add	a0,a0,1384 # 8000f1e8 <IP_ADDR_ANY+0x1c4>
    80000c88:	855ff0ef          	jal	800004dc <panic>

0000000080000c8c <freerange>:
{
    80000c8c:	7179                	add	sp,sp,-48
    80000c8e:	f406                	sd	ra,40(sp)
    80000c90:	f022                	sd	s0,32(sp)
    80000c92:	ec26                	sd	s1,24(sp)
    80000c94:	1800                	add	s0,sp,48
  p = (char*)PGROUNDUP((uint64)pa_start);
    80000c96:	6785                	lui	a5,0x1
    80000c98:	fff78713          	add	a4,a5,-1 # fff <_entry-0x7ffff001>
    80000c9c:	00e504b3          	add	s1,a0,a4
    80000ca0:	777d                	lui	a4,0xfffff
    80000ca2:	8cf9                	and	s1,s1,a4
  for(; p + PGSIZE <= (char*)pa_end; p += PGSIZE)
    80000ca4:	94be                	add	s1,s1,a5
    80000ca6:	0295e263          	bltu	a1,s1,80000cca <freerange+0x3e>
    80000caa:	e84a                	sd	s2,16(sp)
    80000cac:	e44e                	sd	s3,8(sp)
    80000cae:	e052                	sd	s4,0(sp)
    80000cb0:	892e                	mv	s2,a1
    kfree(p);
    80000cb2:	7a7d                	lui	s4,0xfffff
  for(; p + PGSIZE <= (char*)pa_end; p += PGSIZE)
    80000cb4:	6985                	lui	s3,0x1
    kfree(p);
    80000cb6:	01448533          	add	a0,s1,s4
    80000cba:	f6dff0ef          	jal	80000c26 <kfree>
  for(; p + PGSIZE <= (char*)pa_end; p += PGSIZE)
    80000cbe:	94ce                	add	s1,s1,s3
    80000cc0:	fe997be3          	bgeu	s2,s1,80000cb6 <freerange+0x2a>
    80000cc4:	6942                	ld	s2,16(sp)
    80000cc6:	69a2                	ld	s3,8(sp)
    80000cc8:	6a02                	ld	s4,0(sp)
}
    80000cca:	70a2                	ld	ra,40(sp)
    80000ccc:	7402                	ld	s0,32(sp)
    80000cce:	64e2                	ld	s1,24(sp)
    80000cd0:	6145                	add	sp,sp,48
    80000cd2:	8082                	ret

0000000080000cd4 <kinit>:
{
    80000cd4:	1141                	add	sp,sp,-16
    80000cd6:	e406                	sd	ra,8(sp)
    80000cd8:	e022                	sd	s0,0(sp)
    80000cda:	0800                	add	s0,sp,16
  initlock(&kmem.lock, "kmem");
    80000cdc:	0000e597          	auipc	a1,0xe
    80000ce0:	51458593          	add	a1,a1,1300 # 8000f1f0 <IP_ADDR_ANY+0x1cc>
    80000ce4:	00019517          	auipc	a0,0x19
    80000ce8:	aec50513          	add	a0,a0,-1300 # 800197d0 <kmem>
    80000cec:	06c000ef          	jal	80000d58 <initlock>
  freerange(end, (void*)PHYSTOP);
    80000cf0:	45c5                	li	a1,17
    80000cf2:	05ee                	sll	a1,a1,0x1b
    80000cf4:	00133517          	auipc	a0,0x133
    80000cf8:	03c50513          	add	a0,a0,60 # 80133d30 <end>
    80000cfc:	f91ff0ef          	jal	80000c8c <freerange>
}
    80000d00:	60a2                	ld	ra,8(sp)
    80000d02:	6402                	ld	s0,0(sp)
    80000d04:	0141                	add	sp,sp,16
    80000d06:	8082                	ret

0000000080000d08 <kalloc>:
// Allocate one 4096-byte page of physical memory.
// Returns a pointer that the kernel can use.
// Returns 0 if the memory cannot be allocated.
void *
kalloc(void)
{
    80000d08:	1101                	add	sp,sp,-32
    80000d0a:	ec06                	sd	ra,24(sp)
    80000d0c:	e822                	sd	s0,16(sp)
    80000d0e:	e426                	sd	s1,8(sp)
    80000d10:	1000                	add	s0,sp,32
  struct run *r;

  acquire(&kmem.lock);
    80000d12:	00019497          	auipc	s1,0x19
    80000d16:	abe48493          	add	s1,s1,-1346 # 800197d0 <kmem>
    80000d1a:	8526                	mv	a0,s1
    80000d1c:	0bc000ef          	jal	80000dd8 <acquire>
  r = kmem.freelist;
    80000d20:	6c84                	ld	s1,24(s1)
  if(r)
    80000d22:	c485                	beqz	s1,80000d4a <kalloc+0x42>
    kmem.freelist = r->next;
    80000d24:	609c                	ld	a5,0(s1)
    80000d26:	00019517          	auipc	a0,0x19
    80000d2a:	aaa50513          	add	a0,a0,-1366 # 800197d0 <kmem>
    80000d2e:	ed1c                	sd	a5,24(a0)
  release(&kmem.lock);
    80000d30:	140000ef          	jal	80000e70 <release>

  if(r)
    memset((char*)r, 5, PGSIZE); // fill with junk
    80000d34:	6605                	lui	a2,0x1
    80000d36:	4595                	li	a1,5
    80000d38:	8526                	mv	a0,s1
    80000d3a:	172000ef          	jal	80000eac <memset>
  return (void*)r;
}
    80000d3e:	8526                	mv	a0,s1
    80000d40:	60e2                	ld	ra,24(sp)
    80000d42:	6442                	ld	s0,16(sp)
    80000d44:	64a2                	ld	s1,8(sp)
    80000d46:	6105                	add	sp,sp,32
    80000d48:	8082                	ret
  release(&kmem.lock);
    80000d4a:	00019517          	auipc	a0,0x19
    80000d4e:	a8650513          	add	a0,a0,-1402 # 800197d0 <kmem>
    80000d52:	11e000ef          	jal	80000e70 <release>
  if(r)
    80000d56:	b7e5                	j	80000d3e <kalloc+0x36>

0000000080000d58 <initlock>:
#include "proc.h"
#include "defs.h"

void
initlock(struct spinlock *lk, char *name)
{
    80000d58:	1141                	add	sp,sp,-16
    80000d5a:	e422                	sd	s0,8(sp)
    80000d5c:	0800                	add	s0,sp,16
  lk->name = name;
    80000d5e:	e50c                	sd	a1,8(a0)
  lk->locked = 0;
    80000d60:	00052023          	sw	zero,0(a0)
  lk->cpu = 0;
    80000d64:	00053823          	sd	zero,16(a0)
}
    80000d68:	6422                	ld	s0,8(sp)
    80000d6a:	0141                	add	sp,sp,16
    80000d6c:	8082                	ret

0000000080000d6e <holding>:
// Interrupts must be off.
int
holding(struct spinlock *lk)
{
  int r;
  r = (lk->locked && lk->cpu == mycpu());
    80000d6e:	411c                	lw	a5,0(a0)
    80000d70:	e399                	bnez	a5,80000d76 <holding+0x8>
    80000d72:	4501                	li	a0,0
  return r;
}
    80000d74:	8082                	ret
{
    80000d76:	1101                	add	sp,sp,-32
    80000d78:	ec06                	sd	ra,24(sp)
    80000d7a:	e822                	sd	s0,16(sp)
    80000d7c:	e426                	sd	s1,8(sp)
    80000d7e:	1000                	add	s0,sp,32
  r = (lk->locked && lk->cpu == mycpu());
    80000d80:	6904                	ld	s1,16(a0)
    80000d82:	5bf000ef          	jal	80001b40 <mycpu>
    80000d86:	40a48533          	sub	a0,s1,a0
    80000d8a:	00153513          	seqz	a0,a0
}
    80000d8e:	60e2                	ld	ra,24(sp)
    80000d90:	6442                	ld	s0,16(sp)
    80000d92:	64a2                	ld	s1,8(sp)
    80000d94:	6105                	add	sp,sp,32
    80000d96:	8082                	ret

0000000080000d98 <push_off>:
// it takes two pop_off()s to undo two push_off()s.  Also, if interrupts
// are initially off, then push_off, pop_off leaves them off.

void
push_off(void)
{
    80000d98:	1101                	add	sp,sp,-32
    80000d9a:	ec06                	sd	ra,24(sp)
    80000d9c:	e822                	sd	s0,16(sp)
    80000d9e:	e426                	sd	s1,8(sp)
    80000da0:	1000                	add	s0,sp,32
  asm volatile("csrr %0, sstatus" : "=r" (x) );
    80000da2:	100024f3          	csrr	s1,sstatus
    80000da6:	100027f3          	csrr	a5,sstatus
  w_sstatus(r_sstatus() & ~SSTATUS_SIE);
    80000daa:	9bf5                	and	a5,a5,-3
  asm volatile("csrw sstatus, %0" : : "r" (x));
    80000dac:	10079073          	csrw	sstatus,a5
  int old = intr_get();

  intr_off();
  if(mycpu()->noff == 0)
    80000db0:	591000ef          	jal	80001b40 <mycpu>
    80000db4:	5d3c                	lw	a5,120(a0)
    80000db6:	cb99                	beqz	a5,80000dcc <push_off+0x34>
    mycpu()->intena = old;
  mycpu()->noff += 1;
    80000db8:	589000ef          	jal	80001b40 <mycpu>
    80000dbc:	5d3c                	lw	a5,120(a0)
    80000dbe:	2785                	addw	a5,a5,1
    80000dc0:	dd3c                	sw	a5,120(a0)
}
    80000dc2:	60e2                	ld	ra,24(sp)
    80000dc4:	6442                	ld	s0,16(sp)
    80000dc6:	64a2                	ld	s1,8(sp)
    80000dc8:	6105                	add	sp,sp,32
    80000dca:	8082                	ret
    mycpu()->intena = old;
    80000dcc:	575000ef          	jal	80001b40 <mycpu>
  return (x & SSTATUS_SIE) != 0;
    80000dd0:	8085                	srl	s1,s1,0x1
    80000dd2:	8885                	and	s1,s1,1
    80000dd4:	dd64                	sw	s1,124(a0)
    80000dd6:	b7cd                	j	80000db8 <push_off+0x20>

0000000080000dd8 <acquire>:
{
    80000dd8:	1101                	add	sp,sp,-32
    80000dda:	ec06                	sd	ra,24(sp)
    80000ddc:	e822                	sd	s0,16(sp)
    80000dde:	e426                	sd	s1,8(sp)
    80000de0:	1000                	add	s0,sp,32
    80000de2:	84aa                	mv	s1,a0
  push_off(); // disable interrupts to avoid deadlock.
    80000de4:	fb5ff0ef          	jal	80000d98 <push_off>
  if(holding(lk))
    80000de8:	8526                	mv	a0,s1
    80000dea:	f85ff0ef          	jal	80000d6e <holding>
  while(__sync_lock_test_and_set(&lk->locked, 1) != 0)
    80000dee:	4705                	li	a4,1
  if(holding(lk))
    80000df0:	e105                	bnez	a0,80000e10 <acquire+0x38>
  while(__sync_lock_test_and_set(&lk->locked, 1) != 0)
    80000df2:	87ba                	mv	a5,a4
    80000df4:	0cf4a7af          	amoswap.w.aq	a5,a5,(s1)
    80000df8:	2781                	sext.w	a5,a5
    80000dfa:	ffe5                	bnez	a5,80000df2 <acquire+0x1a>
  __sync_synchronize();
    80000dfc:	0ff0000f          	fence
  lk->cpu = mycpu();
    80000e00:	541000ef          	jal	80001b40 <mycpu>
    80000e04:	e888                	sd	a0,16(s1)
}
    80000e06:	60e2                	ld	ra,24(sp)
    80000e08:	6442                	ld	s0,16(sp)
    80000e0a:	64a2                	ld	s1,8(sp)
    80000e0c:	6105                	add	sp,sp,32
    80000e0e:	8082                	ret
    panic("acquire");
    80000e10:	0000e517          	auipc	a0,0xe
    80000e14:	3e850513          	add	a0,a0,1000 # 8000f1f8 <IP_ADDR_ANY+0x1d4>
    80000e18:	ec4ff0ef          	jal	800004dc <panic>

0000000080000e1c <pop_off>:

void
pop_off(void)
{
    80000e1c:	1141                	add	sp,sp,-16
    80000e1e:	e406                	sd	ra,8(sp)
    80000e20:	e022                	sd	s0,0(sp)
    80000e22:	0800                	add	s0,sp,16
  struct cpu *c = mycpu();
    80000e24:	51d000ef          	jal	80001b40 <mycpu>
  asm volatile("csrr %0, sstatus" : "=r" (x) );
    80000e28:	100027f3          	csrr	a5,sstatus
  return (x & SSTATUS_SIE) != 0;
    80000e2c:	8b89                	and	a5,a5,2
  if(intr_get())
    80000e2e:	e78d                	bnez	a5,80000e58 <pop_off+0x3c>
    panic("pop_off - interruptible");
  if(c->noff < 1)
    80000e30:	5d3c                	lw	a5,120(a0)
    80000e32:	02f05963          	blez	a5,80000e64 <pop_off+0x48>
    panic("pop_off");
  c->noff -= 1;
    80000e36:	37fd                	addw	a5,a5,-1
    80000e38:	0007871b          	sext.w	a4,a5
    80000e3c:	dd3c                	sw	a5,120(a0)
  if(c->noff == 0 && c->intena)
    80000e3e:	eb09                	bnez	a4,80000e50 <pop_off+0x34>
    80000e40:	5d7c                	lw	a5,124(a0)
    80000e42:	c799                	beqz	a5,80000e50 <pop_off+0x34>
  asm volatile("csrr %0, sstatus" : "=r" (x) );
    80000e44:	100027f3          	csrr	a5,sstatus
  w_sstatus(r_sstatus() | SSTATUS_SIE);
    80000e48:	0027e793          	or	a5,a5,2
  asm volatile("csrw sstatus, %0" : : "r" (x));
    80000e4c:	10079073          	csrw	sstatus,a5
    intr_on();
}
    80000e50:	60a2                	ld	ra,8(sp)
    80000e52:	6402                	ld	s0,0(sp)
    80000e54:	0141                	add	sp,sp,16
    80000e56:	8082                	ret
    panic("pop_off - interruptible");
    80000e58:	0000e517          	auipc	a0,0xe
    80000e5c:	3a850513          	add	a0,a0,936 # 8000f200 <IP_ADDR_ANY+0x1dc>
    80000e60:	e7cff0ef          	jal	800004dc <panic>
    panic("pop_off");
    80000e64:	0000e517          	auipc	a0,0xe
    80000e68:	3b450513          	add	a0,a0,948 # 8000f218 <IP_ADDR_ANY+0x1f4>
    80000e6c:	e70ff0ef          	jal	800004dc <panic>

0000000080000e70 <release>:
{
    80000e70:	1101                	add	sp,sp,-32
    80000e72:	ec06                	sd	ra,24(sp)
    80000e74:	e822                	sd	s0,16(sp)
    80000e76:	e426                	sd	s1,8(sp)
    80000e78:	1000                	add	s0,sp,32
    80000e7a:	84aa                	mv	s1,a0
  if(!holding(lk))
    80000e7c:	ef3ff0ef          	jal	80000d6e <holding>
    80000e80:	c105                	beqz	a0,80000ea0 <release+0x30>
  lk->cpu = 0;
    80000e82:	0004b823          	sd	zero,16(s1)
  __sync_synchronize();
    80000e86:	0ff0000f          	fence
  __sync_lock_release(&lk->locked);
    80000e8a:	0f50000f          	fence	iorw,ow
    80000e8e:	0804a02f          	amoswap.w	zero,zero,(s1)
  pop_off();
    80000e92:	f8bff0ef          	jal	80000e1c <pop_off>
}
    80000e96:	60e2                	ld	ra,24(sp)
    80000e98:	6442                	ld	s0,16(sp)
    80000e9a:	64a2                	ld	s1,8(sp)
    80000e9c:	6105                	add	sp,sp,32
    80000e9e:	8082                	ret
    panic("release");
    80000ea0:	0000e517          	auipc	a0,0xe
    80000ea4:	38050513          	add	a0,a0,896 # 8000f220 <IP_ADDR_ANY+0x1fc>
    80000ea8:	e34ff0ef          	jal	800004dc <panic>

0000000080000eac <memset>:
#include "types.h"

void*
memset(void *dst, int c, uint n)
{
    80000eac:	1141                	add	sp,sp,-16
    80000eae:	e422                	sd	s0,8(sp)
    80000eb0:	0800                	add	s0,sp,16
  char *cdst = (char *) dst;
  int i;
  for(i = 0; i < n; i++){
    80000eb2:	ca19                	beqz	a2,80000ec8 <memset+0x1c>
    80000eb4:	87aa                	mv	a5,a0
    80000eb6:	1602                	sll	a2,a2,0x20
    80000eb8:	9201                	srl	a2,a2,0x20
    80000eba:	00a60733          	add	a4,a2,a0
    cdst[i] = c;
    80000ebe:	00b78023          	sb	a1,0(a5)
  for(i = 0; i < n; i++){
    80000ec2:	0785                	add	a5,a5,1
    80000ec4:	fee79de3          	bne	a5,a4,80000ebe <memset+0x12>
  }
  return dst;
}
    80000ec8:	6422                	ld	s0,8(sp)
    80000eca:	0141                	add	sp,sp,16
    80000ecc:	8082                	ret

0000000080000ece <memcmp>:

int
memcmp(const void *v1, const void *v2, uint n)
{
    80000ece:	1141                	add	sp,sp,-16
    80000ed0:	e422                	sd	s0,8(sp)
    80000ed2:	0800                	add	s0,sp,16
  const uchar *s1, *s2;

  s1 = v1;
  s2 = v2;
  while(n-- > 0){
    80000ed4:	ca05                	beqz	a2,80000f04 <memcmp+0x36>
    80000ed6:	fff6069b          	addw	a3,a2,-1 # fff <_entry-0x7ffff001>
    80000eda:	1682                	sll	a3,a3,0x20
    80000edc:	9281                	srl	a3,a3,0x20
    80000ede:	0685                	add	a3,a3,1
    80000ee0:	96aa                	add	a3,a3,a0
    if(*s1 != *s2)
    80000ee2:	00054783          	lbu	a5,0(a0)
    80000ee6:	0005c703          	lbu	a4,0(a1)
    80000eea:	00e79863          	bne	a5,a4,80000efa <memcmp+0x2c>
      return *s1 - *s2;
    s1++, s2++;
    80000eee:	0505                	add	a0,a0,1
    80000ef0:	0585                	add	a1,a1,1
  while(n-- > 0){
    80000ef2:	fed518e3          	bne	a0,a3,80000ee2 <memcmp+0x14>
  }

  return 0;
    80000ef6:	4501                	li	a0,0
    80000ef8:	a019                	j	80000efe <memcmp+0x30>
      return *s1 - *s2;
    80000efa:	40e7853b          	subw	a0,a5,a4
}
    80000efe:	6422                	ld	s0,8(sp)
    80000f00:	0141                	add	sp,sp,16
    80000f02:	8082                	ret
  return 0;
    80000f04:	4501                	li	a0,0
    80000f06:	bfe5                	j	80000efe <memcmp+0x30>

0000000080000f08 <memmove>:

void*
memmove(void *dst, const void *src, uint n)
{
    80000f08:	1141                	add	sp,sp,-16
    80000f0a:	e422                	sd	s0,8(sp)
    80000f0c:	0800                	add	s0,sp,16
  const char *s;
  char *d;

  if(n == 0)
    80000f0e:	c205                	beqz	a2,80000f2e <memmove+0x26>
    return dst;
  
  s = src;
  d = dst;
  if(s < d && s + n > d){
    80000f10:	02a5e263          	bltu	a1,a0,80000f34 <memmove+0x2c>
    s += n;
    d += n;
    while(n-- > 0)
      *--d = *--s;
  } else
    while(n-- > 0)
    80000f14:	1602                	sll	a2,a2,0x20
    80000f16:	9201                	srl	a2,a2,0x20
    80000f18:	00c587b3          	add	a5,a1,a2
{
    80000f1c:	872a                	mv	a4,a0
      *d++ = *s++;
    80000f1e:	0585                	add	a1,a1,1
    80000f20:	0705                	add	a4,a4,1 # fffffffffffff001 <end+0xffffffff7fecb2d1>
    80000f22:	fff5c683          	lbu	a3,-1(a1)
    80000f26:	fed70fa3          	sb	a3,-1(a4)
    while(n-- > 0)
    80000f2a:	feb79ae3          	bne	a5,a1,80000f1e <memmove+0x16>

  return dst;
}
    80000f2e:	6422                	ld	s0,8(sp)
    80000f30:	0141                	add	sp,sp,16
    80000f32:	8082                	ret
  if(s < d && s + n > d){
    80000f34:	02061693          	sll	a3,a2,0x20
    80000f38:	9281                	srl	a3,a3,0x20
    80000f3a:	00d58733          	add	a4,a1,a3
    80000f3e:	fce57be3          	bgeu	a0,a4,80000f14 <memmove+0xc>
    d += n;
    80000f42:	96aa                	add	a3,a3,a0
    while(n-- > 0)
    80000f44:	fff6079b          	addw	a5,a2,-1
    80000f48:	1782                	sll	a5,a5,0x20
    80000f4a:	9381                	srl	a5,a5,0x20
    80000f4c:	fff7c793          	not	a5,a5
    80000f50:	97ba                	add	a5,a5,a4
      *--d = *--s;
    80000f52:	177d                	add	a4,a4,-1
    80000f54:	16fd                	add	a3,a3,-1
    80000f56:	00074603          	lbu	a2,0(a4)
    80000f5a:	00c68023          	sb	a2,0(a3)
    while(n-- > 0)
    80000f5e:	fef71ae3          	bne	a4,a5,80000f52 <memmove+0x4a>
    80000f62:	b7f1                	j	80000f2e <memmove+0x26>

0000000080000f64 <memcpy>:

// memcpy exists to placate GCC.  Use memmove.
void*
memcpy(void *dst, const void *src, uint n)
{
    80000f64:	1141                	add	sp,sp,-16
    80000f66:	e406                	sd	ra,8(sp)
    80000f68:	e022                	sd	s0,0(sp)
    80000f6a:	0800                	add	s0,sp,16
  return memmove(dst, src, n);
    80000f6c:	f9dff0ef          	jal	80000f08 <memmove>
}
    80000f70:	60a2                	ld	ra,8(sp)
    80000f72:	6402                	ld	s0,0(sp)
    80000f74:	0141                	add	sp,sp,16
    80000f76:	8082                	ret

0000000080000f78 <strncmp>:

int
strncmp(const char *p, const char *q, uint n)
{
    80000f78:	1141                	add	sp,sp,-16
    80000f7a:	e422                	sd	s0,8(sp)
    80000f7c:	0800                	add	s0,sp,16
  while(n > 0 && *p && *p == *q)
    80000f7e:	ce11                	beqz	a2,80000f9a <strncmp+0x22>
    80000f80:	00054783          	lbu	a5,0(a0)
    80000f84:	cf89                	beqz	a5,80000f9e <strncmp+0x26>
    80000f86:	0005c703          	lbu	a4,0(a1)
    80000f8a:	00f71a63          	bne	a4,a5,80000f9e <strncmp+0x26>
    n--, p++, q++;
    80000f8e:	367d                	addw	a2,a2,-1
    80000f90:	0505                	add	a0,a0,1
    80000f92:	0585                	add	a1,a1,1
  while(n > 0 && *p && *p == *q)
    80000f94:	f675                	bnez	a2,80000f80 <strncmp+0x8>
  if(n == 0)
    return 0;
    80000f96:	4501                	li	a0,0
    80000f98:	a801                	j	80000fa8 <strncmp+0x30>
    80000f9a:	4501                	li	a0,0
    80000f9c:	a031                	j	80000fa8 <strncmp+0x30>
  return (uchar)*p - (uchar)*q;
    80000f9e:	00054503          	lbu	a0,0(a0)
    80000fa2:	0005c783          	lbu	a5,0(a1)
    80000fa6:	9d1d                	subw	a0,a0,a5
}
    80000fa8:	6422                	ld	s0,8(sp)
    80000faa:	0141                	add	sp,sp,16
    80000fac:	8082                	ret

0000000080000fae <strncpy>:

char*
strncpy(char *s, const char *t, int n)
{
    80000fae:	1141                	add	sp,sp,-16
    80000fb0:	e422                	sd	s0,8(sp)
    80000fb2:	0800                	add	s0,sp,16
  char *os;

  os = s;
  while(n-- > 0 && (*s++ = *t++) != 0)
    80000fb4:	87aa                	mv	a5,a0
    80000fb6:	86b2                	mv	a3,a2
    80000fb8:	367d                	addw	a2,a2,-1
    80000fba:	02d05563          	blez	a3,80000fe4 <strncpy+0x36>
    80000fbe:	0785                	add	a5,a5,1
    80000fc0:	0005c703          	lbu	a4,0(a1)
    80000fc4:	fee78fa3          	sb	a4,-1(a5)
    80000fc8:	0585                	add	a1,a1,1
    80000fca:	f775                	bnez	a4,80000fb6 <strncpy+0x8>
    ;
  while(n-- > 0)
    80000fcc:	873e                	mv	a4,a5
    80000fce:	9fb5                	addw	a5,a5,a3
    80000fd0:	37fd                	addw	a5,a5,-1
    80000fd2:	00c05963          	blez	a2,80000fe4 <strncpy+0x36>
    *s++ = 0;
    80000fd6:	0705                	add	a4,a4,1
    80000fd8:	fe070fa3          	sb	zero,-1(a4)
  while(n-- > 0)
    80000fdc:	40e786bb          	subw	a3,a5,a4
    80000fe0:	fed04be3          	bgtz	a3,80000fd6 <strncpy+0x28>
  return os;
}
    80000fe4:	6422                	ld	s0,8(sp)
    80000fe6:	0141                	add	sp,sp,16
    80000fe8:	8082                	ret

0000000080000fea <safestrcpy>:

// Like strncpy but guaranteed to NUL-terminate.
char*
safestrcpy(char *s, const char *t, int n)
{
    80000fea:	1141                	add	sp,sp,-16
    80000fec:	e422                	sd	s0,8(sp)
    80000fee:	0800                	add	s0,sp,16
  char *os;

  os = s;
  if(n <= 0)
    80000ff0:	02c05363          	blez	a2,80001016 <safestrcpy+0x2c>
    80000ff4:	fff6069b          	addw	a3,a2,-1
    80000ff8:	1682                	sll	a3,a3,0x20
    80000ffa:	9281                	srl	a3,a3,0x20
    80000ffc:	96ae                	add	a3,a3,a1
    80000ffe:	87aa                	mv	a5,a0
    return os;
  while(--n > 0 && (*s++ = *t++) != 0)
    80001000:	00d58963          	beq	a1,a3,80001012 <safestrcpy+0x28>
    80001004:	0585                	add	a1,a1,1
    80001006:	0785                	add	a5,a5,1
    80001008:	fff5c703          	lbu	a4,-1(a1)
    8000100c:	fee78fa3          	sb	a4,-1(a5)
    80001010:	fb65                	bnez	a4,80001000 <safestrcpy+0x16>
    ;
  *s = 0;
    80001012:	00078023          	sb	zero,0(a5)
  return os;
}
    80001016:	6422                	ld	s0,8(sp)
    80001018:	0141                	add	sp,sp,16
    8000101a:	8082                	ret

000000008000101c <strlen>:

int
strlen(const char *s)
{
    8000101c:	1141                	add	sp,sp,-16
    8000101e:	e422                	sd	s0,8(sp)
    80001020:	0800                	add	s0,sp,16
  int n;

  for(n = 0; s[n]; n++)
    80001022:	00054783          	lbu	a5,0(a0)
    80001026:	cf91                	beqz	a5,80001042 <strlen+0x26>
    80001028:	0505                	add	a0,a0,1
    8000102a:	87aa                	mv	a5,a0
    8000102c:	86be                	mv	a3,a5
    8000102e:	0785                	add	a5,a5,1
    80001030:	fff7c703          	lbu	a4,-1(a5)
    80001034:	ff65                	bnez	a4,8000102c <strlen+0x10>
    80001036:	40a6853b          	subw	a0,a3,a0
    8000103a:	2505                	addw	a0,a0,1
    ;
  return n;
}
    8000103c:	6422                	ld	s0,8(sp)
    8000103e:	0141                	add	sp,sp,16
    80001040:	8082                	ret
  for(n = 0; s[n]; n++)
    80001042:	4501                	li	a0,0
    80001044:	bfe5                	j	8000103c <strlen+0x20>

0000000080001046 <strnlen>:

int
strnlen(const char *s, uint z)
{
    80001046:	1141                	add	sp,sp,-16
    80001048:	e422                	sd	s0,8(sp)
    8000104a:	0800                	add	s0,sp,16
  int n;

  for (n = 0; z > 0 && s[n]; n++, z--)
    8000104c:	cd99                	beqz	a1,8000106a <strnlen+0x24>
    8000104e:	87aa                	mv	a5,a0
    80001050:	2581                	sext.w	a1,a1
    80001052:	4501                	li	a0,0
    80001054:	0007c703          	lbu	a4,0(a5)
    80001058:	c711                	beqz	a4,80001064 <strnlen+0x1e>
    8000105a:	2505                	addw	a0,a0,1
    8000105c:	0785                	add	a5,a5,1
    8000105e:	feb51be3          	bne	a0,a1,80001054 <strnlen+0xe>
    80001062:	852e                	mv	a0,a1
    ;
  return n;
}
    80001064:	6422                	ld	s0,8(sp)
    80001066:	0141                	add	sp,sp,16
    80001068:	8082                	ret
  for (n = 0; z > 0 && s[n]; n++, z--)
    8000106a:	4501                	li	a0,0
    8000106c:	bfe5                	j	80001064 <strnlen+0x1e>

000000008000106e <main>:
}

// start() jumps here in supervisor mode on all CPUs.
void
main()
{
    8000106e:	715d                	add	sp,sp,-80
    80001070:	e486                	sd	ra,72(sp)
    80001072:	e0a2                	sd	s0,64(sp)
    80001074:	0880                	add	s0,sp,80
  if(cpuid() == 0){
    80001076:	2bb000ef          	jal	80001b30 <cpuid>
    netrun();        // start networking
    userinit();      // first user process
    __sync_synchronize();
    started = 1;
  } else {
    while(started == 0)
    8000107a:	00010717          	auipc	a4,0x10
    8000107e:	5de70713          	add	a4,a4,1502 # 80011658 <started>
  if(cpuid() == 0){
    80001082:	c51d                	beqz	a0,800010b0 <main+0x42>
    while(started == 0)
    80001084:	431c                	lw	a5,0(a4)
    80001086:	2781                	sext.w	a5,a5
    80001088:	dff5                	beqz	a5,80001084 <main+0x16>
      ;
    __sync_synchronize();
    8000108a:	0ff0000f          	fence
    printf("hart %d starting\n", cpuid());
    8000108e:	2a3000ef          	jal	80001b30 <cpuid>
    80001092:	85aa                	mv	a1,a0
    80001094:	0000e517          	auipc	a0,0xe
    80001098:	1cc50513          	add	a0,a0,460 # 8000f260 <IP_ADDR_ANY+0x23c>
    8000109c:	bd4ff0ef          	jal	80000470 <printf>
    kvminithart();    // turn on paging
    800010a0:	0cc000ef          	jal	8000116c <kvminithart>
    trapinithart();   // install kernel trap vector
    800010a4:	5bc010ef          	jal	80002660 <trapinithart>
    plicinithart();   // ask PLIC for device interrupts
    800010a8:	4e6040ef          	jal	8000558e <plicinithart>
  }

  scheduler();        
    800010ac:	6e5000ef          	jal	80001f90 <scheduler>
    consoleinit();
    800010b0:	b3cff0ef          	jal	800003ec <consoleinit>
    printfinit();
    800010b4:	c62ff0ef          	jal	80000516 <printfinit>
    printf("\n");
    800010b8:	0000f517          	auipc	a0,0xf
    800010bc:	7e850513          	add	a0,a0,2024 # 800108a0 <IP_ADDR_ANY+0x187c>
    800010c0:	bb0ff0ef          	jal	80000470 <printf>
    printf("xv6 kernel is booting\n");
    800010c4:	0000e517          	auipc	a0,0xe
    800010c8:	16450513          	add	a0,a0,356 # 8000f228 <IP_ADDR_ANY+0x204>
    800010cc:	ba4ff0ef          	jal	80000470 <printf>
    printf("\n");
    800010d0:	0000f517          	auipc	a0,0xf
    800010d4:	7d050513          	add	a0,a0,2000 # 800108a0 <IP_ADDR_ANY+0x187c>
    800010d8:	b98ff0ef          	jal	80000470 <printf>
    kinit();         // physical page allocator
    800010dc:	bf9ff0ef          	jal	80000cd4 <kinit>
    kvminit();       // create kernel page table
    800010e0:	33a000ef          	jal	8000141a <kvminit>
    kvminithart();   // turn on paging
    800010e4:	088000ef          	jal	8000116c <kvminithart>
    procinit();      // process table
    800010e8:	193000ef          	jal	80001a7a <procinit>
    trapinit();      // trap vectors
    800010ec:	53c010ef          	jal	80002628 <trapinit>
    trapinithart();  // install kernel trap vector
    800010f0:	570010ef          	jal	80002660 <trapinithart>
    plicinit();      // set up interrupt controller
    800010f4:	47a040ef          	jal	8000556e <plicinit>
    plicinithart();  // ask PLIC for device interrupts
    800010f8:	496040ef          	jal	8000558e <plicinithart>
    binit();         // buffer cache
    800010fc:	413010ef          	jal	80002d0e <binit>
    iinit();         // inode table
    80001100:	204020ef          	jal	80003304 <iinit>
    fileinit();      // file table
    80001104:	7b1020ef          	jal	800040b4 <fileinit>
    virtio_disk_init(); // emulated hard disk
    80001108:	7ca040ef          	jal	800058d2 <virtio_disk_init>
  gettimeofday(&tv, NULL);
    8000110c:	4581                	li	a1,0
    8000110e:	fb840513          	add	a0,s0,-72
    80001112:	564040ef          	jal	80005676 <gettimeofday>
  localtime_r(&tv.tv_sec, &tm);
    80001116:	fc840593          	add	a1,s0,-56
    8000111a:	fb840513          	add	a0,s0,-72
    8000111e:	686040ef          	jal	800057a4 <localtime_r>
  printf("%04d/%02d/%02d %02d:%02d:%02d\n",
    80001122:	fd842603          	lw	a2,-40(s0)
    80001126:	fdc42583          	lw	a1,-36(s0)
    8000112a:	fc842803          	lw	a6,-56(s0)
    8000112e:	fcc42783          	lw	a5,-52(s0)
    80001132:	fd042703          	lw	a4,-48(s0)
    80001136:	fd442683          	lw	a3,-44(s0)
    8000113a:	2605                	addw	a2,a2,1
    8000113c:	76c5859b          	addw	a1,a1,1900
    80001140:	0000e517          	auipc	a0,0xe
    80001144:	10050513          	add	a0,a0,256 # 8000f240 <IP_ADDR_ANY+0x21c>
    80001148:	b28ff0ef          	jal	80000470 <printf>
    netinit();       // network stack
    8000114c:	598060ef          	jal	800076e4 <netinit>
    virtio_net_init(); // emulated network card
    80001150:	1e60c0ef          	jal	8000d336 <virtio_net_init>
    netrun();        // start networking
    80001154:	5b6060ef          	jal	8000770a <netrun>
    userinit();      // first user process
    80001158:	46d000ef          	jal	80001dc4 <userinit>
    __sync_synchronize();
    8000115c:	0ff0000f          	fence
    started = 1;
    80001160:	4785                	li	a5,1
    80001162:	00010717          	auipc	a4,0x10
    80001166:	4ef72b23          	sw	a5,1270(a4) # 80011658 <started>
    8000116a:	b789                	j	800010ac <main+0x3e>

000000008000116c <kvminithart>:

// Switch h/w page table register to the kernel's page table,
// and enable paging.
void
kvminithart()
{
    8000116c:	1141                	add	sp,sp,-16
    8000116e:	e422                	sd	s0,8(sp)
    80001170:	0800                	add	s0,sp,16
// flush the TLB.
static inline void
sfence_vma()
{
  // the zero, zero means flush all TLB entries.
  asm volatile("sfence.vma zero, zero");
    80001172:	12000073          	sfence.vma
  // wait for any previous writes to the page table memory to finish.
  sfence_vma();

  w_satp(MAKE_SATP(kernel_pagetable));
    80001176:	00010797          	auipc	a5,0x10
    8000117a:	4ea7b783          	ld	a5,1258(a5) # 80011660 <kernel_pagetable>
    8000117e:	83b1                	srl	a5,a5,0xc
    80001180:	577d                	li	a4,-1
    80001182:	177e                	sll	a4,a4,0x3f
    80001184:	8fd9                	or	a5,a5,a4
  asm volatile("csrw satp, %0" : : "r" (x));
    80001186:	18079073          	csrw	satp,a5
  asm volatile("sfence.vma zero, zero");
    8000118a:	12000073          	sfence.vma

  // flush stale entries from the TLB.
  sfence_vma();
}
    8000118e:	6422                	ld	s0,8(sp)
    80001190:	0141                	add	sp,sp,16
    80001192:	8082                	ret

0000000080001194 <walk>:
//   21..29 -- 9 bits of level-1 index.
//   12..20 -- 9 bits of level-0 index.
//    0..11 -- 12 bits of byte offset within the page.
pte_t *
walk(pagetable_t pagetable, uint64 va, int alloc)
{
    80001194:	7139                	add	sp,sp,-64
    80001196:	fc06                	sd	ra,56(sp)
    80001198:	f822                	sd	s0,48(sp)
    8000119a:	f426                	sd	s1,40(sp)
    8000119c:	f04a                	sd	s2,32(sp)
    8000119e:	ec4e                	sd	s3,24(sp)
    800011a0:	e852                	sd	s4,16(sp)
    800011a2:	e456                	sd	s5,8(sp)
    800011a4:	e05a                	sd	s6,0(sp)
    800011a6:	0080                	add	s0,sp,64
    800011a8:	84aa                	mv	s1,a0
    800011aa:	89ae                	mv	s3,a1
    800011ac:	8ab2                	mv	s5,a2
  if(va >= MAXVA)
    800011ae:	57fd                	li	a5,-1
    800011b0:	83e9                	srl	a5,a5,0x1a
    800011b2:	4a79                	li	s4,30
    panic("walk");

  for(int level = 2; level > 0; level--) {
    800011b4:	4b31                	li	s6,12
  if(va >= MAXVA)
    800011b6:	02b7fc63          	bgeu	a5,a1,800011ee <walk+0x5a>
    panic("walk");
    800011ba:	0000e517          	auipc	a0,0xe
    800011be:	0be50513          	add	a0,a0,190 # 8000f278 <IP_ADDR_ANY+0x254>
    800011c2:	b1aff0ef          	jal	800004dc <panic>
    pte_t *pte = &pagetable[PX(level, va)];
    if(*pte & PTE_V) {
      pagetable = (pagetable_t)PTE2PA(*pte);
    } else {
      if(!alloc || (pagetable = (pde_t*)kalloc()) == 0)
    800011c6:	060a8263          	beqz	s5,8000122a <walk+0x96>
    800011ca:	b3fff0ef          	jal	80000d08 <kalloc>
    800011ce:	84aa                	mv	s1,a0
    800011d0:	c139                	beqz	a0,80001216 <walk+0x82>
        return 0;
      memset(pagetable, 0, PGSIZE);
    800011d2:	6605                	lui	a2,0x1
    800011d4:	4581                	li	a1,0
    800011d6:	cd7ff0ef          	jal	80000eac <memset>
      *pte = PA2PTE(pagetable) | PTE_V;
    800011da:	00c4d793          	srl	a5,s1,0xc
    800011de:	07aa                	sll	a5,a5,0xa
    800011e0:	0017e793          	or	a5,a5,1
    800011e4:	00f93023          	sd	a5,0(s2)
  for(int level = 2; level > 0; level--) {
    800011e8:	3a5d                	addw	s4,s4,-9 # ffffffffffffeff7 <end+0xffffffff7fecb2c7>
    800011ea:	036a0063          	beq	s4,s6,8000120a <walk+0x76>
    pte_t *pte = &pagetable[PX(level, va)];
    800011ee:	0149d933          	srl	s2,s3,s4
    800011f2:	1ff97913          	and	s2,s2,511
    800011f6:	090e                	sll	s2,s2,0x3
    800011f8:	9926                	add	s2,s2,s1
    if(*pte & PTE_V) {
    800011fa:	00093483          	ld	s1,0(s2)
    800011fe:	0014f793          	and	a5,s1,1
    80001202:	d3f1                	beqz	a5,800011c6 <walk+0x32>
      pagetable = (pagetable_t)PTE2PA(*pte);
    80001204:	80a9                	srl	s1,s1,0xa
    80001206:	04b2                	sll	s1,s1,0xc
    80001208:	b7c5                	j	800011e8 <walk+0x54>
    }
  }
  return &pagetable[PX(0, va)];
    8000120a:	00c9d513          	srl	a0,s3,0xc
    8000120e:	1ff57513          	and	a0,a0,511
    80001212:	050e                	sll	a0,a0,0x3
    80001214:	9526                	add	a0,a0,s1
}
    80001216:	70e2                	ld	ra,56(sp)
    80001218:	7442                	ld	s0,48(sp)
    8000121a:	74a2                	ld	s1,40(sp)
    8000121c:	7902                	ld	s2,32(sp)
    8000121e:	69e2                	ld	s3,24(sp)
    80001220:	6a42                	ld	s4,16(sp)
    80001222:	6aa2                	ld	s5,8(sp)
    80001224:	6b02                	ld	s6,0(sp)
    80001226:	6121                	add	sp,sp,64
    80001228:	8082                	ret
        return 0;
    8000122a:	4501                	li	a0,0
    8000122c:	b7ed                	j	80001216 <walk+0x82>

000000008000122e <walkaddr>:
walkaddr(pagetable_t pagetable, uint64 va)
{
  pte_t *pte;
  uint64 pa;

  if(va >= MAXVA)
    8000122e:	57fd                	li	a5,-1
    80001230:	83e9                	srl	a5,a5,0x1a
    80001232:	00b7f463          	bgeu	a5,a1,8000123a <walkaddr+0xc>
    return 0;
    80001236:	4501                	li	a0,0
    return 0;
  if((*pte & PTE_U) == 0)
    return 0;
  pa = PTE2PA(*pte);
  return pa;
}
    80001238:	8082                	ret
{
    8000123a:	1141                	add	sp,sp,-16
    8000123c:	e406                	sd	ra,8(sp)
    8000123e:	e022                	sd	s0,0(sp)
    80001240:	0800                	add	s0,sp,16
  pte = walk(pagetable, va, 0);
    80001242:	4601                	li	a2,0
    80001244:	f51ff0ef          	jal	80001194 <walk>
  if(pte == 0)
    80001248:	c105                	beqz	a0,80001268 <walkaddr+0x3a>
  if((*pte & PTE_V) == 0)
    8000124a:	611c                	ld	a5,0(a0)
  if((*pte & PTE_U) == 0)
    8000124c:	0117f693          	and	a3,a5,17
    80001250:	4745                	li	a4,17
    return 0;
    80001252:	4501                	li	a0,0
  if((*pte & PTE_U) == 0)
    80001254:	00e68663          	beq	a3,a4,80001260 <walkaddr+0x32>
}
    80001258:	60a2                	ld	ra,8(sp)
    8000125a:	6402                	ld	s0,0(sp)
    8000125c:	0141                	add	sp,sp,16
    8000125e:	8082                	ret
  pa = PTE2PA(*pte);
    80001260:	83a9                	srl	a5,a5,0xa
    80001262:	00c79513          	sll	a0,a5,0xc
  return pa;
    80001266:	bfcd                	j	80001258 <walkaddr+0x2a>
    return 0;
    80001268:	4501                	li	a0,0
    8000126a:	b7fd                	j	80001258 <walkaddr+0x2a>

000000008000126c <mappages>:
// va and size MUST be page-aligned.
// Returns 0 on success, -1 if walk() couldn't
// allocate a needed page-table page.
int
mappages(pagetable_t pagetable, uint64 va, uint64 size, uint64 pa, int perm)
{
    8000126c:	715d                	add	sp,sp,-80
    8000126e:	e486                	sd	ra,72(sp)
    80001270:	e0a2                	sd	s0,64(sp)
    80001272:	fc26                	sd	s1,56(sp)
    80001274:	f84a                	sd	s2,48(sp)
    80001276:	f44e                	sd	s3,40(sp)
    80001278:	f052                	sd	s4,32(sp)
    8000127a:	ec56                	sd	s5,24(sp)
    8000127c:	e85a                	sd	s6,16(sp)
    8000127e:	e45e                	sd	s7,8(sp)
    80001280:	0880                	add	s0,sp,80
  uint64 a, last;
  pte_t *pte;

  if((va % PGSIZE) != 0)
    80001282:	03459793          	sll	a5,a1,0x34
    80001286:	e7a9                	bnez	a5,800012d0 <mappages+0x64>
    80001288:	8aaa                	mv	s5,a0
    8000128a:	8b3a                	mv	s6,a4
    panic("mappages: va not aligned");

  if((size % PGSIZE) != 0)
    8000128c:	03461793          	sll	a5,a2,0x34
    80001290:	e7b1                	bnez	a5,800012dc <mappages+0x70>
    panic("mappages: size not aligned");

  if(size == 0)
    80001292:	ca39                	beqz	a2,800012e8 <mappages+0x7c>
    panic("mappages: size");
  
  a = va;
  last = va + size - PGSIZE;
    80001294:	77fd                	lui	a5,0xfffff
    80001296:	963e                	add	a2,a2,a5
    80001298:	00b609b3          	add	s3,a2,a1
  a = va;
    8000129c:	892e                	mv	s2,a1
    8000129e:	40b68a33          	sub	s4,a3,a1
    if(*pte & PTE_V)
      panic("mappages: remap");
    *pte = PA2PTE(pa) | perm | PTE_V;
    if(a == last)
      break;
    a += PGSIZE;
    800012a2:	6b85                	lui	s7,0x1
    800012a4:	014904b3          	add	s1,s2,s4
    if((pte = walk(pagetable, a, 1)) == 0)
    800012a8:	4605                	li	a2,1
    800012aa:	85ca                	mv	a1,s2
    800012ac:	8556                	mv	a0,s5
    800012ae:	ee7ff0ef          	jal	80001194 <walk>
    800012b2:	c539                	beqz	a0,80001300 <mappages+0x94>
    if(*pte & PTE_V)
    800012b4:	611c                	ld	a5,0(a0)
    800012b6:	8b85                	and	a5,a5,1
    800012b8:	ef95                	bnez	a5,800012f4 <mappages+0x88>
    *pte = PA2PTE(pa) | perm | PTE_V;
    800012ba:	80b1                	srl	s1,s1,0xc
    800012bc:	04aa                	sll	s1,s1,0xa
    800012be:	0164e4b3          	or	s1,s1,s6
    800012c2:	0014e493          	or	s1,s1,1
    800012c6:	e104                	sd	s1,0(a0)
    if(a == last)
    800012c8:	05390863          	beq	s2,s3,80001318 <mappages+0xac>
    a += PGSIZE;
    800012cc:	995e                	add	s2,s2,s7
    if((pte = walk(pagetable, a, 1)) == 0)
    800012ce:	bfd9                	j	800012a4 <mappages+0x38>
    panic("mappages: va not aligned");
    800012d0:	0000e517          	auipc	a0,0xe
    800012d4:	fb050513          	add	a0,a0,-80 # 8000f280 <IP_ADDR_ANY+0x25c>
    800012d8:	a04ff0ef          	jal	800004dc <panic>
    panic("mappages: size not aligned");
    800012dc:	0000e517          	auipc	a0,0xe
    800012e0:	fc450513          	add	a0,a0,-60 # 8000f2a0 <IP_ADDR_ANY+0x27c>
    800012e4:	9f8ff0ef          	jal	800004dc <panic>
    panic("mappages: size");
    800012e8:	0000e517          	auipc	a0,0xe
    800012ec:	fd850513          	add	a0,a0,-40 # 8000f2c0 <IP_ADDR_ANY+0x29c>
    800012f0:	9ecff0ef          	jal	800004dc <panic>
      panic("mappages: remap");
    800012f4:	0000e517          	auipc	a0,0xe
    800012f8:	fdc50513          	add	a0,a0,-36 # 8000f2d0 <IP_ADDR_ANY+0x2ac>
    800012fc:	9e0ff0ef          	jal	800004dc <panic>
      return -1;
    80001300:	557d                	li	a0,-1
    pa += PGSIZE;
  }
  return 0;
}
    80001302:	60a6                	ld	ra,72(sp)
    80001304:	6406                	ld	s0,64(sp)
    80001306:	74e2                	ld	s1,56(sp)
    80001308:	7942                	ld	s2,48(sp)
    8000130a:	79a2                	ld	s3,40(sp)
    8000130c:	7a02                	ld	s4,32(sp)
    8000130e:	6ae2                	ld	s5,24(sp)
    80001310:	6b42                	ld	s6,16(sp)
    80001312:	6ba2                	ld	s7,8(sp)
    80001314:	6161                	add	sp,sp,80
    80001316:	8082                	ret
  return 0;
    80001318:	4501                	li	a0,0
    8000131a:	b7e5                	j	80001302 <mappages+0x96>

000000008000131c <kvmmap>:
{
    8000131c:	1141                	add	sp,sp,-16
    8000131e:	e406                	sd	ra,8(sp)
    80001320:	e022                	sd	s0,0(sp)
    80001322:	0800                	add	s0,sp,16
    80001324:	87b6                	mv	a5,a3
  if(mappages(kpgtbl, va, sz, pa, perm) != 0)
    80001326:	86b2                	mv	a3,a2
    80001328:	863e                	mv	a2,a5
    8000132a:	f43ff0ef          	jal	8000126c <mappages>
    8000132e:	e509                	bnez	a0,80001338 <kvmmap+0x1c>
}
    80001330:	60a2                	ld	ra,8(sp)
    80001332:	6402                	ld	s0,0(sp)
    80001334:	0141                	add	sp,sp,16
    80001336:	8082                	ret
    panic("kvmmap");
    80001338:	0000e517          	auipc	a0,0xe
    8000133c:	fa850513          	add	a0,a0,-88 # 8000f2e0 <IP_ADDR_ANY+0x2bc>
    80001340:	99cff0ef          	jal	800004dc <panic>

0000000080001344 <kvmmake>:
{
    80001344:	1101                	add	sp,sp,-32
    80001346:	ec06                	sd	ra,24(sp)
    80001348:	e822                	sd	s0,16(sp)
    8000134a:	e426                	sd	s1,8(sp)
    8000134c:	e04a                	sd	s2,0(sp)
    8000134e:	1000                	add	s0,sp,32
  kpgtbl = (pagetable_t) kalloc();
    80001350:	9b9ff0ef          	jal	80000d08 <kalloc>
    80001354:	84aa                	mv	s1,a0
  memset(kpgtbl, 0, PGSIZE);
    80001356:	6605                	lui	a2,0x1
    80001358:	4581                	li	a1,0
    8000135a:	b53ff0ef          	jal	80000eac <memset>
  kvmmap(kpgtbl, RTC, RTC, PGSIZE, PTE_R | PTE_W);
    8000135e:	4719                	li	a4,6
    80001360:	6685                	lui	a3,0x1
    80001362:	00101637          	lui	a2,0x101
    80001366:	001015b7          	lui	a1,0x101
    8000136a:	8526                	mv	a0,s1
    8000136c:	fb1ff0ef          	jal	8000131c <kvmmap>
  kvmmap(kpgtbl, UART0, UART0, PGSIZE, PTE_R | PTE_W);
    80001370:	4719                	li	a4,6
    80001372:	6685                	lui	a3,0x1
    80001374:	10000637          	lui	a2,0x10000
    80001378:	100005b7          	lui	a1,0x10000
    8000137c:	8526                	mv	a0,s1
    8000137e:	f9fff0ef          	jal	8000131c <kvmmap>
  kvmmap(kpgtbl, VIRTIO0, VIRTIO0, PGSIZE, PTE_R | PTE_W);
    80001382:	4719                	li	a4,6
    80001384:	6685                	lui	a3,0x1
    80001386:	10001637          	lui	a2,0x10001
    8000138a:	100015b7          	lui	a1,0x10001
    8000138e:	8526                	mv	a0,s1
    80001390:	f8dff0ef          	jal	8000131c <kvmmap>
  kvmmap(kpgtbl, VIRTIO1, VIRTIO1, PGSIZE, PTE_R | PTE_W);
    80001394:	4719                	li	a4,6
    80001396:	6685                	lui	a3,0x1
    80001398:	10002637          	lui	a2,0x10002
    8000139c:	100025b7          	lui	a1,0x10002
    800013a0:	8526                	mv	a0,s1
    800013a2:	f7bff0ef          	jal	8000131c <kvmmap>
  kvmmap(kpgtbl, PLIC, PLIC, 0x4000000, PTE_R | PTE_W);
    800013a6:	4719                	li	a4,6
    800013a8:	040006b7          	lui	a3,0x4000
    800013ac:	0c000637          	lui	a2,0xc000
    800013b0:	0c0005b7          	lui	a1,0xc000
    800013b4:	8526                	mv	a0,s1
    800013b6:	f67ff0ef          	jal	8000131c <kvmmap>
  kvmmap(kpgtbl, KERNBASE, KERNBASE, (uint64)etext-KERNBASE, PTE_R | PTE_X);
    800013ba:	0000e917          	auipc	s2,0xe
    800013be:	c4690913          	add	s2,s2,-954 # 8000f000 <etext>
    800013c2:	4729                	li	a4,10
    800013c4:	8000e697          	auipc	a3,0x8000e
    800013c8:	c3c68693          	add	a3,a3,-964 # f000 <_entry-0x7fff1000>
    800013cc:	4605                	li	a2,1
    800013ce:	067e                	sll	a2,a2,0x1f
    800013d0:	85b2                	mv	a1,a2
    800013d2:	8526                	mv	a0,s1
    800013d4:	f49ff0ef          	jal	8000131c <kvmmap>
  kvmmap(kpgtbl, (uint64)etext, (uint64)etext, PHYSTOP-(uint64)etext, PTE_R | PTE_W);
    800013d8:	46c5                	li	a3,17
    800013da:	06ee                	sll	a3,a3,0x1b
    800013dc:	4719                	li	a4,6
    800013de:	412686b3          	sub	a3,a3,s2
    800013e2:	864a                	mv	a2,s2
    800013e4:	85ca                	mv	a1,s2
    800013e6:	8526                	mv	a0,s1
    800013e8:	f35ff0ef          	jal	8000131c <kvmmap>
  kvmmap(kpgtbl, TRAMPOLINE, (uint64)trampoline, PGSIZE, PTE_R | PTE_X);
    800013ec:	4729                	li	a4,10
    800013ee:	6685                	lui	a3,0x1
    800013f0:	0000d617          	auipc	a2,0xd
    800013f4:	c1060613          	add	a2,a2,-1008 # 8000e000 <_trampoline>
    800013f8:	040005b7          	lui	a1,0x4000
    800013fc:	15fd                	add	a1,a1,-1 # 3ffffff <_entry-0x7c000001>
    800013fe:	05b2                	sll	a1,a1,0xc
    80001400:	8526                	mv	a0,s1
    80001402:	f1bff0ef          	jal	8000131c <kvmmap>
  proc_mapstacks(kpgtbl);
    80001406:	8526                	mv	a0,s1
    80001408:	5da000ef          	jal	800019e2 <proc_mapstacks>
}
    8000140c:	8526                	mv	a0,s1
    8000140e:	60e2                	ld	ra,24(sp)
    80001410:	6442                	ld	s0,16(sp)
    80001412:	64a2                	ld	s1,8(sp)
    80001414:	6902                	ld	s2,0(sp)
    80001416:	6105                	add	sp,sp,32
    80001418:	8082                	ret

000000008000141a <kvminit>:
{
    8000141a:	1141                	add	sp,sp,-16
    8000141c:	e406                	sd	ra,8(sp)
    8000141e:	e022                	sd	s0,0(sp)
    80001420:	0800                	add	s0,sp,16
  kernel_pagetable = kvmmake();
    80001422:	f23ff0ef          	jal	80001344 <kvmmake>
    80001426:	00010797          	auipc	a5,0x10
    8000142a:	22a7bd23          	sd	a0,570(a5) # 80011660 <kernel_pagetable>
}
    8000142e:	60a2                	ld	ra,8(sp)
    80001430:	6402                	ld	s0,0(sp)
    80001432:	0141                	add	sp,sp,16
    80001434:	8082                	ret

0000000080001436 <uvmunmap>:
// Remove npages of mappings starting from va. va must be
// page-aligned. The mappings must exist.
// Optionally free the physical memory.
void
uvmunmap(pagetable_t pagetable, uint64 va, uint64 npages, int do_free)
{
    80001436:	715d                	add	sp,sp,-80
    80001438:	e486                	sd	ra,72(sp)
    8000143a:	e0a2                	sd	s0,64(sp)
    8000143c:	0880                	add	s0,sp,80
  uint64 a;
  pte_t *pte;

  if((va % PGSIZE) != 0)
    8000143e:	03459793          	sll	a5,a1,0x34
    80001442:	e39d                	bnez	a5,80001468 <uvmunmap+0x32>
    80001444:	f84a                	sd	s2,48(sp)
    80001446:	f44e                	sd	s3,40(sp)
    80001448:	f052                	sd	s4,32(sp)
    8000144a:	ec56                	sd	s5,24(sp)
    8000144c:	e85a                	sd	s6,16(sp)
    8000144e:	e45e                	sd	s7,8(sp)
    80001450:	8a2a                	mv	s4,a0
    80001452:	892e                	mv	s2,a1
    80001454:	8ab6                	mv	s5,a3
    panic("uvmunmap: not aligned");

  for(a = va; a < va + npages*PGSIZE; a += PGSIZE){
    80001456:	0632                	sll	a2,a2,0xc
    80001458:	00b609b3          	add	s3,a2,a1
    if((pte = walk(pagetable, a, 0)) == 0)
      panic("uvmunmap: walk");
    if((*pte & PTE_V) == 0)
      panic("uvmunmap: not mapped");
    if(PTE_FLAGS(*pte) == PTE_V)
    8000145c:	4b85                	li	s7,1
  for(a = va; a < va + npages*PGSIZE; a += PGSIZE){
    8000145e:	6b05                	lui	s6,0x1
    80001460:	0735ff63          	bgeu	a1,s3,800014de <uvmunmap+0xa8>
    80001464:	fc26                	sd	s1,56(sp)
    80001466:	a0a9                	j	800014b0 <uvmunmap+0x7a>
    80001468:	fc26                	sd	s1,56(sp)
    8000146a:	f84a                	sd	s2,48(sp)
    8000146c:	f44e                	sd	s3,40(sp)
    8000146e:	f052                	sd	s4,32(sp)
    80001470:	ec56                	sd	s5,24(sp)
    80001472:	e85a                	sd	s6,16(sp)
    80001474:	e45e                	sd	s7,8(sp)
    panic("uvmunmap: not aligned");
    80001476:	0000e517          	auipc	a0,0xe
    8000147a:	e7250513          	add	a0,a0,-398 # 8000f2e8 <IP_ADDR_ANY+0x2c4>
    8000147e:	85eff0ef          	jal	800004dc <panic>
      panic("uvmunmap: walk");
    80001482:	0000e517          	auipc	a0,0xe
    80001486:	e7e50513          	add	a0,a0,-386 # 8000f300 <IP_ADDR_ANY+0x2dc>
    8000148a:	852ff0ef          	jal	800004dc <panic>
      panic("uvmunmap: not mapped");
    8000148e:	0000e517          	auipc	a0,0xe
    80001492:	e8250513          	add	a0,a0,-382 # 8000f310 <IP_ADDR_ANY+0x2ec>
    80001496:	846ff0ef          	jal	800004dc <panic>
      panic("uvmunmap: not a leaf");
    8000149a:	0000e517          	auipc	a0,0xe
    8000149e:	e8e50513          	add	a0,a0,-370 # 8000f328 <IP_ADDR_ANY+0x304>
    800014a2:	83aff0ef          	jal	800004dc <panic>
    if(do_free){
      uint64 pa = PTE2PA(*pte);
      kfree((void*)pa);
    }
    *pte = 0;
    800014a6:	0004b023          	sd	zero,0(s1)
  for(a = va; a < va + npages*PGSIZE; a += PGSIZE){
    800014aa:	995a                	add	s2,s2,s6
    800014ac:	03397863          	bgeu	s2,s3,800014dc <uvmunmap+0xa6>
    if((pte = walk(pagetable, a, 0)) == 0)
    800014b0:	4601                	li	a2,0
    800014b2:	85ca                	mv	a1,s2
    800014b4:	8552                	mv	a0,s4
    800014b6:	cdfff0ef          	jal	80001194 <walk>
    800014ba:	84aa                	mv	s1,a0
    800014bc:	d179                	beqz	a0,80001482 <uvmunmap+0x4c>
    if((*pte & PTE_V) == 0)
    800014be:	6108                	ld	a0,0(a0)
    800014c0:	00157793          	and	a5,a0,1
    800014c4:	d7e9                	beqz	a5,8000148e <uvmunmap+0x58>
    if(PTE_FLAGS(*pte) == PTE_V)
    800014c6:	3ff57793          	and	a5,a0,1023
    800014ca:	fd7788e3          	beq	a5,s7,8000149a <uvmunmap+0x64>
    if(do_free){
    800014ce:	fc0a8ce3          	beqz	s5,800014a6 <uvmunmap+0x70>
      uint64 pa = PTE2PA(*pte);
    800014d2:	8129                	srl	a0,a0,0xa
      kfree((void*)pa);
    800014d4:	0532                	sll	a0,a0,0xc
    800014d6:	f50ff0ef          	jal	80000c26 <kfree>
    800014da:	b7f1                	j	800014a6 <uvmunmap+0x70>
    800014dc:	74e2                	ld	s1,56(sp)
    800014de:	7942                	ld	s2,48(sp)
    800014e0:	79a2                	ld	s3,40(sp)
    800014e2:	7a02                	ld	s4,32(sp)
    800014e4:	6ae2                	ld	s5,24(sp)
    800014e6:	6b42                	ld	s6,16(sp)
    800014e8:	6ba2                	ld	s7,8(sp)
  }
}
    800014ea:	60a6                	ld	ra,72(sp)
    800014ec:	6406                	ld	s0,64(sp)
    800014ee:	6161                	add	sp,sp,80
    800014f0:	8082                	ret

00000000800014f2 <uvmcreate>:

// create an empty user page table.
// returns 0 if out of memory.
pagetable_t
uvmcreate()
{
    800014f2:	1101                	add	sp,sp,-32
    800014f4:	ec06                	sd	ra,24(sp)
    800014f6:	e822                	sd	s0,16(sp)
    800014f8:	e426                	sd	s1,8(sp)
    800014fa:	1000                	add	s0,sp,32
  pagetable_t pagetable;
  pagetable = (pagetable_t) kalloc();
    800014fc:	80dff0ef          	jal	80000d08 <kalloc>
    80001500:	84aa                	mv	s1,a0
  if(pagetable == 0)
    80001502:	c509                	beqz	a0,8000150c <uvmcreate+0x1a>
    return 0;
  memset(pagetable, 0, PGSIZE);
    80001504:	6605                	lui	a2,0x1
    80001506:	4581                	li	a1,0
    80001508:	9a5ff0ef          	jal	80000eac <memset>
  return pagetable;
}
    8000150c:	8526                	mv	a0,s1
    8000150e:	60e2                	ld	ra,24(sp)
    80001510:	6442                	ld	s0,16(sp)
    80001512:	64a2                	ld	s1,8(sp)
    80001514:	6105                	add	sp,sp,32
    80001516:	8082                	ret

0000000080001518 <uvmfirst>:
// Load the user initcode into address 0 of pagetable,
// for the very first process.
// sz must be less than a page.
void
uvmfirst(pagetable_t pagetable, uchar *src, uint sz)
{
    80001518:	7179                	add	sp,sp,-48
    8000151a:	f406                	sd	ra,40(sp)
    8000151c:	f022                	sd	s0,32(sp)
    8000151e:	ec26                	sd	s1,24(sp)
    80001520:	e84a                	sd	s2,16(sp)
    80001522:	e44e                	sd	s3,8(sp)
    80001524:	e052                	sd	s4,0(sp)
    80001526:	1800                	add	s0,sp,48
  char *mem;

  if(sz >= PGSIZE)
    80001528:	6785                	lui	a5,0x1
    8000152a:	04f67063          	bgeu	a2,a5,8000156a <uvmfirst+0x52>
    8000152e:	8a2a                	mv	s4,a0
    80001530:	89ae                	mv	s3,a1
    80001532:	84b2                	mv	s1,a2
    panic("uvmfirst: more than a page");
  mem = kalloc();
    80001534:	fd4ff0ef          	jal	80000d08 <kalloc>
    80001538:	892a                	mv	s2,a0
  memset(mem, 0, PGSIZE);
    8000153a:	6605                	lui	a2,0x1
    8000153c:	4581                	li	a1,0
    8000153e:	96fff0ef          	jal	80000eac <memset>
  mappages(pagetable, 0, PGSIZE, (uint64)mem, PTE_W|PTE_R|PTE_X|PTE_U);
    80001542:	4779                	li	a4,30
    80001544:	86ca                	mv	a3,s2
    80001546:	6605                	lui	a2,0x1
    80001548:	4581                	li	a1,0
    8000154a:	8552                	mv	a0,s4
    8000154c:	d21ff0ef          	jal	8000126c <mappages>
  memmove(mem, src, sz);
    80001550:	8626                	mv	a2,s1
    80001552:	85ce                	mv	a1,s3
    80001554:	854a                	mv	a0,s2
    80001556:	9b3ff0ef          	jal	80000f08 <memmove>
}
    8000155a:	70a2                	ld	ra,40(sp)
    8000155c:	7402                	ld	s0,32(sp)
    8000155e:	64e2                	ld	s1,24(sp)
    80001560:	6942                	ld	s2,16(sp)
    80001562:	69a2                	ld	s3,8(sp)
    80001564:	6a02                	ld	s4,0(sp)
    80001566:	6145                	add	sp,sp,48
    80001568:	8082                	ret
    panic("uvmfirst: more than a page");
    8000156a:	0000e517          	auipc	a0,0xe
    8000156e:	dd650513          	add	a0,a0,-554 # 8000f340 <IP_ADDR_ANY+0x31c>
    80001572:	f6bfe0ef          	jal	800004dc <panic>

0000000080001576 <uvmdealloc>:
// newsz.  oldsz and newsz need not be page-aligned, nor does newsz
// need to be less than oldsz.  oldsz can be larger than the actual
// process size.  Returns the new process size.
uint64
uvmdealloc(pagetable_t pagetable, uint64 oldsz, uint64 newsz)
{
    80001576:	1101                	add	sp,sp,-32
    80001578:	ec06                	sd	ra,24(sp)
    8000157a:	e822                	sd	s0,16(sp)
    8000157c:	e426                	sd	s1,8(sp)
    8000157e:	1000                	add	s0,sp,32
  if(newsz >= oldsz)
    return oldsz;
    80001580:	84ae                	mv	s1,a1
  if(newsz >= oldsz)
    80001582:	00b67d63          	bgeu	a2,a1,8000159c <uvmdealloc+0x26>
    80001586:	84b2                	mv	s1,a2

  if(PGROUNDUP(newsz) < PGROUNDUP(oldsz)){
    80001588:	6785                	lui	a5,0x1
    8000158a:	17fd                	add	a5,a5,-1 # fff <_entry-0x7ffff001>
    8000158c:	00f60733          	add	a4,a2,a5
    80001590:	76fd                	lui	a3,0xfffff
    80001592:	8f75                	and	a4,a4,a3
    80001594:	97ae                	add	a5,a5,a1
    80001596:	8ff5                	and	a5,a5,a3
    80001598:	00f76863          	bltu	a4,a5,800015a8 <uvmdealloc+0x32>
    int npages = (PGROUNDUP(oldsz) - PGROUNDUP(newsz)) / PGSIZE;
    uvmunmap(pagetable, PGROUNDUP(newsz), npages, 1);
  }

  return newsz;
}
    8000159c:	8526                	mv	a0,s1
    8000159e:	60e2                	ld	ra,24(sp)
    800015a0:	6442                	ld	s0,16(sp)
    800015a2:	64a2                	ld	s1,8(sp)
    800015a4:	6105                	add	sp,sp,32
    800015a6:	8082                	ret
    int npages = (PGROUNDUP(oldsz) - PGROUNDUP(newsz)) / PGSIZE;
    800015a8:	8f99                	sub	a5,a5,a4
    800015aa:	83b1                	srl	a5,a5,0xc
    uvmunmap(pagetable, PGROUNDUP(newsz), npages, 1);
    800015ac:	4685                	li	a3,1
    800015ae:	0007861b          	sext.w	a2,a5
    800015b2:	85ba                	mv	a1,a4
    800015b4:	e83ff0ef          	jal	80001436 <uvmunmap>
    800015b8:	b7d5                	j	8000159c <uvmdealloc+0x26>

00000000800015ba <uvmalloc>:
  if(newsz < oldsz)
    800015ba:	08b66f63          	bltu	a2,a1,80001658 <uvmalloc+0x9e>
{
    800015be:	7139                	add	sp,sp,-64
    800015c0:	fc06                	sd	ra,56(sp)
    800015c2:	f822                	sd	s0,48(sp)
    800015c4:	ec4e                	sd	s3,24(sp)
    800015c6:	e852                	sd	s4,16(sp)
    800015c8:	e456                	sd	s5,8(sp)
    800015ca:	0080                	add	s0,sp,64
    800015cc:	8aaa                	mv	s5,a0
    800015ce:	8a32                	mv	s4,a2
  oldsz = PGROUNDUP(oldsz);
    800015d0:	6785                	lui	a5,0x1
    800015d2:	17fd                	add	a5,a5,-1 # fff <_entry-0x7ffff001>
    800015d4:	95be                	add	a1,a1,a5
    800015d6:	77fd                	lui	a5,0xfffff
    800015d8:	00f5f9b3          	and	s3,a1,a5
  for(a = oldsz; a < newsz; a += PGSIZE){
    800015dc:	08c9f063          	bgeu	s3,a2,8000165c <uvmalloc+0xa2>
    800015e0:	f426                	sd	s1,40(sp)
    800015e2:	f04a                	sd	s2,32(sp)
    800015e4:	e05a                	sd	s6,0(sp)
    800015e6:	894e                	mv	s2,s3
    if(mappages(pagetable, a, PGSIZE, (uint64)mem, PTE_R|PTE_U|xperm) != 0){
    800015e8:	0126eb13          	or	s6,a3,18
    mem = kalloc();
    800015ec:	f1cff0ef          	jal	80000d08 <kalloc>
    800015f0:	84aa                	mv	s1,a0
    if(mem == 0){
    800015f2:	c515                	beqz	a0,8000161e <uvmalloc+0x64>
    memset(mem, 0, PGSIZE);
    800015f4:	6605                	lui	a2,0x1
    800015f6:	4581                	li	a1,0
    800015f8:	8b5ff0ef          	jal	80000eac <memset>
    if(mappages(pagetable, a, PGSIZE, (uint64)mem, PTE_R|PTE_U|xperm) != 0){
    800015fc:	875a                	mv	a4,s6
    800015fe:	86a6                	mv	a3,s1
    80001600:	6605                	lui	a2,0x1
    80001602:	85ca                	mv	a1,s2
    80001604:	8556                	mv	a0,s5
    80001606:	c67ff0ef          	jal	8000126c <mappages>
    8000160a:	e915                	bnez	a0,8000163e <uvmalloc+0x84>
  for(a = oldsz; a < newsz; a += PGSIZE){
    8000160c:	6785                	lui	a5,0x1
    8000160e:	993e                	add	s2,s2,a5
    80001610:	fd496ee3          	bltu	s2,s4,800015ec <uvmalloc+0x32>
  return newsz;
    80001614:	8552                	mv	a0,s4
    80001616:	74a2                	ld	s1,40(sp)
    80001618:	7902                	ld	s2,32(sp)
    8000161a:	6b02                	ld	s6,0(sp)
    8000161c:	a811                	j	80001630 <uvmalloc+0x76>
      uvmdealloc(pagetable, a, oldsz);
    8000161e:	864e                	mv	a2,s3
    80001620:	85ca                	mv	a1,s2
    80001622:	8556                	mv	a0,s5
    80001624:	f53ff0ef          	jal	80001576 <uvmdealloc>
      return 0;
    80001628:	4501                	li	a0,0
    8000162a:	74a2                	ld	s1,40(sp)
    8000162c:	7902                	ld	s2,32(sp)
    8000162e:	6b02                	ld	s6,0(sp)
}
    80001630:	70e2                	ld	ra,56(sp)
    80001632:	7442                	ld	s0,48(sp)
    80001634:	69e2                	ld	s3,24(sp)
    80001636:	6a42                	ld	s4,16(sp)
    80001638:	6aa2                	ld	s5,8(sp)
    8000163a:	6121                	add	sp,sp,64
    8000163c:	8082                	ret
      kfree(mem);
    8000163e:	8526                	mv	a0,s1
    80001640:	de6ff0ef          	jal	80000c26 <kfree>
      uvmdealloc(pagetable, a, oldsz);
    80001644:	864e                	mv	a2,s3
    80001646:	85ca                	mv	a1,s2
    80001648:	8556                	mv	a0,s5
    8000164a:	f2dff0ef          	jal	80001576 <uvmdealloc>
      return 0;
    8000164e:	4501                	li	a0,0
    80001650:	74a2                	ld	s1,40(sp)
    80001652:	7902                	ld	s2,32(sp)
    80001654:	6b02                	ld	s6,0(sp)
    80001656:	bfe9                	j	80001630 <uvmalloc+0x76>
    return oldsz;
    80001658:	852e                	mv	a0,a1
}
    8000165a:	8082                	ret
  return newsz;
    8000165c:	8532                	mv	a0,a2
    8000165e:	bfc9                	j	80001630 <uvmalloc+0x76>

0000000080001660 <freewalk>:

// Recursively free page-table pages.
// All leaf mappings must already have been removed.
void
freewalk(pagetable_t pagetable)
{
    80001660:	7179                	add	sp,sp,-48
    80001662:	f406                	sd	ra,40(sp)
    80001664:	f022                	sd	s0,32(sp)
    80001666:	ec26                	sd	s1,24(sp)
    80001668:	e84a                	sd	s2,16(sp)
    8000166a:	e44e                	sd	s3,8(sp)
    8000166c:	e052                	sd	s4,0(sp)
    8000166e:	1800                	add	s0,sp,48
    80001670:	8a2a                	mv	s4,a0
  // there are 2^9 = 512 PTEs in a page table.
  for(int i = 0; i < 512; i++){
    80001672:	84aa                	mv	s1,a0
    80001674:	6905                	lui	s2,0x1
    80001676:	992a                	add	s2,s2,a0
    pte_t pte = pagetable[i];
    if((pte & PTE_V) && (pte & (PTE_R|PTE_W|PTE_X)) == 0){
    80001678:	4985                	li	s3,1
    8000167a:	a819                	j	80001690 <freewalk+0x30>
      // this PTE points to a lower-level page table.
      uint64 child = PTE2PA(pte);
    8000167c:	83a9                	srl	a5,a5,0xa
      freewalk((pagetable_t)child);
    8000167e:	00c79513          	sll	a0,a5,0xc
    80001682:	fdfff0ef          	jal	80001660 <freewalk>
      pagetable[i] = 0;
    80001686:	0004b023          	sd	zero,0(s1)
  for(int i = 0; i < 512; i++){
    8000168a:	04a1                	add	s1,s1,8
    8000168c:	01248f63          	beq	s1,s2,800016aa <freewalk+0x4a>
    pte_t pte = pagetable[i];
    80001690:	609c                	ld	a5,0(s1)
    if((pte & PTE_V) && (pte & (PTE_R|PTE_W|PTE_X)) == 0){
    80001692:	00f7f713          	and	a4,a5,15
    80001696:	ff3703e3          	beq	a4,s3,8000167c <freewalk+0x1c>
    } else if(pte & PTE_V){
    8000169a:	8b85                	and	a5,a5,1
    8000169c:	d7fd                	beqz	a5,8000168a <freewalk+0x2a>
      panic("freewalk: leaf");
    8000169e:	0000e517          	auipc	a0,0xe
    800016a2:	cc250513          	add	a0,a0,-830 # 8000f360 <IP_ADDR_ANY+0x33c>
    800016a6:	e37fe0ef          	jal	800004dc <panic>
    }
  }
  kfree((void*)pagetable);
    800016aa:	8552                	mv	a0,s4
    800016ac:	d7aff0ef          	jal	80000c26 <kfree>
}
    800016b0:	70a2                	ld	ra,40(sp)
    800016b2:	7402                	ld	s0,32(sp)
    800016b4:	64e2                	ld	s1,24(sp)
    800016b6:	6942                	ld	s2,16(sp)
    800016b8:	69a2                	ld	s3,8(sp)
    800016ba:	6a02                	ld	s4,0(sp)
    800016bc:	6145                	add	sp,sp,48
    800016be:	8082                	ret

00000000800016c0 <uvmfree>:

// Free user memory pages,
// then free page-table pages.
void
uvmfree(pagetable_t pagetable, uint64 sz)
{
    800016c0:	1101                	add	sp,sp,-32
    800016c2:	ec06                	sd	ra,24(sp)
    800016c4:	e822                	sd	s0,16(sp)
    800016c6:	e426                	sd	s1,8(sp)
    800016c8:	1000                	add	s0,sp,32
    800016ca:	84aa                	mv	s1,a0
  if(sz > 0)
    800016cc:	e989                	bnez	a1,800016de <uvmfree+0x1e>
    uvmunmap(pagetable, 0, PGROUNDUP(sz)/PGSIZE, 1);
  freewalk(pagetable);
    800016ce:	8526                	mv	a0,s1
    800016d0:	f91ff0ef          	jal	80001660 <freewalk>
}
    800016d4:	60e2                	ld	ra,24(sp)
    800016d6:	6442                	ld	s0,16(sp)
    800016d8:	64a2                	ld	s1,8(sp)
    800016da:	6105                	add	sp,sp,32
    800016dc:	8082                	ret
    uvmunmap(pagetable, 0, PGROUNDUP(sz)/PGSIZE, 1);
    800016de:	6785                	lui	a5,0x1
    800016e0:	17fd                	add	a5,a5,-1 # fff <_entry-0x7ffff001>
    800016e2:	95be                	add	a1,a1,a5
    800016e4:	4685                	li	a3,1
    800016e6:	00c5d613          	srl	a2,a1,0xc
    800016ea:	4581                	li	a1,0
    800016ec:	d4bff0ef          	jal	80001436 <uvmunmap>
    800016f0:	bff9                	j	800016ce <uvmfree+0xe>

00000000800016f2 <uvmcopy>:
  pte_t *pte;
  uint64 pa, i;
  uint flags;
  char *mem;

  for(i = 0; i < sz; i += PGSIZE){
    800016f2:	c65d                	beqz	a2,800017a0 <uvmcopy+0xae>
{
    800016f4:	715d                	add	sp,sp,-80
    800016f6:	e486                	sd	ra,72(sp)
    800016f8:	e0a2                	sd	s0,64(sp)
    800016fa:	fc26                	sd	s1,56(sp)
    800016fc:	f84a                	sd	s2,48(sp)
    800016fe:	f44e                	sd	s3,40(sp)
    80001700:	f052                	sd	s4,32(sp)
    80001702:	ec56                	sd	s5,24(sp)
    80001704:	e85a                	sd	s6,16(sp)
    80001706:	e45e                	sd	s7,8(sp)
    80001708:	0880                	add	s0,sp,80
    8000170a:	8b2a                	mv	s6,a0
    8000170c:	8aae                	mv	s5,a1
    8000170e:	8a32                	mv	s4,a2
  for(i = 0; i < sz; i += PGSIZE){
    80001710:	4981                	li	s3,0
    if((pte = walk(old, i, 0)) == 0)
    80001712:	4601                	li	a2,0
    80001714:	85ce                	mv	a1,s3
    80001716:	855a                	mv	a0,s6
    80001718:	a7dff0ef          	jal	80001194 <walk>
    8000171c:	c121                	beqz	a0,8000175c <uvmcopy+0x6a>
      panic("uvmcopy: pte should exist");
    if((*pte & PTE_V) == 0)
    8000171e:	6118                	ld	a4,0(a0)
    80001720:	00177793          	and	a5,a4,1
    80001724:	c3b1                	beqz	a5,80001768 <uvmcopy+0x76>
      panic("uvmcopy: page not present");
    pa = PTE2PA(*pte);
    80001726:	00a75593          	srl	a1,a4,0xa
    8000172a:	00c59b93          	sll	s7,a1,0xc
    flags = PTE_FLAGS(*pte);
    8000172e:	3ff77493          	and	s1,a4,1023
    if((mem = kalloc()) == 0)
    80001732:	dd6ff0ef          	jal	80000d08 <kalloc>
    80001736:	892a                	mv	s2,a0
    80001738:	c129                	beqz	a0,8000177a <uvmcopy+0x88>
      goto err;
    memmove(mem, (char*)pa, PGSIZE);
    8000173a:	6605                	lui	a2,0x1
    8000173c:	85de                	mv	a1,s7
    8000173e:	fcaff0ef          	jal	80000f08 <memmove>
    if(mappages(new, i, PGSIZE, (uint64)mem, flags) != 0){
    80001742:	8726                	mv	a4,s1
    80001744:	86ca                	mv	a3,s2
    80001746:	6605                	lui	a2,0x1
    80001748:	85ce                	mv	a1,s3
    8000174a:	8556                	mv	a0,s5
    8000174c:	b21ff0ef          	jal	8000126c <mappages>
    80001750:	e115                	bnez	a0,80001774 <uvmcopy+0x82>
  for(i = 0; i < sz; i += PGSIZE){
    80001752:	6785                	lui	a5,0x1
    80001754:	99be                	add	s3,s3,a5
    80001756:	fb49eee3          	bltu	s3,s4,80001712 <uvmcopy+0x20>
    8000175a:	a805                	j	8000178a <uvmcopy+0x98>
      panic("uvmcopy: pte should exist");
    8000175c:	0000e517          	auipc	a0,0xe
    80001760:	c1450513          	add	a0,a0,-1004 # 8000f370 <IP_ADDR_ANY+0x34c>
    80001764:	d79fe0ef          	jal	800004dc <panic>
      panic("uvmcopy: page not present");
    80001768:	0000e517          	auipc	a0,0xe
    8000176c:	c2850513          	add	a0,a0,-984 # 8000f390 <IP_ADDR_ANY+0x36c>
    80001770:	d6dfe0ef          	jal	800004dc <panic>
      kfree(mem);
    80001774:	854a                	mv	a0,s2
    80001776:	cb0ff0ef          	jal	80000c26 <kfree>
    }
  }
  return 0;

 err:
  uvmunmap(new, 0, i / PGSIZE, 1);
    8000177a:	4685                	li	a3,1
    8000177c:	00c9d613          	srl	a2,s3,0xc
    80001780:	4581                	li	a1,0
    80001782:	8556                	mv	a0,s5
    80001784:	cb3ff0ef          	jal	80001436 <uvmunmap>
  return -1;
    80001788:	557d                	li	a0,-1
}
    8000178a:	60a6                	ld	ra,72(sp)
    8000178c:	6406                	ld	s0,64(sp)
    8000178e:	74e2                	ld	s1,56(sp)
    80001790:	7942                	ld	s2,48(sp)
    80001792:	79a2                	ld	s3,40(sp)
    80001794:	7a02                	ld	s4,32(sp)
    80001796:	6ae2                	ld	s5,24(sp)
    80001798:	6b42                	ld	s6,16(sp)
    8000179a:	6ba2                	ld	s7,8(sp)
    8000179c:	6161                	add	sp,sp,80
    8000179e:	8082                	ret
  return 0;
    800017a0:	4501                	li	a0,0
}
    800017a2:	8082                	ret

00000000800017a4 <uvmclear>:

// mark a PTE invalid for user access.
// used by exec for the user stack guard page.
void
uvmclear(pagetable_t pagetable, uint64 va)
{
    800017a4:	1141                	add	sp,sp,-16
    800017a6:	e406                	sd	ra,8(sp)
    800017a8:	e022                	sd	s0,0(sp)
    800017aa:	0800                	add	s0,sp,16
  pte_t *pte;
  
  pte = walk(pagetable, va, 0);
    800017ac:	4601                	li	a2,0
    800017ae:	9e7ff0ef          	jal	80001194 <walk>
  if(pte == 0)
    800017b2:	c901                	beqz	a0,800017c2 <uvmclear+0x1e>
    panic("uvmclear");
  *pte &= ~PTE_U;
    800017b4:	611c                	ld	a5,0(a0)
    800017b6:	9bbd                	and	a5,a5,-17
    800017b8:	e11c                	sd	a5,0(a0)
}
    800017ba:	60a2                	ld	ra,8(sp)
    800017bc:	6402                	ld	s0,0(sp)
    800017be:	0141                	add	sp,sp,16
    800017c0:	8082                	ret
    panic("uvmclear");
    800017c2:	0000e517          	auipc	a0,0xe
    800017c6:	bee50513          	add	a0,a0,-1042 # 8000f3b0 <IP_ADDR_ANY+0x38c>
    800017ca:	d13fe0ef          	jal	800004dc <panic>

00000000800017ce <copyout>:
copyout(pagetable_t pagetable, uint64 dstva, char *src, uint64 len)
{
  uint64 n, va0, pa0;
  pte_t *pte;

  while(len > 0){
    800017ce:	cad1                	beqz	a3,80001862 <copyout+0x94>
{
    800017d0:	711d                	add	sp,sp,-96
    800017d2:	ec86                	sd	ra,88(sp)
    800017d4:	e8a2                	sd	s0,80(sp)
    800017d6:	e4a6                	sd	s1,72(sp)
    800017d8:	fc4e                	sd	s3,56(sp)
    800017da:	f456                	sd	s5,40(sp)
    800017dc:	f05a                	sd	s6,32(sp)
    800017de:	ec5e                	sd	s7,24(sp)
    800017e0:	1080                	add	s0,sp,96
    800017e2:	8baa                	mv	s7,a0
    800017e4:	8aae                	mv	s5,a1
    800017e6:	8b32                	mv	s6,a2
    800017e8:	89b6                	mv	s3,a3
    va0 = PGROUNDDOWN(dstva);
    800017ea:	74fd                	lui	s1,0xfffff
    800017ec:	8ced                	and	s1,s1,a1
    if(va0 >= MAXVA)
    800017ee:	57fd                	li	a5,-1
    800017f0:	83e9                	srl	a5,a5,0x1a
    800017f2:	0697ea63          	bltu	a5,s1,80001866 <copyout+0x98>
    800017f6:	e0ca                	sd	s2,64(sp)
    800017f8:	f852                	sd	s4,48(sp)
    800017fa:	e862                	sd	s8,16(sp)
    800017fc:	e466                	sd	s9,8(sp)
    800017fe:	e06a                	sd	s10,0(sp)
      return -1;
    pte = walk(pagetable, va0, 0);
    if(pte == 0 || (*pte & PTE_V) == 0 || (*pte & PTE_U) == 0 ||
    80001800:	4cd5                	li	s9,21
    80001802:	6d05                	lui	s10,0x1
    if(va0 >= MAXVA)
    80001804:	8c3e                	mv	s8,a5
    80001806:	a025                	j	8000182e <copyout+0x60>
       (*pte & PTE_W) == 0)
      return -1;
    pa0 = PTE2PA(*pte);
    80001808:	83a9                	srl	a5,a5,0xa
    8000180a:	07b2                	sll	a5,a5,0xc
    n = PGSIZE - (dstva - va0);
    if(n > len)
      n = len;
    memmove((void *)(pa0 + (dstva - va0)), src, n);
    8000180c:	409a8533          	sub	a0,s5,s1
    80001810:	0009061b          	sext.w	a2,s2
    80001814:	85da                	mv	a1,s6
    80001816:	953e                	add	a0,a0,a5
    80001818:	ef0ff0ef          	jal	80000f08 <memmove>

    len -= n;
    8000181c:	412989b3          	sub	s3,s3,s2
    src += n;
    80001820:	9b4a                	add	s6,s6,s2
  while(len > 0){
    80001822:	02098963          	beqz	s3,80001854 <copyout+0x86>
    if(va0 >= MAXVA)
    80001826:	054c6263          	bltu	s8,s4,8000186a <copyout+0x9c>
    8000182a:	84d2                	mv	s1,s4
    8000182c:	8ad2                	mv	s5,s4
    pte = walk(pagetable, va0, 0);
    8000182e:	4601                	li	a2,0
    80001830:	85a6                	mv	a1,s1
    80001832:	855e                	mv	a0,s7
    80001834:	961ff0ef          	jal	80001194 <walk>
    if(pte == 0 || (*pte & PTE_V) == 0 || (*pte & PTE_U) == 0 ||
    80001838:	c121                	beqz	a0,80001878 <copyout+0xaa>
    8000183a:	611c                	ld	a5,0(a0)
    8000183c:	0157f713          	and	a4,a5,21
    80001840:	05971b63          	bne	a4,s9,80001896 <copyout+0xc8>
    n = PGSIZE - (dstva - va0);
    80001844:	01a48a33          	add	s4,s1,s10
    80001848:	415a0933          	sub	s2,s4,s5
    if(n > len)
    8000184c:	fb29fee3          	bgeu	s3,s2,80001808 <copyout+0x3a>
    80001850:	894e                	mv	s2,s3
    80001852:	bf5d                	j	80001808 <copyout+0x3a>
    dstva = va0 + PGSIZE;
  }
  return 0;
    80001854:	4501                	li	a0,0
    80001856:	6906                	ld	s2,64(sp)
    80001858:	7a42                	ld	s4,48(sp)
    8000185a:	6c42                	ld	s8,16(sp)
    8000185c:	6ca2                	ld	s9,8(sp)
    8000185e:	6d02                	ld	s10,0(sp)
    80001860:	a015                	j	80001884 <copyout+0xb6>
    80001862:	4501                	li	a0,0
}
    80001864:	8082                	ret
      return -1;
    80001866:	557d                	li	a0,-1
    80001868:	a831                	j	80001884 <copyout+0xb6>
    8000186a:	557d                	li	a0,-1
    8000186c:	6906                	ld	s2,64(sp)
    8000186e:	7a42                	ld	s4,48(sp)
    80001870:	6c42                	ld	s8,16(sp)
    80001872:	6ca2                	ld	s9,8(sp)
    80001874:	6d02                	ld	s10,0(sp)
    80001876:	a039                	j	80001884 <copyout+0xb6>
      return -1;
    80001878:	557d                	li	a0,-1
    8000187a:	6906                	ld	s2,64(sp)
    8000187c:	7a42                	ld	s4,48(sp)
    8000187e:	6c42                	ld	s8,16(sp)
    80001880:	6ca2                	ld	s9,8(sp)
    80001882:	6d02                	ld	s10,0(sp)
}
    80001884:	60e6                	ld	ra,88(sp)
    80001886:	6446                	ld	s0,80(sp)
    80001888:	64a6                	ld	s1,72(sp)
    8000188a:	79e2                	ld	s3,56(sp)
    8000188c:	7aa2                	ld	s5,40(sp)
    8000188e:	7b02                	ld	s6,32(sp)
    80001890:	6be2                	ld	s7,24(sp)
    80001892:	6125                	add	sp,sp,96
    80001894:	8082                	ret
      return -1;
    80001896:	557d                	li	a0,-1
    80001898:	6906                	ld	s2,64(sp)
    8000189a:	7a42                	ld	s4,48(sp)
    8000189c:	6c42                	ld	s8,16(sp)
    8000189e:	6ca2                	ld	s9,8(sp)
    800018a0:	6d02                	ld	s10,0(sp)
    800018a2:	b7cd                	j	80001884 <copyout+0xb6>

00000000800018a4 <copyin>:
int
copyin(pagetable_t pagetable, char *dst, uint64 srcva, uint64 len)
{
  uint64 n, va0, pa0;

  while(len > 0){
    800018a4:	c6a5                	beqz	a3,8000190c <copyin+0x68>
{
    800018a6:	715d                	add	sp,sp,-80
    800018a8:	e486                	sd	ra,72(sp)
    800018aa:	e0a2                	sd	s0,64(sp)
    800018ac:	fc26                	sd	s1,56(sp)
    800018ae:	f84a                	sd	s2,48(sp)
    800018b0:	f44e                	sd	s3,40(sp)
    800018b2:	f052                	sd	s4,32(sp)
    800018b4:	ec56                	sd	s5,24(sp)
    800018b6:	e85a                	sd	s6,16(sp)
    800018b8:	e45e                	sd	s7,8(sp)
    800018ba:	e062                	sd	s8,0(sp)
    800018bc:	0880                	add	s0,sp,80
    800018be:	8b2a                	mv	s6,a0
    800018c0:	8a2e                	mv	s4,a1
    800018c2:	8c32                	mv	s8,a2
    800018c4:	89b6                	mv	s3,a3
    va0 = PGROUNDDOWN(srcva);
    800018c6:	7bfd                	lui	s7,0xfffff
    pa0 = walkaddr(pagetable, va0);
    if(pa0 == 0)
      return -1;
    n = PGSIZE - (srcva - va0);
    800018c8:	6a85                	lui	s5,0x1
    800018ca:	a00d                	j	800018ec <copyin+0x48>
    if(n > len)
      n = len;
    memmove(dst, (void *)(pa0 + (srcva - va0)), n);
    800018cc:	018505b3          	add	a1,a0,s8
    800018d0:	0004861b          	sext.w	a2,s1
    800018d4:	412585b3          	sub	a1,a1,s2
    800018d8:	8552                	mv	a0,s4
    800018da:	e2eff0ef          	jal	80000f08 <memmove>

    len -= n;
    800018de:	409989b3          	sub	s3,s3,s1
    dst += n;
    800018e2:	9a26                	add	s4,s4,s1
    srcva = va0 + PGSIZE;
    800018e4:	01590c33          	add	s8,s2,s5
  while(len > 0){
    800018e8:	02098063          	beqz	s3,80001908 <copyin+0x64>
    va0 = PGROUNDDOWN(srcva);
    800018ec:	017c7933          	and	s2,s8,s7
    pa0 = walkaddr(pagetable, va0);
    800018f0:	85ca                	mv	a1,s2
    800018f2:	855a                	mv	a0,s6
    800018f4:	93bff0ef          	jal	8000122e <walkaddr>
    if(pa0 == 0)
    800018f8:	cd01                	beqz	a0,80001910 <copyin+0x6c>
    n = PGSIZE - (srcva - va0);
    800018fa:	418904b3          	sub	s1,s2,s8
    800018fe:	94d6                	add	s1,s1,s5
    if(n > len)
    80001900:	fc99f6e3          	bgeu	s3,s1,800018cc <copyin+0x28>
    80001904:	84ce                	mv	s1,s3
    80001906:	b7d9                	j	800018cc <copyin+0x28>
  }
  return 0;
    80001908:	4501                	li	a0,0
    8000190a:	a021                	j	80001912 <copyin+0x6e>
    8000190c:	4501                	li	a0,0
}
    8000190e:	8082                	ret
      return -1;
    80001910:	557d                	li	a0,-1
}
    80001912:	60a6                	ld	ra,72(sp)
    80001914:	6406                	ld	s0,64(sp)
    80001916:	74e2                	ld	s1,56(sp)
    80001918:	7942                	ld	s2,48(sp)
    8000191a:	79a2                	ld	s3,40(sp)
    8000191c:	7a02                	ld	s4,32(sp)
    8000191e:	6ae2                	ld	s5,24(sp)
    80001920:	6b42                	ld	s6,16(sp)
    80001922:	6ba2                	ld	s7,8(sp)
    80001924:	6c02                	ld	s8,0(sp)
    80001926:	6161                	add	sp,sp,80
    80001928:	8082                	ret

000000008000192a <copyinstr>:
copyinstr(pagetable_t pagetable, char *dst, uint64 srcva, uint64 max)
{
  uint64 n, va0, pa0;
  int got_null = 0;

  while(got_null == 0 && max > 0){
    8000192a:	c6dd                	beqz	a3,800019d8 <copyinstr+0xae>
{
    8000192c:	715d                	add	sp,sp,-80
    8000192e:	e486                	sd	ra,72(sp)
    80001930:	e0a2                	sd	s0,64(sp)
    80001932:	fc26                	sd	s1,56(sp)
    80001934:	f84a                	sd	s2,48(sp)
    80001936:	f44e                	sd	s3,40(sp)
    80001938:	f052                	sd	s4,32(sp)
    8000193a:	ec56                	sd	s5,24(sp)
    8000193c:	e85a                	sd	s6,16(sp)
    8000193e:	e45e                	sd	s7,8(sp)
    80001940:	0880                	add	s0,sp,80
    80001942:	8a2a                	mv	s4,a0
    80001944:	8b2e                	mv	s6,a1
    80001946:	8bb2                	mv	s7,a2
    80001948:	8936                	mv	s2,a3
    va0 = PGROUNDDOWN(srcva);
    8000194a:	7afd                	lui	s5,0xfffff
    pa0 = walkaddr(pagetable, va0);
    if(pa0 == 0)
      return -1;
    n = PGSIZE - (srcva - va0);
    8000194c:	6985                	lui	s3,0x1
    8000194e:	a825                	j	80001986 <copyinstr+0x5c>
      n = max;

    char *p = (char *) (pa0 + (srcva - va0));
    while(n > 0){
      if(*p == '\0'){
        *dst = '\0';
    80001950:	00078023          	sb	zero,0(a5) # 1000 <_entry-0x7ffff000>
    80001954:	4785                	li	a5,1
      dst++;
    }

    srcva = va0 + PGSIZE;
  }
  if(got_null){
    80001956:	37fd                	addw	a5,a5,-1
    80001958:	0007851b          	sext.w	a0,a5
    return 0;
  } else {
    return -1;
  }
}
    8000195c:	60a6                	ld	ra,72(sp)
    8000195e:	6406                	ld	s0,64(sp)
    80001960:	74e2                	ld	s1,56(sp)
    80001962:	7942                	ld	s2,48(sp)
    80001964:	79a2                	ld	s3,40(sp)
    80001966:	7a02                	ld	s4,32(sp)
    80001968:	6ae2                	ld	s5,24(sp)
    8000196a:	6b42                	ld	s6,16(sp)
    8000196c:	6ba2                	ld	s7,8(sp)
    8000196e:	6161                	add	sp,sp,80
    80001970:	8082                	ret
    80001972:	fff90713          	add	a4,s2,-1 # fff <_entry-0x7ffff001>
    80001976:	9742                	add	a4,a4,a6
      --max;
    80001978:	40b70933          	sub	s2,a4,a1
    srcva = va0 + PGSIZE;
    8000197c:	01348bb3          	add	s7,s1,s3
  while(got_null == 0 && max > 0){
    80001980:	04e58463          	beq	a1,a4,800019c8 <copyinstr+0x9e>
{
    80001984:	8b3e                	mv	s6,a5
    va0 = PGROUNDDOWN(srcva);
    80001986:	015bf4b3          	and	s1,s7,s5
    pa0 = walkaddr(pagetable, va0);
    8000198a:	85a6                	mv	a1,s1
    8000198c:	8552                	mv	a0,s4
    8000198e:	8a1ff0ef          	jal	8000122e <walkaddr>
    if(pa0 == 0)
    80001992:	cd0d                	beqz	a0,800019cc <copyinstr+0xa2>
    n = PGSIZE - (srcva - va0);
    80001994:	417486b3          	sub	a3,s1,s7
    80001998:	96ce                	add	a3,a3,s3
    if(n > max)
    8000199a:	00d97363          	bgeu	s2,a3,800019a0 <copyinstr+0x76>
    8000199e:	86ca                	mv	a3,s2
    char *p = (char *) (pa0 + (srcva - va0));
    800019a0:	955e                	add	a0,a0,s7
    800019a2:	8d05                	sub	a0,a0,s1
    while(n > 0){
    800019a4:	c695                	beqz	a3,800019d0 <copyinstr+0xa6>
    800019a6:	87da                	mv	a5,s6
    800019a8:	885a                	mv	a6,s6
      if(*p == '\0'){
    800019aa:	41650633          	sub	a2,a0,s6
    while(n > 0){
    800019ae:	96da                	add	a3,a3,s6
    800019b0:	85be                	mv	a1,a5
      if(*p == '\0'){
    800019b2:	00f60733          	add	a4,a2,a5
    800019b6:	00074703          	lbu	a4,0(a4)
    800019ba:	db59                	beqz	a4,80001950 <copyinstr+0x26>
        *dst = *p;
    800019bc:	00e78023          	sb	a4,0(a5)
      dst++;
    800019c0:	0785                	add	a5,a5,1
    while(n > 0){
    800019c2:	fed797e3          	bne	a5,a3,800019b0 <copyinstr+0x86>
    800019c6:	b775                	j	80001972 <copyinstr+0x48>
    800019c8:	4781                	li	a5,0
    800019ca:	b771                	j	80001956 <copyinstr+0x2c>
      return -1;
    800019cc:	557d                	li	a0,-1
    800019ce:	b779                	j	8000195c <copyinstr+0x32>
    srcva = va0 + PGSIZE;
    800019d0:	6b85                	lui	s7,0x1
    800019d2:	9ba6                	add	s7,s7,s1
    800019d4:	87da                	mv	a5,s6
    800019d6:	b77d                	j	80001984 <copyinstr+0x5a>
  int got_null = 0;
    800019d8:	4781                	li	a5,0
  if(got_null){
    800019da:	37fd                	addw	a5,a5,-1
    800019dc:	0007851b          	sext.w	a0,a5
}
    800019e0:	8082                	ret

00000000800019e2 <proc_mapstacks>:
// Allocate a page for each process's kernel stack.
// Map it high in memory, followed by an invalid
// guard page.
void
proc_mapstacks(pagetable_t kpgtbl)
{
    800019e2:	7139                	add	sp,sp,-64
    800019e4:	fc06                	sd	ra,56(sp)
    800019e6:	f822                	sd	s0,48(sp)
    800019e8:	f426                	sd	s1,40(sp)
    800019ea:	f04a                	sd	s2,32(sp)
    800019ec:	ec4e                	sd	s3,24(sp)
    800019ee:	e852                	sd	s4,16(sp)
    800019f0:	e456                	sd	s5,8(sp)
    800019f2:	e05a                	sd	s6,0(sp)
    800019f4:	0080                	add	s0,sp,64
    800019f6:	8a2a                	mv	s4,a0
  struct proc *p;
  
  for(p = proc; p < &proc[NPROC]; p++) {
    800019f8:	00018497          	auipc	s1,0x18
    800019fc:	22848493          	add	s1,s1,552 # 80019c20 <proc>
    char *pa = kalloc();
    if(pa == 0)
      panic("kalloc");
    uint64 va = KSTACK((int) (p - proc));
    80001a00:	8b26                	mv	s6,s1
    80001a02:	04fa5937          	lui	s2,0x4fa5
    80001a06:	fa590913          	add	s2,s2,-91 # 4fa4fa5 <_entry-0x7b05b05b>
    80001a0a:	0932                	sll	s2,s2,0xc
    80001a0c:	fa590913          	add	s2,s2,-91
    80001a10:	0932                	sll	s2,s2,0xc
    80001a12:	fa590913          	add	s2,s2,-91
    80001a16:	0932                	sll	s2,s2,0xc
    80001a18:	fa590913          	add	s2,s2,-91
    80001a1c:	040009b7          	lui	s3,0x4000
    80001a20:	19fd                	add	s3,s3,-1 # 3ffffff <_entry-0x7c000001>
    80001a22:	09b2                	sll	s3,s3,0xc
  for(p = proc; p < &proc[NPROC]; p++) {
    80001a24:	0001ea97          	auipc	s5,0x1e
    80001a28:	bfca8a93          	add	s5,s5,-1028 # 8001f620 <tickslock>
    char *pa = kalloc();
    80001a2c:	adcff0ef          	jal	80000d08 <kalloc>
    80001a30:	862a                	mv	a2,a0
    if(pa == 0)
    80001a32:	cd15                	beqz	a0,80001a6e <proc_mapstacks+0x8c>
    uint64 va = KSTACK((int) (p - proc));
    80001a34:	416485b3          	sub	a1,s1,s6
    80001a38:	858d                	sra	a1,a1,0x3
    80001a3a:	032585b3          	mul	a1,a1,s2
    80001a3e:	2585                	addw	a1,a1,1
    80001a40:	00d5959b          	sllw	a1,a1,0xd
    kvmmap(kpgtbl, va, (uint64)pa, PGSIZE, PTE_R | PTE_W);
    80001a44:	4719                	li	a4,6
    80001a46:	6685                	lui	a3,0x1
    80001a48:	40b985b3          	sub	a1,s3,a1
    80001a4c:	8552                	mv	a0,s4
    80001a4e:	8cfff0ef          	jal	8000131c <kvmmap>
  for(p = proc; p < &proc[NPROC]; p++) {
    80001a52:	16848493          	add	s1,s1,360
    80001a56:	fd549be3          	bne	s1,s5,80001a2c <proc_mapstacks+0x4a>
  }
}
    80001a5a:	70e2                	ld	ra,56(sp)
    80001a5c:	7442                	ld	s0,48(sp)
    80001a5e:	74a2                	ld	s1,40(sp)
    80001a60:	7902                	ld	s2,32(sp)
    80001a62:	69e2                	ld	s3,24(sp)
    80001a64:	6a42                	ld	s4,16(sp)
    80001a66:	6aa2                	ld	s5,8(sp)
    80001a68:	6b02                	ld	s6,0(sp)
    80001a6a:	6121                	add	sp,sp,64
    80001a6c:	8082                	ret
      panic("kalloc");
    80001a6e:	0000e517          	auipc	a0,0xe
    80001a72:	95250513          	add	a0,a0,-1710 # 8000f3c0 <IP_ADDR_ANY+0x39c>
    80001a76:	a67fe0ef          	jal	800004dc <panic>

0000000080001a7a <procinit>:

// initialize the proc table.
void
procinit(void)
{
    80001a7a:	7139                	add	sp,sp,-64
    80001a7c:	fc06                	sd	ra,56(sp)
    80001a7e:	f822                	sd	s0,48(sp)
    80001a80:	f426                	sd	s1,40(sp)
    80001a82:	f04a                	sd	s2,32(sp)
    80001a84:	ec4e                	sd	s3,24(sp)
    80001a86:	e852                	sd	s4,16(sp)
    80001a88:	e456                	sd	s5,8(sp)
    80001a8a:	e05a                	sd	s6,0(sp)
    80001a8c:	0080                	add	s0,sp,64
  struct proc *p;
  
  initlock(&pid_lock, "nextpid");
    80001a8e:	0000e597          	auipc	a1,0xe
    80001a92:	93a58593          	add	a1,a1,-1734 # 8000f3c8 <IP_ADDR_ANY+0x3a4>
    80001a96:	00018517          	auipc	a0,0x18
    80001a9a:	d5a50513          	add	a0,a0,-678 # 800197f0 <pid_lock>
    80001a9e:	abaff0ef          	jal	80000d58 <initlock>
  initlock(&wait_lock, "wait_lock");
    80001aa2:	0000e597          	auipc	a1,0xe
    80001aa6:	92e58593          	add	a1,a1,-1746 # 8000f3d0 <IP_ADDR_ANY+0x3ac>
    80001aaa:	00018517          	auipc	a0,0x18
    80001aae:	d5e50513          	add	a0,a0,-674 # 80019808 <wait_lock>
    80001ab2:	aa6ff0ef          	jal	80000d58 <initlock>
  for(p = proc; p < &proc[NPROC]; p++) {
    80001ab6:	00018497          	auipc	s1,0x18
    80001aba:	16a48493          	add	s1,s1,362 # 80019c20 <proc>
      initlock(&p->lock, "proc");
    80001abe:	0000eb17          	auipc	s6,0xe
    80001ac2:	922b0b13          	add	s6,s6,-1758 # 8000f3e0 <IP_ADDR_ANY+0x3bc>
      p->state = UNUSED;
      p->kstack = KSTACK((int) (p - proc));
    80001ac6:	8aa6                	mv	s5,s1
    80001ac8:	04fa5937          	lui	s2,0x4fa5
    80001acc:	fa590913          	add	s2,s2,-91 # 4fa4fa5 <_entry-0x7b05b05b>
    80001ad0:	0932                	sll	s2,s2,0xc
    80001ad2:	fa590913          	add	s2,s2,-91
    80001ad6:	0932                	sll	s2,s2,0xc
    80001ad8:	fa590913          	add	s2,s2,-91
    80001adc:	0932                	sll	s2,s2,0xc
    80001ade:	fa590913          	add	s2,s2,-91
    80001ae2:	040009b7          	lui	s3,0x4000
    80001ae6:	19fd                	add	s3,s3,-1 # 3ffffff <_entry-0x7c000001>
    80001ae8:	09b2                	sll	s3,s3,0xc
  for(p = proc; p < &proc[NPROC]; p++) {
    80001aea:	0001ea17          	auipc	s4,0x1e
    80001aee:	b36a0a13          	add	s4,s4,-1226 # 8001f620 <tickslock>
      initlock(&p->lock, "proc");
    80001af2:	85da                	mv	a1,s6
    80001af4:	8526                	mv	a0,s1
    80001af6:	a62ff0ef          	jal	80000d58 <initlock>
      p->state = UNUSED;
    80001afa:	0004ac23          	sw	zero,24(s1)
      p->kstack = KSTACK((int) (p - proc));
    80001afe:	415487b3          	sub	a5,s1,s5
    80001b02:	878d                	sra	a5,a5,0x3
    80001b04:	032787b3          	mul	a5,a5,s2
    80001b08:	2785                	addw	a5,a5,1
    80001b0a:	00d7979b          	sllw	a5,a5,0xd
    80001b0e:	40f987b3          	sub	a5,s3,a5
    80001b12:	e0bc                	sd	a5,64(s1)
  for(p = proc; p < &proc[NPROC]; p++) {
    80001b14:	16848493          	add	s1,s1,360
    80001b18:	fd449de3          	bne	s1,s4,80001af2 <procinit+0x78>
  }
}
    80001b1c:	70e2                	ld	ra,56(sp)
    80001b1e:	7442                	ld	s0,48(sp)
    80001b20:	74a2                	ld	s1,40(sp)
    80001b22:	7902                	ld	s2,32(sp)
    80001b24:	69e2                	ld	s3,24(sp)
    80001b26:	6a42                	ld	s4,16(sp)
    80001b28:	6aa2                	ld	s5,8(sp)
    80001b2a:	6b02                	ld	s6,0(sp)
    80001b2c:	6121                	add	sp,sp,64
    80001b2e:	8082                	ret

0000000080001b30 <cpuid>:
// Must be called with interrupts disabled,
// to prevent race with process being moved
// to a different CPU.
int
cpuid()
{
    80001b30:	1141                	add	sp,sp,-16
    80001b32:	e422                	sd	s0,8(sp)
    80001b34:	0800                	add	s0,sp,16
  asm volatile("mv %0, tp" : "=r" (x) );
    80001b36:	8512                	mv	a0,tp
  int id = r_tp();
  return id;
}
    80001b38:	2501                	sext.w	a0,a0
    80001b3a:	6422                	ld	s0,8(sp)
    80001b3c:	0141                	add	sp,sp,16
    80001b3e:	8082                	ret

0000000080001b40 <mycpu>:

// Return this CPU's cpu struct.
// Interrupts must be disabled.
struct cpu*
mycpu(void)
{
    80001b40:	1141                	add	sp,sp,-16
    80001b42:	e422                	sd	s0,8(sp)
    80001b44:	0800                	add	s0,sp,16
    80001b46:	8792                	mv	a5,tp
  int id = cpuid();
  struct cpu *c = &cpus[id];
    80001b48:	2781                	sext.w	a5,a5
    80001b4a:	079e                	sll	a5,a5,0x7
  return c;
}
    80001b4c:	00018517          	auipc	a0,0x18
    80001b50:	cd450513          	add	a0,a0,-812 # 80019820 <cpus>
    80001b54:	953e                	add	a0,a0,a5
    80001b56:	6422                	ld	s0,8(sp)
    80001b58:	0141                	add	sp,sp,16
    80001b5a:	8082                	ret

0000000080001b5c <myproc>:

// Return the current struct proc *, or zero if none.
struct proc*
myproc(void)
{
    80001b5c:	1101                	add	sp,sp,-32
    80001b5e:	ec06                	sd	ra,24(sp)
    80001b60:	e822                	sd	s0,16(sp)
    80001b62:	e426                	sd	s1,8(sp)
    80001b64:	1000                	add	s0,sp,32
  push_off();
    80001b66:	a32ff0ef          	jal	80000d98 <push_off>
    80001b6a:	8792                	mv	a5,tp
  struct cpu *c = mycpu();
  struct proc *p = c->proc;
    80001b6c:	2781                	sext.w	a5,a5
    80001b6e:	079e                	sll	a5,a5,0x7
    80001b70:	00018717          	auipc	a4,0x18
    80001b74:	c8070713          	add	a4,a4,-896 # 800197f0 <pid_lock>
    80001b78:	97ba                	add	a5,a5,a4
    80001b7a:	7b84                	ld	s1,48(a5)
  pop_off();
    80001b7c:	aa0ff0ef          	jal	80000e1c <pop_off>
  return p;
}
    80001b80:	8526                	mv	a0,s1
    80001b82:	60e2                	ld	ra,24(sp)
    80001b84:	6442                	ld	s0,16(sp)
    80001b86:	64a2                	ld	s1,8(sp)
    80001b88:	6105                	add	sp,sp,32
    80001b8a:	8082                	ret

0000000080001b8c <forkret>:

// A fork child's very first scheduling by scheduler()
// will swtch to forkret.
void
forkret(void)
{
    80001b8c:	1141                	add	sp,sp,-16
    80001b8e:	e406                	sd	ra,8(sp)
    80001b90:	e022                	sd	s0,0(sp)
    80001b92:	0800                	add	s0,sp,16
  static int first = 1;

  // Still holding p->lock from scheduler.
  release(&myproc()->lock);
    80001b94:	fc9ff0ef          	jal	80001b5c <myproc>
    80001b98:	ad8ff0ef          	jal	80000e70 <release>

  if (first) {
    80001b9c:	00010797          	auipc	a5,0x10
    80001ba0:	a447a783          	lw	a5,-1468(a5) # 800115e0 <first.1>
    80001ba4:	e799                	bnez	a5,80001bb2 <forkret+0x26>
    first = 0;
    // ensure other cores see first=0.
    __sync_synchronize();
  }

  usertrapret();
    80001ba6:	2d3000ef          	jal	80002678 <usertrapret>
}
    80001baa:	60a2                	ld	ra,8(sp)
    80001bac:	6402                	ld	s0,0(sp)
    80001bae:	0141                	add	sp,sp,16
    80001bb0:	8082                	ret
    fsinit(ROOTDEV);
    80001bb2:	4505                	li	a0,1
    80001bb4:	6e4010ef          	jal	80003298 <fsinit>
    first = 0;
    80001bb8:	00010797          	auipc	a5,0x10
    80001bbc:	a207a423          	sw	zero,-1496(a5) # 800115e0 <first.1>
    __sync_synchronize();
    80001bc0:	0ff0000f          	fence
    80001bc4:	b7cd                	j	80001ba6 <forkret+0x1a>

0000000080001bc6 <allocpid>:
{
    80001bc6:	1101                	add	sp,sp,-32
    80001bc8:	ec06                	sd	ra,24(sp)
    80001bca:	e822                	sd	s0,16(sp)
    80001bcc:	e426                	sd	s1,8(sp)
    80001bce:	e04a                	sd	s2,0(sp)
    80001bd0:	1000                	add	s0,sp,32
  acquire(&pid_lock);
    80001bd2:	00018917          	auipc	s2,0x18
    80001bd6:	c1e90913          	add	s2,s2,-994 # 800197f0 <pid_lock>
    80001bda:	854a                	mv	a0,s2
    80001bdc:	9fcff0ef          	jal	80000dd8 <acquire>
  pid = nextpid;
    80001be0:	00010797          	auipc	a5,0x10
    80001be4:	a0478793          	add	a5,a5,-1532 # 800115e4 <nextpid>
    80001be8:	4384                	lw	s1,0(a5)
  nextpid = nextpid + 1;
    80001bea:	0014871b          	addw	a4,s1,1
    80001bee:	c398                	sw	a4,0(a5)
  release(&pid_lock);
    80001bf0:	854a                	mv	a0,s2
    80001bf2:	a7eff0ef          	jal	80000e70 <release>
}
    80001bf6:	8526                	mv	a0,s1
    80001bf8:	60e2                	ld	ra,24(sp)
    80001bfa:	6442                	ld	s0,16(sp)
    80001bfc:	64a2                	ld	s1,8(sp)
    80001bfe:	6902                	ld	s2,0(sp)
    80001c00:	6105                	add	sp,sp,32
    80001c02:	8082                	ret

0000000080001c04 <proc_pagetable>:
{
    80001c04:	1101                	add	sp,sp,-32
    80001c06:	ec06                	sd	ra,24(sp)
    80001c08:	e822                	sd	s0,16(sp)
    80001c0a:	e426                	sd	s1,8(sp)
    80001c0c:	e04a                	sd	s2,0(sp)
    80001c0e:	1000                	add	s0,sp,32
    80001c10:	892a                	mv	s2,a0
  pagetable = uvmcreate();
    80001c12:	8e1ff0ef          	jal	800014f2 <uvmcreate>
    80001c16:	84aa                	mv	s1,a0
  if(pagetable == 0)
    80001c18:	cd05                	beqz	a0,80001c50 <proc_pagetable+0x4c>
  if(mappages(pagetable, TRAMPOLINE, PGSIZE,
    80001c1a:	4729                	li	a4,10
    80001c1c:	0000c697          	auipc	a3,0xc
    80001c20:	3e468693          	add	a3,a3,996 # 8000e000 <_trampoline>
    80001c24:	6605                	lui	a2,0x1
    80001c26:	040005b7          	lui	a1,0x4000
    80001c2a:	15fd                	add	a1,a1,-1 # 3ffffff <_entry-0x7c000001>
    80001c2c:	05b2                	sll	a1,a1,0xc
    80001c2e:	e3eff0ef          	jal	8000126c <mappages>
    80001c32:	02054663          	bltz	a0,80001c5e <proc_pagetable+0x5a>
  if(mappages(pagetable, TRAPFRAME, PGSIZE,
    80001c36:	4719                	li	a4,6
    80001c38:	05893683          	ld	a3,88(s2)
    80001c3c:	6605                	lui	a2,0x1
    80001c3e:	020005b7          	lui	a1,0x2000
    80001c42:	15fd                	add	a1,a1,-1 # 1ffffff <_entry-0x7e000001>
    80001c44:	05b6                	sll	a1,a1,0xd
    80001c46:	8526                	mv	a0,s1
    80001c48:	e24ff0ef          	jal	8000126c <mappages>
    80001c4c:	00054f63          	bltz	a0,80001c6a <proc_pagetable+0x66>
}
    80001c50:	8526                	mv	a0,s1
    80001c52:	60e2                	ld	ra,24(sp)
    80001c54:	6442                	ld	s0,16(sp)
    80001c56:	64a2                	ld	s1,8(sp)
    80001c58:	6902                	ld	s2,0(sp)
    80001c5a:	6105                	add	sp,sp,32
    80001c5c:	8082                	ret
    uvmfree(pagetable, 0);
    80001c5e:	4581                	li	a1,0
    80001c60:	8526                	mv	a0,s1
    80001c62:	a5fff0ef          	jal	800016c0 <uvmfree>
    return 0;
    80001c66:	4481                	li	s1,0
    80001c68:	b7e5                	j	80001c50 <proc_pagetable+0x4c>
    uvmunmap(pagetable, TRAMPOLINE, 1, 0);
    80001c6a:	4681                	li	a3,0
    80001c6c:	4605                	li	a2,1
    80001c6e:	040005b7          	lui	a1,0x4000
    80001c72:	15fd                	add	a1,a1,-1 # 3ffffff <_entry-0x7c000001>
    80001c74:	05b2                	sll	a1,a1,0xc
    80001c76:	8526                	mv	a0,s1
    80001c78:	fbeff0ef          	jal	80001436 <uvmunmap>
    uvmfree(pagetable, 0);
    80001c7c:	4581                	li	a1,0
    80001c7e:	8526                	mv	a0,s1
    80001c80:	a41ff0ef          	jal	800016c0 <uvmfree>
    return 0;
    80001c84:	4481                	li	s1,0
    80001c86:	b7e9                	j	80001c50 <proc_pagetable+0x4c>

0000000080001c88 <proc_freepagetable>:
{
    80001c88:	1101                	add	sp,sp,-32
    80001c8a:	ec06                	sd	ra,24(sp)
    80001c8c:	e822                	sd	s0,16(sp)
    80001c8e:	e426                	sd	s1,8(sp)
    80001c90:	e04a                	sd	s2,0(sp)
    80001c92:	1000                	add	s0,sp,32
    80001c94:	84aa                	mv	s1,a0
    80001c96:	892e                	mv	s2,a1
  uvmunmap(pagetable, TRAMPOLINE, 1, 0);
    80001c98:	4681                	li	a3,0
    80001c9a:	4605                	li	a2,1
    80001c9c:	040005b7          	lui	a1,0x4000
    80001ca0:	15fd                	add	a1,a1,-1 # 3ffffff <_entry-0x7c000001>
    80001ca2:	05b2                	sll	a1,a1,0xc
    80001ca4:	f92ff0ef          	jal	80001436 <uvmunmap>
  uvmunmap(pagetable, TRAPFRAME, 1, 0);
    80001ca8:	4681                	li	a3,0
    80001caa:	4605                	li	a2,1
    80001cac:	020005b7          	lui	a1,0x2000
    80001cb0:	15fd                	add	a1,a1,-1 # 1ffffff <_entry-0x7e000001>
    80001cb2:	05b6                	sll	a1,a1,0xd
    80001cb4:	8526                	mv	a0,s1
    80001cb6:	f80ff0ef          	jal	80001436 <uvmunmap>
  uvmfree(pagetable, sz);
    80001cba:	85ca                	mv	a1,s2
    80001cbc:	8526                	mv	a0,s1
    80001cbe:	a03ff0ef          	jal	800016c0 <uvmfree>
}
    80001cc2:	60e2                	ld	ra,24(sp)
    80001cc4:	6442                	ld	s0,16(sp)
    80001cc6:	64a2                	ld	s1,8(sp)
    80001cc8:	6902                	ld	s2,0(sp)
    80001cca:	6105                	add	sp,sp,32
    80001ccc:	8082                	ret

0000000080001cce <freeproc>:
{
    80001cce:	1101                	add	sp,sp,-32
    80001cd0:	ec06                	sd	ra,24(sp)
    80001cd2:	e822                	sd	s0,16(sp)
    80001cd4:	e426                	sd	s1,8(sp)
    80001cd6:	1000                	add	s0,sp,32
    80001cd8:	84aa                	mv	s1,a0
  if(p->trapframe)
    80001cda:	6d28                	ld	a0,88(a0)
    80001cdc:	c119                	beqz	a0,80001ce2 <freeproc+0x14>
    kfree((void*)p->trapframe);
    80001cde:	f49fe0ef          	jal	80000c26 <kfree>
  p->trapframe = 0;
    80001ce2:	0404bc23          	sd	zero,88(s1)
  if(p->pagetable)
    80001ce6:	68a8                	ld	a0,80(s1)
    80001ce8:	c501                	beqz	a0,80001cf0 <freeproc+0x22>
    proc_freepagetable(p->pagetable, p->sz);
    80001cea:	64ac                	ld	a1,72(s1)
    80001cec:	f9dff0ef          	jal	80001c88 <proc_freepagetable>
  p->pagetable = 0;
    80001cf0:	0404b823          	sd	zero,80(s1)
  p->sz = 0;
    80001cf4:	0404b423          	sd	zero,72(s1)
  p->pid = 0;
    80001cf8:	0204a823          	sw	zero,48(s1)
  p->parent = 0;
    80001cfc:	0204bc23          	sd	zero,56(s1)
  p->name[0] = 0;
    80001d00:	14048c23          	sb	zero,344(s1)
  p->chan = 0;
    80001d04:	0204b023          	sd	zero,32(s1)
  p->killed = 0;
    80001d08:	0204a423          	sw	zero,40(s1)
  p->xstate = 0;
    80001d0c:	0204a623          	sw	zero,44(s1)
  p->state = UNUSED;
    80001d10:	0004ac23          	sw	zero,24(s1)
}
    80001d14:	60e2                	ld	ra,24(sp)
    80001d16:	6442                	ld	s0,16(sp)
    80001d18:	64a2                	ld	s1,8(sp)
    80001d1a:	6105                	add	sp,sp,32
    80001d1c:	8082                	ret

0000000080001d1e <allocproc>:
{
    80001d1e:	1101                	add	sp,sp,-32
    80001d20:	ec06                	sd	ra,24(sp)
    80001d22:	e822                	sd	s0,16(sp)
    80001d24:	e426                	sd	s1,8(sp)
    80001d26:	e04a                	sd	s2,0(sp)
    80001d28:	1000                	add	s0,sp,32
  for(p = proc; p < &proc[NPROC]; p++) {
    80001d2a:	00018497          	auipc	s1,0x18
    80001d2e:	ef648493          	add	s1,s1,-266 # 80019c20 <proc>
    80001d32:	0001e917          	auipc	s2,0x1e
    80001d36:	8ee90913          	add	s2,s2,-1810 # 8001f620 <tickslock>
    acquire(&p->lock);
    80001d3a:	8526                	mv	a0,s1
    80001d3c:	89cff0ef          	jal	80000dd8 <acquire>
    if(p->state == UNUSED) {
    80001d40:	4c9c                	lw	a5,24(s1)
    80001d42:	cb91                	beqz	a5,80001d56 <allocproc+0x38>
      release(&p->lock);
    80001d44:	8526                	mv	a0,s1
    80001d46:	92aff0ef          	jal	80000e70 <release>
  for(p = proc; p < &proc[NPROC]; p++) {
    80001d4a:	16848493          	add	s1,s1,360
    80001d4e:	ff2496e3          	bne	s1,s2,80001d3a <allocproc+0x1c>
  return 0;
    80001d52:	4481                	li	s1,0
    80001d54:	a089                	j	80001d96 <allocproc+0x78>
  p->pid = allocpid();
    80001d56:	e71ff0ef          	jal	80001bc6 <allocpid>
    80001d5a:	d888                	sw	a0,48(s1)
  p->state = USED;
    80001d5c:	4785                	li	a5,1
    80001d5e:	cc9c                	sw	a5,24(s1)
  if((p->trapframe = (struct trapframe *)kalloc()) == 0){
    80001d60:	fa9fe0ef          	jal	80000d08 <kalloc>
    80001d64:	892a                	mv	s2,a0
    80001d66:	eca8                	sd	a0,88(s1)
    80001d68:	cd15                	beqz	a0,80001da4 <allocproc+0x86>
  p->pagetable = proc_pagetable(p);
    80001d6a:	8526                	mv	a0,s1
    80001d6c:	e99ff0ef          	jal	80001c04 <proc_pagetable>
    80001d70:	892a                	mv	s2,a0
    80001d72:	e8a8                	sd	a0,80(s1)
  if(p->pagetable == 0){
    80001d74:	c121                	beqz	a0,80001db4 <allocproc+0x96>
  memset(&p->context, 0, sizeof(p->context));
    80001d76:	07000613          	li	a2,112
    80001d7a:	4581                	li	a1,0
    80001d7c:	06048513          	add	a0,s1,96
    80001d80:	92cff0ef          	jal	80000eac <memset>
  p->context.ra = (uint64)forkret;
    80001d84:	00000797          	auipc	a5,0x0
    80001d88:	e0878793          	add	a5,a5,-504 # 80001b8c <forkret>
    80001d8c:	f0bc                	sd	a5,96(s1)
  p->context.sp = p->kstack + PGSIZE;
    80001d8e:	60bc                	ld	a5,64(s1)
    80001d90:	6705                	lui	a4,0x1
    80001d92:	97ba                	add	a5,a5,a4
    80001d94:	f4bc                	sd	a5,104(s1)
}
    80001d96:	8526                	mv	a0,s1
    80001d98:	60e2                	ld	ra,24(sp)
    80001d9a:	6442                	ld	s0,16(sp)
    80001d9c:	64a2                	ld	s1,8(sp)
    80001d9e:	6902                	ld	s2,0(sp)
    80001da0:	6105                	add	sp,sp,32
    80001da2:	8082                	ret
    freeproc(p);
    80001da4:	8526                	mv	a0,s1
    80001da6:	f29ff0ef          	jal	80001cce <freeproc>
    release(&p->lock);
    80001daa:	8526                	mv	a0,s1
    80001dac:	8c4ff0ef          	jal	80000e70 <release>
    return 0;
    80001db0:	84ca                	mv	s1,s2
    80001db2:	b7d5                	j	80001d96 <allocproc+0x78>
    freeproc(p);
    80001db4:	8526                	mv	a0,s1
    80001db6:	f19ff0ef          	jal	80001cce <freeproc>
    release(&p->lock);
    80001dba:	8526                	mv	a0,s1
    80001dbc:	8b4ff0ef          	jal	80000e70 <release>
    return 0;
    80001dc0:	84ca                	mv	s1,s2
    80001dc2:	bfd1                	j	80001d96 <allocproc+0x78>

0000000080001dc4 <userinit>:
{
    80001dc4:	1101                	add	sp,sp,-32
    80001dc6:	ec06                	sd	ra,24(sp)
    80001dc8:	e822                	sd	s0,16(sp)
    80001dca:	e426                	sd	s1,8(sp)
    80001dcc:	1000                	add	s0,sp,32
  p = allocproc();
    80001dce:	f51ff0ef          	jal	80001d1e <allocproc>
    80001dd2:	84aa                	mv	s1,a0
  initproc = p;
    80001dd4:	00010797          	auipc	a5,0x10
    80001dd8:	88a7ba23          	sd	a0,-1900(a5) # 80011668 <initproc>
  uvmfirst(p->pagetable, initcode, sizeof(initcode));
    80001ddc:	03400613          	li	a2,52
    80001de0:	00010597          	auipc	a1,0x10
    80001de4:	81058593          	add	a1,a1,-2032 # 800115f0 <initcode>
    80001de8:	6928                	ld	a0,80(a0)
    80001dea:	f2eff0ef          	jal	80001518 <uvmfirst>
  p->sz = PGSIZE;
    80001dee:	6785                	lui	a5,0x1
    80001df0:	e4bc                	sd	a5,72(s1)
  p->trapframe->epc = 0;      // user program counter
    80001df2:	6cb8                	ld	a4,88(s1)
    80001df4:	00073c23          	sd	zero,24(a4) # 1018 <_entry-0x7fffefe8>
  p->trapframe->sp = PGSIZE;  // user stack pointer
    80001df8:	6cb8                	ld	a4,88(s1)
    80001dfa:	fb1c                	sd	a5,48(a4)
  safestrcpy(p->name, "initcode", sizeof(p->name));
    80001dfc:	4641                	li	a2,16
    80001dfe:	0000d597          	auipc	a1,0xd
    80001e02:	5ea58593          	add	a1,a1,1514 # 8000f3e8 <IP_ADDR_ANY+0x3c4>
    80001e06:	15848513          	add	a0,s1,344
    80001e0a:	9e0ff0ef          	jal	80000fea <safestrcpy>
  p->cwd = namei("/");
    80001e0e:	0000d517          	auipc	a0,0xd
    80001e12:	5ea50513          	add	a0,a0,1514 # 8000f3f8 <IP_ADDR_ANY+0x3d4>
    80001e16:	591010ef          	jal	80003ba6 <namei>
    80001e1a:	14a4b823          	sd	a0,336(s1)
  p->state = RUNNABLE;
    80001e1e:	478d                	li	a5,3
    80001e20:	cc9c                	sw	a5,24(s1)
  release(&p->lock);
    80001e22:	8526                	mv	a0,s1
    80001e24:	84cff0ef          	jal	80000e70 <release>
}
    80001e28:	60e2                	ld	ra,24(sp)
    80001e2a:	6442                	ld	s0,16(sp)
    80001e2c:	64a2                	ld	s1,8(sp)
    80001e2e:	6105                	add	sp,sp,32
    80001e30:	8082                	ret

0000000080001e32 <growproc>:
{
    80001e32:	1101                	add	sp,sp,-32
    80001e34:	ec06                	sd	ra,24(sp)
    80001e36:	e822                	sd	s0,16(sp)
    80001e38:	e426                	sd	s1,8(sp)
    80001e3a:	e04a                	sd	s2,0(sp)
    80001e3c:	1000                	add	s0,sp,32
    80001e3e:	892a                	mv	s2,a0
  struct proc *p = myproc();
    80001e40:	d1dff0ef          	jal	80001b5c <myproc>
    80001e44:	84aa                	mv	s1,a0
  sz = p->sz;
    80001e46:	652c                	ld	a1,72(a0)
  if(n > 0){
    80001e48:	01204c63          	bgtz	s2,80001e60 <growproc+0x2e>
  } else if(n < 0){
    80001e4c:	02094463          	bltz	s2,80001e74 <growproc+0x42>
  p->sz = sz;
    80001e50:	e4ac                	sd	a1,72(s1)
  return 0;
    80001e52:	4501                	li	a0,0
}
    80001e54:	60e2                	ld	ra,24(sp)
    80001e56:	6442                	ld	s0,16(sp)
    80001e58:	64a2                	ld	s1,8(sp)
    80001e5a:	6902                	ld	s2,0(sp)
    80001e5c:	6105                	add	sp,sp,32
    80001e5e:	8082                	ret
    if((sz = uvmalloc(p->pagetable, sz, sz + n, PTE_W)) == 0) {
    80001e60:	4691                	li	a3,4
    80001e62:	00b90633          	add	a2,s2,a1
    80001e66:	6928                	ld	a0,80(a0)
    80001e68:	f52ff0ef          	jal	800015ba <uvmalloc>
    80001e6c:	85aa                	mv	a1,a0
    80001e6e:	f16d                	bnez	a0,80001e50 <growproc+0x1e>
      return -1;
    80001e70:	557d                	li	a0,-1
    80001e72:	b7cd                	j	80001e54 <growproc+0x22>
    sz = uvmdealloc(p->pagetable, sz, sz + n);
    80001e74:	00b90633          	add	a2,s2,a1
    80001e78:	6928                	ld	a0,80(a0)
    80001e7a:	efcff0ef          	jal	80001576 <uvmdealloc>
    80001e7e:	85aa                	mv	a1,a0
    80001e80:	bfc1                	j	80001e50 <growproc+0x1e>

0000000080001e82 <fork>:
{
    80001e82:	7139                	add	sp,sp,-64
    80001e84:	fc06                	sd	ra,56(sp)
    80001e86:	f822                	sd	s0,48(sp)
    80001e88:	f04a                	sd	s2,32(sp)
    80001e8a:	e456                	sd	s5,8(sp)
    80001e8c:	0080                	add	s0,sp,64
  struct proc *p = myproc();
    80001e8e:	ccfff0ef          	jal	80001b5c <myproc>
    80001e92:	8aaa                	mv	s5,a0
  if((np = allocproc()) == 0){
    80001e94:	e8bff0ef          	jal	80001d1e <allocproc>
    80001e98:	0e050a63          	beqz	a0,80001f8c <fork+0x10a>
    80001e9c:	e852                	sd	s4,16(sp)
    80001e9e:	8a2a                	mv	s4,a0
  if(uvmcopy(p->pagetable, np->pagetable, p->sz) < 0){
    80001ea0:	048ab603          	ld	a2,72(s5)
    80001ea4:	692c                	ld	a1,80(a0)
    80001ea6:	050ab503          	ld	a0,80(s5)
    80001eaa:	849ff0ef          	jal	800016f2 <uvmcopy>
    80001eae:	04054a63          	bltz	a0,80001f02 <fork+0x80>
    80001eb2:	f426                	sd	s1,40(sp)
    80001eb4:	ec4e                	sd	s3,24(sp)
  np->sz = p->sz;
    80001eb6:	048ab783          	ld	a5,72(s5)
    80001eba:	04fa3423          	sd	a5,72(s4)
  *(np->trapframe) = *(p->trapframe);
    80001ebe:	058ab683          	ld	a3,88(s5)
    80001ec2:	87b6                	mv	a5,a3
    80001ec4:	058a3703          	ld	a4,88(s4)
    80001ec8:	12068693          	add	a3,a3,288
    80001ecc:	0007b803          	ld	a6,0(a5) # 1000 <_entry-0x7ffff000>
    80001ed0:	6788                	ld	a0,8(a5)
    80001ed2:	6b8c                	ld	a1,16(a5)
    80001ed4:	6f90                	ld	a2,24(a5)
    80001ed6:	01073023          	sd	a6,0(a4)
    80001eda:	e708                	sd	a0,8(a4)
    80001edc:	eb0c                	sd	a1,16(a4)
    80001ede:	ef10                	sd	a2,24(a4)
    80001ee0:	02078793          	add	a5,a5,32
    80001ee4:	02070713          	add	a4,a4,32
    80001ee8:	fed792e3          	bne	a5,a3,80001ecc <fork+0x4a>
  np->trapframe->a0 = 0;
    80001eec:	058a3783          	ld	a5,88(s4)
    80001ef0:	0607b823          	sd	zero,112(a5)
  for(i = 0; i < NOFILE; i++)
    80001ef4:	0d0a8493          	add	s1,s5,208
    80001ef8:	0d0a0913          	add	s2,s4,208
    80001efc:	150a8993          	add	s3,s5,336
    80001f00:	a831                	j	80001f1c <fork+0x9a>
    freeproc(np);
    80001f02:	8552                	mv	a0,s4
    80001f04:	dcbff0ef          	jal	80001cce <freeproc>
    release(&np->lock);
    80001f08:	8552                	mv	a0,s4
    80001f0a:	f67fe0ef          	jal	80000e70 <release>
    return -1;
    80001f0e:	597d                	li	s2,-1
    80001f10:	6a42                	ld	s4,16(sp)
    80001f12:	a0b5                	j	80001f7e <fork+0xfc>
  for(i = 0; i < NOFILE; i++)
    80001f14:	04a1                	add	s1,s1,8
    80001f16:	0921                	add	s2,s2,8
    80001f18:	01348963          	beq	s1,s3,80001f2a <fork+0xa8>
    if(p->ofile[i])
    80001f1c:	6088                	ld	a0,0(s1)
    80001f1e:	d97d                	beqz	a0,80001f14 <fork+0x92>
      np->ofile[i] = filedup(p->ofile[i]);
    80001f20:	216020ef          	jal	80004136 <filedup>
    80001f24:	00a93023          	sd	a0,0(s2)
    80001f28:	b7f5                	j	80001f14 <fork+0x92>
  np->cwd = idup(p->cwd);
    80001f2a:	150ab503          	ld	a0,336(s5)
    80001f2e:	568010ef          	jal	80003496 <idup>
    80001f32:	14aa3823          	sd	a0,336(s4)
  safestrcpy(np->name, p->name, sizeof(p->name));
    80001f36:	4641                	li	a2,16
    80001f38:	158a8593          	add	a1,s5,344
    80001f3c:	158a0513          	add	a0,s4,344
    80001f40:	8aaff0ef          	jal	80000fea <safestrcpy>
  pid = np->pid;
    80001f44:	030a2903          	lw	s2,48(s4)
  release(&np->lock);
    80001f48:	8552                	mv	a0,s4
    80001f4a:	f27fe0ef          	jal	80000e70 <release>
  acquire(&wait_lock);
    80001f4e:	00018497          	auipc	s1,0x18
    80001f52:	8ba48493          	add	s1,s1,-1862 # 80019808 <wait_lock>
    80001f56:	8526                	mv	a0,s1
    80001f58:	e81fe0ef          	jal	80000dd8 <acquire>
  np->parent = p;
    80001f5c:	035a3c23          	sd	s5,56(s4)
  release(&wait_lock);
    80001f60:	8526                	mv	a0,s1
    80001f62:	f0ffe0ef          	jal	80000e70 <release>
  acquire(&np->lock);
    80001f66:	8552                	mv	a0,s4
    80001f68:	e71fe0ef          	jal	80000dd8 <acquire>
  np->state = RUNNABLE;
    80001f6c:	478d                	li	a5,3
    80001f6e:	00fa2c23          	sw	a5,24(s4)
  release(&np->lock);
    80001f72:	8552                	mv	a0,s4
    80001f74:	efdfe0ef          	jal	80000e70 <release>
  return pid;
    80001f78:	74a2                	ld	s1,40(sp)
    80001f7a:	69e2                	ld	s3,24(sp)
    80001f7c:	6a42                	ld	s4,16(sp)
}
    80001f7e:	854a                	mv	a0,s2
    80001f80:	70e2                	ld	ra,56(sp)
    80001f82:	7442                	ld	s0,48(sp)
    80001f84:	7902                	ld	s2,32(sp)
    80001f86:	6aa2                	ld	s5,8(sp)
    80001f88:	6121                	add	sp,sp,64
    80001f8a:	8082                	ret
    return -1;
    80001f8c:	597d                	li	s2,-1
    80001f8e:	bfc5                	j	80001f7e <fork+0xfc>

0000000080001f90 <scheduler>:
{
    80001f90:	715d                	add	sp,sp,-80
    80001f92:	e486                	sd	ra,72(sp)
    80001f94:	e0a2                	sd	s0,64(sp)
    80001f96:	fc26                	sd	s1,56(sp)
    80001f98:	f84a                	sd	s2,48(sp)
    80001f9a:	f44e                	sd	s3,40(sp)
    80001f9c:	f052                	sd	s4,32(sp)
    80001f9e:	ec56                	sd	s5,24(sp)
    80001fa0:	e85a                	sd	s6,16(sp)
    80001fa2:	e45e                	sd	s7,8(sp)
    80001fa4:	e062                	sd	s8,0(sp)
    80001fa6:	0880                	add	s0,sp,80
    80001fa8:	8792                	mv	a5,tp
  int id = r_tp();
    80001faa:	2781                	sext.w	a5,a5
  c->proc = 0;
    80001fac:	00779b13          	sll	s6,a5,0x7
    80001fb0:	00018717          	auipc	a4,0x18
    80001fb4:	84070713          	add	a4,a4,-1984 # 800197f0 <pid_lock>
    80001fb8:	975a                	add	a4,a4,s6
    80001fba:	02073823          	sd	zero,48(a4)
        swtch(&c->context, &p->context);
    80001fbe:	00018717          	auipc	a4,0x18
    80001fc2:	86a70713          	add	a4,a4,-1942 # 80019828 <cpus+0x8>
    80001fc6:	9b3a                	add	s6,s6,a4
        p->state = RUNNING;
    80001fc8:	4c11                	li	s8,4
        c->proc = p;
    80001fca:	079e                	sll	a5,a5,0x7
    80001fcc:	00018a17          	auipc	s4,0x18
    80001fd0:	824a0a13          	add	s4,s4,-2012 # 800197f0 <pid_lock>
    80001fd4:	9a3e                	add	s4,s4,a5
        found = 1;
    80001fd6:	4b85                	li	s7,1
    for(p = proc; p < &proc[NPROC]; p++) {
    80001fd8:	0001d997          	auipc	s3,0x1d
    80001fdc:	64898993          	add	s3,s3,1608 # 8001f620 <tickslock>
    80001fe0:	a0a9                	j	8000202a <scheduler+0x9a>
      release(&p->lock);
    80001fe2:	8526                	mv	a0,s1
    80001fe4:	e8dfe0ef          	jal	80000e70 <release>
    for(p = proc; p < &proc[NPROC]; p++) {
    80001fe8:	16848493          	add	s1,s1,360
    80001fec:	03348563          	beq	s1,s3,80002016 <scheduler+0x86>
      acquire(&p->lock);
    80001ff0:	8526                	mv	a0,s1
    80001ff2:	de7fe0ef          	jal	80000dd8 <acquire>
      if(p->state == RUNNABLE) {
    80001ff6:	4c9c                	lw	a5,24(s1)
    80001ff8:	ff2795e3          	bne	a5,s2,80001fe2 <scheduler+0x52>
        p->state = RUNNING;
    80001ffc:	0184ac23          	sw	s8,24(s1)
        c->proc = p;
    80002000:	029a3823          	sd	s1,48(s4)
        swtch(&c->context, &p->context);
    80002004:	06048593          	add	a1,s1,96
    80002008:	855a                	mv	a0,s6
    8000200a:	5b4000ef          	jal	800025be <swtch>
        c->proc = 0;
    8000200e:	020a3823          	sd	zero,48(s4)
        found = 1;
    80002012:	8ade                	mv	s5,s7
    80002014:	b7f9                	j	80001fe2 <scheduler+0x52>
    if(found == 0) {
    80002016:	000a9a63          	bnez	s5,8000202a <scheduler+0x9a>
  asm volatile("csrr %0, sstatus" : "=r" (x) );
    8000201a:	100027f3          	csrr	a5,sstatus
  w_sstatus(r_sstatus() | SSTATUS_SIE);
    8000201e:	0027e793          	or	a5,a5,2
  asm volatile("csrw sstatus, %0" : : "r" (x));
    80002022:	10079073          	csrw	sstatus,a5
      asm volatile("wfi");
    80002026:	10500073          	wfi
  asm volatile("csrr %0, sstatus" : "=r" (x) );
    8000202a:	100027f3          	csrr	a5,sstatus
  w_sstatus(r_sstatus() | SSTATUS_SIE);
    8000202e:	0027e793          	or	a5,a5,2
  asm volatile("csrw sstatus, %0" : : "r" (x));
    80002032:	10079073          	csrw	sstatus,a5
    int found = 0;
    80002036:	4a81                	li	s5,0
    for(p = proc; p < &proc[NPROC]; p++) {
    80002038:	00018497          	auipc	s1,0x18
    8000203c:	be848493          	add	s1,s1,-1048 # 80019c20 <proc>
      if(p->state == RUNNABLE) {
    80002040:	490d                	li	s2,3
    80002042:	b77d                	j	80001ff0 <scheduler+0x60>

0000000080002044 <sched>:
{
    80002044:	7179                	add	sp,sp,-48
    80002046:	f406                	sd	ra,40(sp)
    80002048:	f022                	sd	s0,32(sp)
    8000204a:	ec26                	sd	s1,24(sp)
    8000204c:	e84a                	sd	s2,16(sp)
    8000204e:	e44e                	sd	s3,8(sp)
    80002050:	1800                	add	s0,sp,48
  struct proc *p = myproc();
    80002052:	b0bff0ef          	jal	80001b5c <myproc>
    80002056:	84aa                	mv	s1,a0
  if(!holding(&p->lock))
    80002058:	d17fe0ef          	jal	80000d6e <holding>
    8000205c:	c92d                	beqz	a0,800020ce <sched+0x8a>
  asm volatile("mv %0, tp" : "=r" (x) );
    8000205e:	8792                	mv	a5,tp
  if(mycpu()->noff != 1)
    80002060:	2781                	sext.w	a5,a5
    80002062:	079e                	sll	a5,a5,0x7
    80002064:	00017717          	auipc	a4,0x17
    80002068:	78c70713          	add	a4,a4,1932 # 800197f0 <pid_lock>
    8000206c:	97ba                	add	a5,a5,a4
    8000206e:	0a87a703          	lw	a4,168(a5)
    80002072:	4785                	li	a5,1
    80002074:	06f71363          	bne	a4,a5,800020da <sched+0x96>
  if(p->state == RUNNING)
    80002078:	4c98                	lw	a4,24(s1)
    8000207a:	4791                	li	a5,4
    8000207c:	06f70563          	beq	a4,a5,800020e6 <sched+0xa2>
  asm volatile("csrr %0, sstatus" : "=r" (x) );
    80002080:	100027f3          	csrr	a5,sstatus
  return (x & SSTATUS_SIE) != 0;
    80002084:	8b89                	and	a5,a5,2
  if(intr_get())
    80002086:	e7b5                	bnez	a5,800020f2 <sched+0xae>
  asm volatile("mv %0, tp" : "=r" (x) );
    80002088:	8792                	mv	a5,tp
  intena = mycpu()->intena;
    8000208a:	00017917          	auipc	s2,0x17
    8000208e:	76690913          	add	s2,s2,1894 # 800197f0 <pid_lock>
    80002092:	2781                	sext.w	a5,a5
    80002094:	079e                	sll	a5,a5,0x7
    80002096:	97ca                	add	a5,a5,s2
    80002098:	0ac7a983          	lw	s3,172(a5)
    8000209c:	8792                	mv	a5,tp
  swtch(&p->context, &mycpu()->context);
    8000209e:	2781                	sext.w	a5,a5
    800020a0:	079e                	sll	a5,a5,0x7
    800020a2:	00017597          	auipc	a1,0x17
    800020a6:	78658593          	add	a1,a1,1926 # 80019828 <cpus+0x8>
    800020aa:	95be                	add	a1,a1,a5
    800020ac:	06048513          	add	a0,s1,96
    800020b0:	50e000ef          	jal	800025be <swtch>
    800020b4:	8792                	mv	a5,tp
  mycpu()->intena = intena;
    800020b6:	2781                	sext.w	a5,a5
    800020b8:	079e                	sll	a5,a5,0x7
    800020ba:	993e                	add	s2,s2,a5
    800020bc:	0b392623          	sw	s3,172(s2)
}
    800020c0:	70a2                	ld	ra,40(sp)
    800020c2:	7402                	ld	s0,32(sp)
    800020c4:	64e2                	ld	s1,24(sp)
    800020c6:	6942                	ld	s2,16(sp)
    800020c8:	69a2                	ld	s3,8(sp)
    800020ca:	6145                	add	sp,sp,48
    800020cc:	8082                	ret
    panic("sched p->lock");
    800020ce:	0000d517          	auipc	a0,0xd
    800020d2:	33250513          	add	a0,a0,818 # 8000f400 <IP_ADDR_ANY+0x3dc>
    800020d6:	c06fe0ef          	jal	800004dc <panic>
    panic("sched locks");
    800020da:	0000d517          	auipc	a0,0xd
    800020de:	33650513          	add	a0,a0,822 # 8000f410 <IP_ADDR_ANY+0x3ec>
    800020e2:	bfafe0ef          	jal	800004dc <panic>
    panic("sched running");
    800020e6:	0000d517          	auipc	a0,0xd
    800020ea:	33a50513          	add	a0,a0,826 # 8000f420 <IP_ADDR_ANY+0x3fc>
    800020ee:	beefe0ef          	jal	800004dc <panic>
    panic("sched interruptible");
    800020f2:	0000d517          	auipc	a0,0xd
    800020f6:	33e50513          	add	a0,a0,830 # 8000f430 <IP_ADDR_ANY+0x40c>
    800020fa:	be2fe0ef          	jal	800004dc <panic>

00000000800020fe <yield>:
{
    800020fe:	1101                	add	sp,sp,-32
    80002100:	ec06                	sd	ra,24(sp)
    80002102:	e822                	sd	s0,16(sp)
    80002104:	e426                	sd	s1,8(sp)
    80002106:	1000                	add	s0,sp,32
  struct proc *p = myproc();
    80002108:	a55ff0ef          	jal	80001b5c <myproc>
    8000210c:	84aa                	mv	s1,a0
  acquire(&p->lock);
    8000210e:	ccbfe0ef          	jal	80000dd8 <acquire>
  p->state = RUNNABLE;
    80002112:	478d                	li	a5,3
    80002114:	cc9c                	sw	a5,24(s1)
  sched();
    80002116:	f2fff0ef          	jal	80002044 <sched>
  release(&p->lock);
    8000211a:	8526                	mv	a0,s1
    8000211c:	d55fe0ef          	jal	80000e70 <release>
}
    80002120:	60e2                	ld	ra,24(sp)
    80002122:	6442                	ld	s0,16(sp)
    80002124:	64a2                	ld	s1,8(sp)
    80002126:	6105                	add	sp,sp,32
    80002128:	8082                	ret

000000008000212a <sleep>:

// Atomically release lock and sleep on chan.
// Reacquires lock when awakened.
void
sleep(void *chan, struct spinlock *lk)
{
    8000212a:	7179                	add	sp,sp,-48
    8000212c:	f406                	sd	ra,40(sp)
    8000212e:	f022                	sd	s0,32(sp)
    80002130:	ec26                	sd	s1,24(sp)
    80002132:	e84a                	sd	s2,16(sp)
    80002134:	e44e                	sd	s3,8(sp)
    80002136:	1800                	add	s0,sp,48
    80002138:	89aa                	mv	s3,a0
    8000213a:	892e                	mv	s2,a1
  struct proc *p = myproc();
    8000213c:	a21ff0ef          	jal	80001b5c <myproc>
    80002140:	84aa                	mv	s1,a0
  // Once we hold p->lock, we can be
  // guaranteed that we won't miss any wakeup
  // (wakeup locks p->lock),
  // so it's okay to release lk.

  acquire(&p->lock);  //DOC: sleeplock1
    80002142:	c97fe0ef          	jal	80000dd8 <acquire>
  release(lk);
    80002146:	854a                	mv	a0,s2
    80002148:	d29fe0ef          	jal	80000e70 <release>

  // Go to sleep.
  p->chan = chan;
    8000214c:	0334b023          	sd	s3,32(s1)
  p->state = SLEEPING;
    80002150:	4789                	li	a5,2
    80002152:	cc9c                	sw	a5,24(s1)

  sched();
    80002154:	ef1ff0ef          	jal	80002044 <sched>

  // Tidy up.
  p->chan = 0;
    80002158:	0204b023          	sd	zero,32(s1)

  // Reacquire original lock.
  release(&p->lock);
    8000215c:	8526                	mv	a0,s1
    8000215e:	d13fe0ef          	jal	80000e70 <release>
  acquire(lk);
    80002162:	854a                	mv	a0,s2
    80002164:	c75fe0ef          	jal	80000dd8 <acquire>
}
    80002168:	70a2                	ld	ra,40(sp)
    8000216a:	7402                	ld	s0,32(sp)
    8000216c:	64e2                	ld	s1,24(sp)
    8000216e:	6942                	ld	s2,16(sp)
    80002170:	69a2                	ld	s3,8(sp)
    80002172:	6145                	add	sp,sp,48
    80002174:	8082                	ret

0000000080002176 <wakeup>:

// Wake up all processes sleeping on chan.
// Must be called without any p->lock.
void
wakeup(void *chan)
{
    80002176:	7139                	add	sp,sp,-64
    80002178:	fc06                	sd	ra,56(sp)
    8000217a:	f822                	sd	s0,48(sp)
    8000217c:	f426                	sd	s1,40(sp)
    8000217e:	f04a                	sd	s2,32(sp)
    80002180:	ec4e                	sd	s3,24(sp)
    80002182:	e852                	sd	s4,16(sp)
    80002184:	e456                	sd	s5,8(sp)
    80002186:	0080                	add	s0,sp,64
    80002188:	8a2a                	mv	s4,a0
  struct proc *p;

  for(p = proc; p < &proc[NPROC]; p++) {
    8000218a:	00018497          	auipc	s1,0x18
    8000218e:	a9648493          	add	s1,s1,-1386 # 80019c20 <proc>
    if(p != myproc()){
      acquire(&p->lock);
      if(p->state == SLEEPING && p->chan == chan) {
    80002192:	4989                	li	s3,2
        p->state = RUNNABLE;
    80002194:	4a8d                	li	s5,3
  for(p = proc; p < &proc[NPROC]; p++) {
    80002196:	0001d917          	auipc	s2,0x1d
    8000219a:	48a90913          	add	s2,s2,1162 # 8001f620 <tickslock>
    8000219e:	a801                	j	800021ae <wakeup+0x38>
      }
      release(&p->lock);
    800021a0:	8526                	mv	a0,s1
    800021a2:	ccffe0ef          	jal	80000e70 <release>
  for(p = proc; p < &proc[NPROC]; p++) {
    800021a6:	16848493          	add	s1,s1,360
    800021aa:	03248263          	beq	s1,s2,800021ce <wakeup+0x58>
    if(p != myproc()){
    800021ae:	9afff0ef          	jal	80001b5c <myproc>
    800021b2:	fea48ae3          	beq	s1,a0,800021a6 <wakeup+0x30>
      acquire(&p->lock);
    800021b6:	8526                	mv	a0,s1
    800021b8:	c21fe0ef          	jal	80000dd8 <acquire>
      if(p->state == SLEEPING && p->chan == chan) {
    800021bc:	4c9c                	lw	a5,24(s1)
    800021be:	ff3791e3          	bne	a5,s3,800021a0 <wakeup+0x2a>
    800021c2:	709c                	ld	a5,32(s1)
    800021c4:	fd479ee3          	bne	a5,s4,800021a0 <wakeup+0x2a>
        p->state = RUNNABLE;
    800021c8:	0154ac23          	sw	s5,24(s1)
    800021cc:	bfd1                	j	800021a0 <wakeup+0x2a>
    }
  }
}
    800021ce:	70e2                	ld	ra,56(sp)
    800021d0:	7442                	ld	s0,48(sp)
    800021d2:	74a2                	ld	s1,40(sp)
    800021d4:	7902                	ld	s2,32(sp)
    800021d6:	69e2                	ld	s3,24(sp)
    800021d8:	6a42                	ld	s4,16(sp)
    800021da:	6aa2                	ld	s5,8(sp)
    800021dc:	6121                	add	sp,sp,64
    800021de:	8082                	ret

00000000800021e0 <reparent>:
{
    800021e0:	7179                	add	sp,sp,-48
    800021e2:	f406                	sd	ra,40(sp)
    800021e4:	f022                	sd	s0,32(sp)
    800021e6:	ec26                	sd	s1,24(sp)
    800021e8:	e84a                	sd	s2,16(sp)
    800021ea:	e44e                	sd	s3,8(sp)
    800021ec:	e052                	sd	s4,0(sp)
    800021ee:	1800                	add	s0,sp,48
    800021f0:	892a                	mv	s2,a0
  for(pp = proc; pp < &proc[NPROC]; pp++){
    800021f2:	00018497          	auipc	s1,0x18
    800021f6:	a2e48493          	add	s1,s1,-1490 # 80019c20 <proc>
      pp->parent = initproc;
    800021fa:	0000fa17          	auipc	s4,0xf
    800021fe:	46ea0a13          	add	s4,s4,1134 # 80011668 <initproc>
  for(pp = proc; pp < &proc[NPROC]; pp++){
    80002202:	0001d997          	auipc	s3,0x1d
    80002206:	41e98993          	add	s3,s3,1054 # 8001f620 <tickslock>
    8000220a:	a029                	j	80002214 <reparent+0x34>
    8000220c:	16848493          	add	s1,s1,360
    80002210:	01348b63          	beq	s1,s3,80002226 <reparent+0x46>
    if(pp->parent == p){
    80002214:	7c9c                	ld	a5,56(s1)
    80002216:	ff279be3          	bne	a5,s2,8000220c <reparent+0x2c>
      pp->parent = initproc;
    8000221a:	000a3503          	ld	a0,0(s4)
    8000221e:	fc88                	sd	a0,56(s1)
      wakeup(initproc);
    80002220:	f57ff0ef          	jal	80002176 <wakeup>
    80002224:	b7e5                	j	8000220c <reparent+0x2c>
}
    80002226:	70a2                	ld	ra,40(sp)
    80002228:	7402                	ld	s0,32(sp)
    8000222a:	64e2                	ld	s1,24(sp)
    8000222c:	6942                	ld	s2,16(sp)
    8000222e:	69a2                	ld	s3,8(sp)
    80002230:	6a02                	ld	s4,0(sp)
    80002232:	6145                	add	sp,sp,48
    80002234:	8082                	ret

0000000080002236 <exit>:
{
    80002236:	7179                	add	sp,sp,-48
    80002238:	f406                	sd	ra,40(sp)
    8000223a:	f022                	sd	s0,32(sp)
    8000223c:	ec26                	sd	s1,24(sp)
    8000223e:	e84a                	sd	s2,16(sp)
    80002240:	e44e                	sd	s3,8(sp)
    80002242:	e052                	sd	s4,0(sp)
    80002244:	1800                	add	s0,sp,48
    80002246:	8a2a                	mv	s4,a0
  struct proc *p = myproc();
    80002248:	915ff0ef          	jal	80001b5c <myproc>
    8000224c:	89aa                	mv	s3,a0
  if(p == initproc)
    8000224e:	0000f797          	auipc	a5,0xf
    80002252:	41a7b783          	ld	a5,1050(a5) # 80011668 <initproc>
    80002256:	0d050493          	add	s1,a0,208
    8000225a:	15050913          	add	s2,a0,336
    8000225e:	00a79f63          	bne	a5,a0,8000227c <exit+0x46>
    panic("init exiting");
    80002262:	0000d517          	auipc	a0,0xd
    80002266:	1e650513          	add	a0,a0,486 # 8000f448 <IP_ADDR_ANY+0x424>
    8000226a:	a72fe0ef          	jal	800004dc <panic>
      fileclose(f);
    8000226e:	70f010ef          	jal	8000417c <fileclose>
      p->ofile[fd] = 0;
    80002272:	0004b023          	sd	zero,0(s1)
  for(int fd = 0; fd < NOFILE; fd++){
    80002276:	04a1                	add	s1,s1,8
    80002278:	01248563          	beq	s1,s2,80002282 <exit+0x4c>
    if(p->ofile[fd]){
    8000227c:	6088                	ld	a0,0(s1)
    8000227e:	f965                	bnez	a0,8000226e <exit+0x38>
    80002280:	bfdd                	j	80002276 <exit+0x40>
  begin_op();
    80002282:	2e1010ef          	jal	80003d62 <begin_op>
  iput(p->cwd);
    80002286:	1509b503          	ld	a0,336(s3)
    8000228a:	3c4010ef          	jal	8000364e <iput>
  end_op();
    8000228e:	33f010ef          	jal	80003dcc <end_op>
  p->cwd = 0;
    80002292:	1409b823          	sd	zero,336(s3)
  acquire(&wait_lock);
    80002296:	00017497          	auipc	s1,0x17
    8000229a:	57248493          	add	s1,s1,1394 # 80019808 <wait_lock>
    8000229e:	8526                	mv	a0,s1
    800022a0:	b39fe0ef          	jal	80000dd8 <acquire>
  reparent(p);
    800022a4:	854e                	mv	a0,s3
    800022a6:	f3bff0ef          	jal	800021e0 <reparent>
  wakeup(p->parent);
    800022aa:	0389b503          	ld	a0,56(s3)
    800022ae:	ec9ff0ef          	jal	80002176 <wakeup>
  acquire(&p->lock);
    800022b2:	854e                	mv	a0,s3
    800022b4:	b25fe0ef          	jal	80000dd8 <acquire>
  p->xstate = status;
    800022b8:	0349a623          	sw	s4,44(s3)
  p->state = ZOMBIE;
    800022bc:	4795                	li	a5,5
    800022be:	00f9ac23          	sw	a5,24(s3)
  release(&wait_lock);
    800022c2:	8526                	mv	a0,s1
    800022c4:	badfe0ef          	jal	80000e70 <release>
  sched();
    800022c8:	d7dff0ef          	jal	80002044 <sched>
  panic("zombie exit");
    800022cc:	0000d517          	auipc	a0,0xd
    800022d0:	18c50513          	add	a0,a0,396 # 8000f458 <IP_ADDR_ANY+0x434>
    800022d4:	a08fe0ef          	jal	800004dc <panic>

00000000800022d8 <kill>:
// Kill the process with the given pid.
// The victim won't exit until it tries to return
// to user space (see usertrap() in trap.c).
int
kill(int pid)
{
    800022d8:	7179                	add	sp,sp,-48
    800022da:	f406                	sd	ra,40(sp)
    800022dc:	f022                	sd	s0,32(sp)
    800022de:	ec26                	sd	s1,24(sp)
    800022e0:	e84a                	sd	s2,16(sp)
    800022e2:	e44e                	sd	s3,8(sp)
    800022e4:	1800                	add	s0,sp,48
    800022e6:	892a                	mv	s2,a0
  struct proc *p;

  for(p = proc; p < &proc[NPROC]; p++){
    800022e8:	00018497          	auipc	s1,0x18
    800022ec:	93848493          	add	s1,s1,-1736 # 80019c20 <proc>
    800022f0:	0001d997          	auipc	s3,0x1d
    800022f4:	33098993          	add	s3,s3,816 # 8001f620 <tickslock>
    acquire(&p->lock);
    800022f8:	8526                	mv	a0,s1
    800022fa:	adffe0ef          	jal	80000dd8 <acquire>
    if(p->pid == pid){
    800022fe:	589c                	lw	a5,48(s1)
    80002300:	01278b63          	beq	a5,s2,80002316 <kill+0x3e>
        p->state = RUNNABLE;
      }
      release(&p->lock);
      return 0;
    }
    release(&p->lock);
    80002304:	8526                	mv	a0,s1
    80002306:	b6bfe0ef          	jal	80000e70 <release>
  for(p = proc; p < &proc[NPROC]; p++){
    8000230a:	16848493          	add	s1,s1,360
    8000230e:	ff3495e3          	bne	s1,s3,800022f8 <kill+0x20>
  }
  return -1;
    80002312:	557d                	li	a0,-1
    80002314:	a819                	j	8000232a <kill+0x52>
      p->killed = 1;
    80002316:	4785                	li	a5,1
    80002318:	d49c                	sw	a5,40(s1)
      if(p->state == SLEEPING){
    8000231a:	4c98                	lw	a4,24(s1)
    8000231c:	4789                	li	a5,2
    8000231e:	00f70d63          	beq	a4,a5,80002338 <kill+0x60>
      release(&p->lock);
    80002322:	8526                	mv	a0,s1
    80002324:	b4dfe0ef          	jal	80000e70 <release>
      return 0;
    80002328:	4501                	li	a0,0
}
    8000232a:	70a2                	ld	ra,40(sp)
    8000232c:	7402                	ld	s0,32(sp)
    8000232e:	64e2                	ld	s1,24(sp)
    80002330:	6942                	ld	s2,16(sp)
    80002332:	69a2                	ld	s3,8(sp)
    80002334:	6145                	add	sp,sp,48
    80002336:	8082                	ret
        p->state = RUNNABLE;
    80002338:	478d                	li	a5,3
    8000233a:	cc9c                	sw	a5,24(s1)
    8000233c:	b7dd                	j	80002322 <kill+0x4a>

000000008000233e <setkilled>:

void
setkilled(struct proc *p)
{
    8000233e:	1101                	add	sp,sp,-32
    80002340:	ec06                	sd	ra,24(sp)
    80002342:	e822                	sd	s0,16(sp)
    80002344:	e426                	sd	s1,8(sp)
    80002346:	1000                	add	s0,sp,32
    80002348:	84aa                	mv	s1,a0
  acquire(&p->lock);
    8000234a:	a8ffe0ef          	jal	80000dd8 <acquire>
  p->killed = 1;
    8000234e:	4785                	li	a5,1
    80002350:	d49c                	sw	a5,40(s1)
  release(&p->lock);
    80002352:	8526                	mv	a0,s1
    80002354:	b1dfe0ef          	jal	80000e70 <release>
}
    80002358:	60e2                	ld	ra,24(sp)
    8000235a:	6442                	ld	s0,16(sp)
    8000235c:	64a2                	ld	s1,8(sp)
    8000235e:	6105                	add	sp,sp,32
    80002360:	8082                	ret

0000000080002362 <killed>:

int
killed(struct proc *p)
{
    80002362:	1101                	add	sp,sp,-32
    80002364:	ec06                	sd	ra,24(sp)
    80002366:	e822                	sd	s0,16(sp)
    80002368:	e426                	sd	s1,8(sp)
    8000236a:	e04a                	sd	s2,0(sp)
    8000236c:	1000                	add	s0,sp,32
    8000236e:	84aa                	mv	s1,a0
  int k;
  
  acquire(&p->lock);
    80002370:	a69fe0ef          	jal	80000dd8 <acquire>
  k = p->killed;
    80002374:	0284a903          	lw	s2,40(s1)
  release(&p->lock);
    80002378:	8526                	mv	a0,s1
    8000237a:	af7fe0ef          	jal	80000e70 <release>
  return k;
}
    8000237e:	854a                	mv	a0,s2
    80002380:	60e2                	ld	ra,24(sp)
    80002382:	6442                	ld	s0,16(sp)
    80002384:	64a2                	ld	s1,8(sp)
    80002386:	6902                	ld	s2,0(sp)
    80002388:	6105                	add	sp,sp,32
    8000238a:	8082                	ret

000000008000238c <wait>:
{
    8000238c:	715d                	add	sp,sp,-80
    8000238e:	e486                	sd	ra,72(sp)
    80002390:	e0a2                	sd	s0,64(sp)
    80002392:	fc26                	sd	s1,56(sp)
    80002394:	f84a                	sd	s2,48(sp)
    80002396:	f44e                	sd	s3,40(sp)
    80002398:	f052                	sd	s4,32(sp)
    8000239a:	ec56                	sd	s5,24(sp)
    8000239c:	e85a                	sd	s6,16(sp)
    8000239e:	e45e                	sd	s7,8(sp)
    800023a0:	e062                	sd	s8,0(sp)
    800023a2:	0880                	add	s0,sp,80
    800023a4:	8b2a                	mv	s6,a0
  struct proc *p = myproc();
    800023a6:	fb6ff0ef          	jal	80001b5c <myproc>
    800023aa:	892a                	mv	s2,a0
  acquire(&wait_lock);
    800023ac:	00017517          	auipc	a0,0x17
    800023b0:	45c50513          	add	a0,a0,1116 # 80019808 <wait_lock>
    800023b4:	a25fe0ef          	jal	80000dd8 <acquire>
    havekids = 0;
    800023b8:	4b81                	li	s7,0
        if(pp->state == ZOMBIE){
    800023ba:	4a15                	li	s4,5
        havekids = 1;
    800023bc:	4a85                	li	s5,1
    for(pp = proc; pp < &proc[NPROC]; pp++){
    800023be:	0001d997          	auipc	s3,0x1d
    800023c2:	26298993          	add	s3,s3,610 # 8001f620 <tickslock>
    sleep(p, &wait_lock);  //DOC: wait-sleep
    800023c6:	00017c17          	auipc	s8,0x17
    800023ca:	442c0c13          	add	s8,s8,1090 # 80019808 <wait_lock>
    800023ce:	a871                	j	8000246a <wait+0xde>
          pid = pp->pid;
    800023d0:	0304a983          	lw	s3,48(s1)
          if(addr != 0 && copyout(p->pagetable, addr, (char *)&pp->xstate,
    800023d4:	000b0c63          	beqz	s6,800023ec <wait+0x60>
    800023d8:	4691                	li	a3,4
    800023da:	02c48613          	add	a2,s1,44
    800023de:	85da                	mv	a1,s6
    800023e0:	05093503          	ld	a0,80(s2)
    800023e4:	beaff0ef          	jal	800017ce <copyout>
    800023e8:	02054b63          	bltz	a0,8000241e <wait+0x92>
          freeproc(pp);
    800023ec:	8526                	mv	a0,s1
    800023ee:	8e1ff0ef          	jal	80001cce <freeproc>
          release(&pp->lock);
    800023f2:	8526                	mv	a0,s1
    800023f4:	a7dfe0ef          	jal	80000e70 <release>
          release(&wait_lock);
    800023f8:	00017517          	auipc	a0,0x17
    800023fc:	41050513          	add	a0,a0,1040 # 80019808 <wait_lock>
    80002400:	a71fe0ef          	jal	80000e70 <release>
}
    80002404:	854e                	mv	a0,s3
    80002406:	60a6                	ld	ra,72(sp)
    80002408:	6406                	ld	s0,64(sp)
    8000240a:	74e2                	ld	s1,56(sp)
    8000240c:	7942                	ld	s2,48(sp)
    8000240e:	79a2                	ld	s3,40(sp)
    80002410:	7a02                	ld	s4,32(sp)
    80002412:	6ae2                	ld	s5,24(sp)
    80002414:	6b42                	ld	s6,16(sp)
    80002416:	6ba2                	ld	s7,8(sp)
    80002418:	6c02                	ld	s8,0(sp)
    8000241a:	6161                	add	sp,sp,80
    8000241c:	8082                	ret
            release(&pp->lock);
    8000241e:	8526                	mv	a0,s1
    80002420:	a51fe0ef          	jal	80000e70 <release>
            release(&wait_lock);
    80002424:	00017517          	auipc	a0,0x17
    80002428:	3e450513          	add	a0,a0,996 # 80019808 <wait_lock>
    8000242c:	a45fe0ef          	jal	80000e70 <release>
            return -1;
    80002430:	59fd                	li	s3,-1
    80002432:	bfc9                	j	80002404 <wait+0x78>
    for(pp = proc; pp < &proc[NPROC]; pp++){
    80002434:	16848493          	add	s1,s1,360
    80002438:	03348063          	beq	s1,s3,80002458 <wait+0xcc>
      if(pp->parent == p){
    8000243c:	7c9c                	ld	a5,56(s1)
    8000243e:	ff279be3          	bne	a5,s2,80002434 <wait+0xa8>
        acquire(&pp->lock);
    80002442:	8526                	mv	a0,s1
    80002444:	995fe0ef          	jal	80000dd8 <acquire>
        if(pp->state == ZOMBIE){
    80002448:	4c9c                	lw	a5,24(s1)
    8000244a:	f94783e3          	beq	a5,s4,800023d0 <wait+0x44>
        release(&pp->lock);
    8000244e:	8526                	mv	a0,s1
    80002450:	a21fe0ef          	jal	80000e70 <release>
        havekids = 1;
    80002454:	8756                	mv	a4,s5
    80002456:	bff9                	j	80002434 <wait+0xa8>
    if(!havekids || killed(p)){
    80002458:	cf19                	beqz	a4,80002476 <wait+0xea>
    8000245a:	854a                	mv	a0,s2
    8000245c:	f07ff0ef          	jal	80002362 <killed>
    80002460:	e919                	bnez	a0,80002476 <wait+0xea>
    sleep(p, &wait_lock);  //DOC: wait-sleep
    80002462:	85e2                	mv	a1,s8
    80002464:	854a                	mv	a0,s2
    80002466:	cc5ff0ef          	jal	8000212a <sleep>
    havekids = 0;
    8000246a:	875e                	mv	a4,s7
    for(pp = proc; pp < &proc[NPROC]; pp++){
    8000246c:	00017497          	auipc	s1,0x17
    80002470:	7b448493          	add	s1,s1,1972 # 80019c20 <proc>
    80002474:	b7e1                	j	8000243c <wait+0xb0>
      release(&wait_lock);
    80002476:	00017517          	auipc	a0,0x17
    8000247a:	39250513          	add	a0,a0,914 # 80019808 <wait_lock>
    8000247e:	9f3fe0ef          	jal	80000e70 <release>
      return -1;
    80002482:	59fd                	li	s3,-1
    80002484:	b741                	j	80002404 <wait+0x78>

0000000080002486 <either_copyout>:
// Copy to either a user address, or kernel address,
// depending on usr_dst.
// Returns 0 on success, -1 on error.
int
either_copyout(int user_dst, uint64 dst, void *src, uint64 len)
{
    80002486:	7179                	add	sp,sp,-48
    80002488:	f406                	sd	ra,40(sp)
    8000248a:	f022                	sd	s0,32(sp)
    8000248c:	ec26                	sd	s1,24(sp)
    8000248e:	e84a                	sd	s2,16(sp)
    80002490:	e44e                	sd	s3,8(sp)
    80002492:	e052                	sd	s4,0(sp)
    80002494:	1800                	add	s0,sp,48
    80002496:	84aa                	mv	s1,a0
    80002498:	892e                	mv	s2,a1
    8000249a:	89b2                	mv	s3,a2
    8000249c:	8a36                	mv	s4,a3
  struct proc *p = myproc();
    8000249e:	ebeff0ef          	jal	80001b5c <myproc>
  if(user_dst){
    800024a2:	cc99                	beqz	s1,800024c0 <either_copyout+0x3a>
    return copyout(p->pagetable, dst, src, len);
    800024a4:	86d2                	mv	a3,s4
    800024a6:	864e                	mv	a2,s3
    800024a8:	85ca                	mv	a1,s2
    800024aa:	6928                	ld	a0,80(a0)
    800024ac:	b22ff0ef          	jal	800017ce <copyout>
  } else {
    memmove((char *)dst, src, len);
    return 0;
  }
}
    800024b0:	70a2                	ld	ra,40(sp)
    800024b2:	7402                	ld	s0,32(sp)
    800024b4:	64e2                	ld	s1,24(sp)
    800024b6:	6942                	ld	s2,16(sp)
    800024b8:	69a2                	ld	s3,8(sp)
    800024ba:	6a02                	ld	s4,0(sp)
    800024bc:	6145                	add	sp,sp,48
    800024be:	8082                	ret
    memmove((char *)dst, src, len);
    800024c0:	000a061b          	sext.w	a2,s4
    800024c4:	85ce                	mv	a1,s3
    800024c6:	854a                	mv	a0,s2
    800024c8:	a41fe0ef          	jal	80000f08 <memmove>
    return 0;
    800024cc:	8526                	mv	a0,s1
    800024ce:	b7cd                	j	800024b0 <either_copyout+0x2a>

00000000800024d0 <either_copyin>:
// Copy from either a user address, or kernel address,
// depending on usr_src.
// Returns 0 on success, -1 on error.
int
either_copyin(void *dst, int user_src, uint64 src, uint64 len)
{
    800024d0:	7179                	add	sp,sp,-48
    800024d2:	f406                	sd	ra,40(sp)
    800024d4:	f022                	sd	s0,32(sp)
    800024d6:	ec26                	sd	s1,24(sp)
    800024d8:	e84a                	sd	s2,16(sp)
    800024da:	e44e                	sd	s3,8(sp)
    800024dc:	e052                	sd	s4,0(sp)
    800024de:	1800                	add	s0,sp,48
    800024e0:	892a                	mv	s2,a0
    800024e2:	84ae                	mv	s1,a1
    800024e4:	89b2                	mv	s3,a2
    800024e6:	8a36                	mv	s4,a3
  struct proc *p = myproc();
    800024e8:	e74ff0ef          	jal	80001b5c <myproc>
  if(user_src){
    800024ec:	cc99                	beqz	s1,8000250a <either_copyin+0x3a>
    return copyin(p->pagetable, dst, src, len);
    800024ee:	86d2                	mv	a3,s4
    800024f0:	864e                	mv	a2,s3
    800024f2:	85ca                	mv	a1,s2
    800024f4:	6928                	ld	a0,80(a0)
    800024f6:	baeff0ef          	jal	800018a4 <copyin>
  } else {
    memmove(dst, (char*)src, len);
    return 0;
  }
}
    800024fa:	70a2                	ld	ra,40(sp)
    800024fc:	7402                	ld	s0,32(sp)
    800024fe:	64e2                	ld	s1,24(sp)
    80002500:	6942                	ld	s2,16(sp)
    80002502:	69a2                	ld	s3,8(sp)
    80002504:	6a02                	ld	s4,0(sp)
    80002506:	6145                	add	sp,sp,48
    80002508:	8082                	ret
    memmove(dst, (char*)src, len);
    8000250a:	000a061b          	sext.w	a2,s4
    8000250e:	85ce                	mv	a1,s3
    80002510:	854a                	mv	a0,s2
    80002512:	9f7fe0ef          	jal	80000f08 <memmove>
    return 0;
    80002516:	8526                	mv	a0,s1
    80002518:	b7cd                	j	800024fa <either_copyin+0x2a>

000000008000251a <procdump>:
// Print a process listing to console.  For debugging.
// Runs when user types ^P on console.
// No lock to avoid wedging a stuck machine further.
void
procdump(void)
{
    8000251a:	715d                	add	sp,sp,-80
    8000251c:	e486                	sd	ra,72(sp)
    8000251e:	e0a2                	sd	s0,64(sp)
    80002520:	fc26                	sd	s1,56(sp)
    80002522:	f84a                	sd	s2,48(sp)
    80002524:	f44e                	sd	s3,40(sp)
    80002526:	f052                	sd	s4,32(sp)
    80002528:	ec56                	sd	s5,24(sp)
    8000252a:	e85a                	sd	s6,16(sp)
    8000252c:	e45e                	sd	s7,8(sp)
    8000252e:	0880                	add	s0,sp,80
  [ZOMBIE]    "zombie"
  };
  struct proc *p;
  char *state;

  printf("\n");
    80002530:	0000e517          	auipc	a0,0xe
    80002534:	37050513          	add	a0,a0,880 # 800108a0 <IP_ADDR_ANY+0x187c>
    80002538:	f39fd0ef          	jal	80000470 <printf>
  for(p = proc; p < &proc[NPROC]; p++){
    8000253c:	00018497          	auipc	s1,0x18
    80002540:	83c48493          	add	s1,s1,-1988 # 80019d78 <proc+0x158>
    80002544:	0001d917          	auipc	s2,0x1d
    80002548:	23490913          	add	s2,s2,564 # 8001f778 <bcache+0x128>
    if(p->state == UNUSED)
      continue;
    if(p->state >= 0 && p->state < NELEM(states) && states[p->state])
    8000254c:	4b15                	li	s6,5
      state = states[p->state];
    else
      state = "???";
    8000254e:	0000d997          	auipc	s3,0xd
    80002552:	f1a98993          	add	s3,s3,-230 # 8000f468 <IP_ADDR_ANY+0x444>
    printf("%d %s %s", p->pid, state, p->name);
    80002556:	0000da97          	auipc	s5,0xd
    8000255a:	f1aa8a93          	add	s5,s5,-230 # 8000f470 <IP_ADDR_ANY+0x44c>
    printf("\n");
    8000255e:	0000ea17          	auipc	s4,0xe
    80002562:	342a0a13          	add	s4,s4,834 # 800108a0 <IP_ADDR_ANY+0x187c>
    if(p->state >= 0 && p->state < NELEM(states) && states[p->state])
    80002566:	0000fb97          	auipc	s7,0xf
    8000256a:	9dab8b93          	add	s7,s7,-1574 # 80010f40 <states.0>
    8000256e:	a829                	j	80002588 <procdump+0x6e>
    printf("%d %s %s", p->pid, state, p->name);
    80002570:	ed86a583          	lw	a1,-296(a3)
    80002574:	8556                	mv	a0,s5
    80002576:	efbfd0ef          	jal	80000470 <printf>
    printf("\n");
    8000257a:	8552                	mv	a0,s4
    8000257c:	ef5fd0ef          	jal	80000470 <printf>
  for(p = proc; p < &proc[NPROC]; p++){
    80002580:	16848493          	add	s1,s1,360
    80002584:	03248263          	beq	s1,s2,800025a8 <procdump+0x8e>
    if(p->state == UNUSED)
    80002588:	86a6                	mv	a3,s1
    8000258a:	ec04a783          	lw	a5,-320(s1)
    8000258e:	dbed                	beqz	a5,80002580 <procdump+0x66>
      state = "???";
    80002590:	864e                	mv	a2,s3
    if(p->state >= 0 && p->state < NELEM(states) && states[p->state])
    80002592:	fcfb6fe3          	bltu	s6,a5,80002570 <procdump+0x56>
    80002596:	02079713          	sll	a4,a5,0x20
    8000259a:	01d75793          	srl	a5,a4,0x1d
    8000259e:	97de                	add	a5,a5,s7
    800025a0:	6390                	ld	a2,0(a5)
    800025a2:	f679                	bnez	a2,80002570 <procdump+0x56>
      state = "???";
    800025a4:	864e                	mv	a2,s3
    800025a6:	b7e9                	j	80002570 <procdump+0x56>
  }
}
    800025a8:	60a6                	ld	ra,72(sp)
    800025aa:	6406                	ld	s0,64(sp)
    800025ac:	74e2                	ld	s1,56(sp)
    800025ae:	7942                	ld	s2,48(sp)
    800025b0:	79a2                	ld	s3,40(sp)
    800025b2:	7a02                	ld	s4,32(sp)
    800025b4:	6ae2                	ld	s5,24(sp)
    800025b6:	6b42                	ld	s6,16(sp)
    800025b8:	6ba2                	ld	s7,8(sp)
    800025ba:	6161                	add	sp,sp,80
    800025bc:	8082                	ret

00000000800025be <swtch>:
    800025be:	00153023          	sd	ra,0(a0)
    800025c2:	00253423          	sd	sp,8(a0)
    800025c6:	e900                	sd	s0,16(a0)
    800025c8:	ed04                	sd	s1,24(a0)
    800025ca:	03253023          	sd	s2,32(a0)
    800025ce:	03353423          	sd	s3,40(a0)
    800025d2:	03453823          	sd	s4,48(a0)
    800025d6:	03553c23          	sd	s5,56(a0)
    800025da:	05653023          	sd	s6,64(a0)
    800025de:	05753423          	sd	s7,72(a0)
    800025e2:	05853823          	sd	s8,80(a0)
    800025e6:	05953c23          	sd	s9,88(a0)
    800025ea:	07a53023          	sd	s10,96(a0)
    800025ee:	07b53423          	sd	s11,104(a0)
    800025f2:	0005b083          	ld	ra,0(a1)
    800025f6:	0085b103          	ld	sp,8(a1)
    800025fa:	6980                	ld	s0,16(a1)
    800025fc:	6d84                	ld	s1,24(a1)
    800025fe:	0205b903          	ld	s2,32(a1)
    80002602:	0285b983          	ld	s3,40(a1)
    80002606:	0305ba03          	ld	s4,48(a1)
    8000260a:	0385ba83          	ld	s5,56(a1)
    8000260e:	0405bb03          	ld	s6,64(a1)
    80002612:	0485bb83          	ld	s7,72(a1)
    80002616:	0505bc03          	ld	s8,80(a1)
    8000261a:	0585bc83          	ld	s9,88(a1)
    8000261e:	0605bd03          	ld	s10,96(a1)
    80002622:	0685bd83          	ld	s11,104(a1)
    80002626:	8082                	ret

0000000080002628 <trapinit>:

extern int devintr();

void
trapinit(void)
{
    80002628:	1141                	add	sp,sp,-16
    8000262a:	e406                	sd	ra,8(sp)
    8000262c:	e022                	sd	s0,0(sp)
    8000262e:	0800                	add	s0,sp,16
  initlock(&tickslock, "time");
    80002630:	0000d597          	auipc	a1,0xd
    80002634:	e8058593          	add	a1,a1,-384 # 8000f4b0 <IP_ADDR_ANY+0x48c>
    80002638:	0001d517          	auipc	a0,0x1d
    8000263c:	fe850513          	add	a0,a0,-24 # 8001f620 <tickslock>
    80002640:	f18fe0ef          	jal	80000d58 <initlock>
  initlock(&pendinglock, "softirq");
    80002644:	0000d597          	auipc	a1,0xd
    80002648:	e7458593          	add	a1,a1,-396 # 8000f4b8 <IP_ADDR_ANY+0x494>
    8000264c:	0001d517          	auipc	a0,0x1d
    80002650:	fec50513          	add	a0,a0,-20 # 8001f638 <pendinglock>
    80002654:	f04fe0ef          	jal	80000d58 <initlock>
}
    80002658:	60a2                	ld	ra,8(sp)
    8000265a:	6402                	ld	s0,0(sp)
    8000265c:	0141                	add	sp,sp,16
    8000265e:	8082                	ret

0000000080002660 <trapinithart>:

// set up to take exceptions and traps while in the kernel.
void
trapinithart(void)
{
    80002660:	1141                	add	sp,sp,-16
    80002662:	e422                	sd	s0,8(sp)
    80002664:	0800                	add	s0,sp,16
  asm volatile("csrw stvec, %0" : : "r" (x));
    80002666:	00003797          	auipc	a5,0x3
    8000266a:	eaa78793          	add	a5,a5,-342 # 80005510 <kernelvec>
    8000266e:	10579073          	csrw	stvec,a5
  w_stvec((uint64)kernelvec);
}
    80002672:	6422                	ld	s0,8(sp)
    80002674:	0141                	add	sp,sp,16
    80002676:	8082                	ret

0000000080002678 <usertrapret>:
//
// return to user space
//
void
usertrapret(void)
{
    80002678:	1141                	add	sp,sp,-16
    8000267a:	e406                	sd	ra,8(sp)
    8000267c:	e022                	sd	s0,0(sp)
    8000267e:	0800                	add	s0,sp,16
  struct proc *p = myproc();
    80002680:	cdcff0ef          	jal	80001b5c <myproc>
  asm volatile("csrr %0, sstatus" : "=r" (x) );
    80002684:	100027f3          	csrr	a5,sstatus
  w_sstatus(r_sstatus() & ~SSTATUS_SIE);
    80002688:	9bf5                	and	a5,a5,-3
  asm volatile("csrw sstatus, %0" : : "r" (x));
    8000268a:	10079073          	csrw	sstatus,a5
  // kerneltrap() to usertrap(), so turn off interrupts until
  // we're back in user space, where usertrap() is correct.
  intr_off();

  // send syscalls, interrupts, and exceptions to uservec in trampoline.S
  uint64 trampoline_uservec = TRAMPOLINE + (uservec - trampoline);
    8000268e:	0000c697          	auipc	a3,0xc
    80002692:	97268693          	add	a3,a3,-1678 # 8000e000 <_trampoline>
    80002696:	0000c717          	auipc	a4,0xc
    8000269a:	96a70713          	add	a4,a4,-1686 # 8000e000 <_trampoline>
    8000269e:	8f15                	sub	a4,a4,a3
    800026a0:	040007b7          	lui	a5,0x4000
    800026a4:	17fd                	add	a5,a5,-1 # 3ffffff <_entry-0x7c000001>
    800026a6:	07b2                	sll	a5,a5,0xc
    800026a8:	973e                	add	a4,a4,a5
  asm volatile("csrw stvec, %0" : : "r" (x));
    800026aa:	10571073          	csrw	stvec,a4
  w_stvec(trampoline_uservec);

  // set up trapframe values that uservec will need when
  // the process next traps into the kernel.
  p->trapframe->kernel_satp = r_satp();         // kernel page table
    800026ae:	6d38                	ld	a4,88(a0)
  asm volatile("csrr %0, satp" : "=r" (x) );
    800026b0:	18002673          	csrr	a2,satp
    800026b4:	e310                	sd	a2,0(a4)
  p->trapframe->kernel_sp = p->kstack + PGSIZE; // process's kernel stack
    800026b6:	6d30                	ld	a2,88(a0)
    800026b8:	6138                	ld	a4,64(a0)
    800026ba:	6585                	lui	a1,0x1
    800026bc:	972e                	add	a4,a4,a1
    800026be:	e618                	sd	a4,8(a2)
  p->trapframe->kernel_trap = (uint64)usertrap;
    800026c0:	6d38                	ld	a4,88(a0)
    800026c2:	00000617          	auipc	a2,0x0
    800026c6:	18c60613          	add	a2,a2,396 # 8000284e <usertrap>
    800026ca:	eb10                	sd	a2,16(a4)
  p->trapframe->kernel_hartid = r_tp();         // hartid for cpuid()
    800026cc:	6d38                	ld	a4,88(a0)
  asm volatile("mv %0, tp" : "=r" (x) );
    800026ce:	8612                	mv	a2,tp
    800026d0:	f310                	sd	a2,32(a4)
  asm volatile("csrr %0, sstatus" : "=r" (x) );
    800026d2:	10002773          	csrr	a4,sstatus
  // set up the registers that trampoline.S's sret will use
  // to get to user space.
  
  // set S Previous Privilege mode to User.
  unsigned long x = r_sstatus();
  x &= ~SSTATUS_SPP; // clear SPP to 0 for user mode
    800026d6:	eff77713          	and	a4,a4,-257
  x |= SSTATUS_SPIE; // enable interrupts in user mode
    800026da:	02076713          	or	a4,a4,32
  asm volatile("csrw sstatus, %0" : : "r" (x));
    800026de:	10071073          	csrw	sstatus,a4
  w_sstatus(x);

  // set S Exception Program Counter to the saved user pc.
  w_sepc(p->trapframe->epc);
    800026e2:	6d38                	ld	a4,88(a0)
  asm volatile("csrw sepc, %0" : : "r" (x));
    800026e4:	6f18                	ld	a4,24(a4)
    800026e6:	14171073          	csrw	sepc,a4

  // tell trampoline.S the user page table to switch to.
  uint64 satp = MAKE_SATP(p->pagetable);
    800026ea:	6928                	ld	a0,80(a0)
    800026ec:	8131                	srl	a0,a0,0xc

  // jump to userret in trampoline.S at the top of memory, which 
  // switches to the user page table, restores user registers,
  // and switches to user mode with sret.
  uint64 trampoline_userret = TRAMPOLINE + (userret - trampoline);
    800026ee:	0000c717          	auipc	a4,0xc
    800026f2:	9ae70713          	add	a4,a4,-1618 # 8000e09c <userret>
    800026f6:	8f15                	sub	a4,a4,a3
    800026f8:	97ba                	add	a5,a5,a4
  ((void (*)(uint64))trampoline_userret)(satp);
    800026fa:	577d                	li	a4,-1
    800026fc:	177e                	sll	a4,a4,0x3f
    800026fe:	8d59                	or	a0,a0,a4
    80002700:	9782                	jalr	a5
}
    80002702:	60a2                	ld	ra,8(sp)
    80002704:	6402                	ld	s0,0(sp)
    80002706:	0141                	add	sp,sp,16
    80002708:	8082                	ret

000000008000270a <clockintr>:
  w_sstatus(sstatus);
}

void
clockintr()
{
    8000270a:	1101                	add	sp,sp,-32
    8000270c:	ec06                	sd	ra,24(sp)
    8000270e:	e822                	sd	s0,16(sp)
    80002710:	1000                	add	s0,sp,32
  if(cpuid() == 0){
    80002712:	c1eff0ef          	jal	80001b30 <cpuid>
    80002716:	cd11                	beqz	a0,80002732 <clockintr+0x28>
  asm volatile("csrr %0, time" : "=r" (x) );
    80002718:	c01027f3          	rdtime	a5
  }

  // ask for the next timer interrupt. this also clears
  // the interrupt request. 1000000 is about a tenth
  // of a second.
  w_stimecmp(r_time() + 1000000);
    8000271c:	000f4737          	lui	a4,0xf4
    80002720:	24070713          	add	a4,a4,576 # f4240 <_entry-0x7ff0bdc0>
    80002724:	97ba                	add	a5,a5,a4
  asm volatile("csrw 0x14d, %0" : : "r" (x));
    80002726:	14d79073          	csrw	stimecmp,a5
}
    8000272a:	60e2                	ld	ra,24(sp)
    8000272c:	6442                	ld	s0,16(sp)
    8000272e:	6105                	add	sp,sp,32
    80002730:	8082                	ret
    80002732:	e426                	sd	s1,8(sp)
    acquire(&tickslock);
    80002734:	0001d497          	auipc	s1,0x1d
    80002738:	eec48493          	add	s1,s1,-276 # 8001f620 <tickslock>
    8000273c:	8526                	mv	a0,s1
    8000273e:	e9afe0ef          	jal	80000dd8 <acquire>
    ticks++;
    80002742:	0000f517          	auipc	a0,0xf
    80002746:	f3650513          	add	a0,a0,-202 # 80011678 <ticks>
    8000274a:	411c                	lw	a5,0(a0)
    8000274c:	2785                	addw	a5,a5,1
    8000274e:	c11c                	sw	a5,0(a0)
    wakeup(&ticks);
    80002750:	a27ff0ef          	jal	80002176 <wakeup>
    release(&tickslock);
    80002754:	8526                	mv	a0,s1
    80002756:	f1afe0ef          	jal	80000e70 <release>
    net_timer_handler();
    8000275a:	197040ef          	jal	800070f0 <net_timer_handler>
    8000275e:	64a2                	ld	s1,8(sp)
    80002760:	bf65                	j	80002718 <clockintr+0xe>

0000000080002762 <softintr>:

void
softintr()
{
    80002762:	1101                	add	sp,sp,-32
    80002764:	ec06                	sd	ra,24(sp)
    80002766:	e822                	sd	s0,16(sp)
    80002768:	e426                	sd	s1,8(sp)
    8000276a:	e04a                	sd	s2,0(sp)
    8000276c:	1000                	add	s0,sp,32
  acquire(&pendinglock);
    8000276e:	0001d917          	auipc	s2,0x1d
    80002772:	eca90913          	add	s2,s2,-310 # 8001f638 <pendinglock>
    80002776:	854a                	mv	a0,s2
    80002778:	e60fe0ef          	jal	80000dd8 <acquire>
  uint64 irqs = pending;
    8000277c:	0000f797          	auipc	a5,0xf
    80002780:	ef478793          	add	a5,a5,-268 # 80011670 <pending>
    80002784:	6384                	ld	s1,0(a5)
  pending = 0;
    80002786:	0007b023          	sd	zero,0(a5)
  release(&pendinglock);
    8000278a:	854a                	mv	a0,s2
    8000278c:	ee4fe0ef          	jal	80000e70 <release>

  if(irqs & SOFT_IRQ_NET_RX) {
    80002790:	0024f793          	and	a5,s1,2
    80002794:	ef91                	bnez	a5,800027b0 <softintr+0x4e>
    net_softirq_handler();
  }
  if(irqs & SOFT_IRQ_NET_EVENT) {
    80002796:	8891                	and	s1,s1,4
    80002798:	ec99                	bnez	s1,800027b6 <softintr+0x54>
  asm volatile("csrr %0, sip" : "=r" (x) );
    8000279a:	144027f3          	csrr	a5,sip
    net_event_handler();
  }

  w_sip(r_sip() & ~SIP_SSIP);
    8000279e:	9bf5                	and	a5,a5,-3
  asm volatile("csrw sip, %0" : : "r" (x));
    800027a0:	14479073          	csrw	sip,a5
}
    800027a4:	60e2                	ld	ra,24(sp)
    800027a6:	6442                	ld	s0,16(sp)
    800027a8:	64a2                	ld	s1,8(sp)
    800027aa:	6902                	ld	s2,0(sp)
    800027ac:	6105                	add	sp,sp,32
    800027ae:	8082                	ret
    net_softirq_handler();
    800027b0:	335040ef          	jal	800072e4 <net_softirq_handler>
    800027b4:	b7cd                	j	80002796 <softintr+0x34>
    net_event_handler();
    800027b6:	459040ef          	jal	8000740e <net_event_handler>
    800027ba:	b7c5                	j	8000279a <softintr+0x38>

00000000800027bc <devintr>:
// returns 2 if timer interrupt,
// 1 if other device,
// 0 if not recognized.
int
devintr()
{
    800027bc:	1101                	add	sp,sp,-32
    800027be:	ec06                	sd	ra,24(sp)
    800027c0:	e822                	sd	s0,16(sp)
    800027c2:	1000                	add	s0,sp,32
  asm volatile("csrr %0, scause" : "=r" (x) );
    800027c4:	14202773          	csrr	a4,scause
  uint64 scause = r_scause();

  if(scause == 0x8000000000000009L){
    800027c8:	57fd                	li	a5,-1
    800027ca:	17fe                	sll	a5,a5,0x3f
    800027cc:	07a5                	add	a5,a5,9
    800027ce:	02f70163          	beq	a4,a5,800027f0 <devintr+0x34>
    // now allowed to interrupt again.
    if(irq)
      plic_complete(irq);

    return 1;
  } else if(scause == 0x8000000000000001L){
    800027d2:	57fd                	li	a5,-1
    800027d4:	17fe                	sll	a5,a5,0x3f
    800027d6:	0785                	add	a5,a5,1
    800027d8:	06f70363          	beq	a4,a5,8000283e <devintr+0x82>
    // software interrupt.
    softintr();
    return 1;
  } else if(scause == 0x8000000000000005L){
    800027dc:	57fd                	li	a5,-1
    800027de:	17fe                	sll	a5,a5,0x3f
    800027e0:	0795                	add	a5,a5,5
    // timer interrupt.
    clockintr();
    return 2;
  } else {
    return 0;
    800027e2:	4501                	li	a0,0
  } else if(scause == 0x8000000000000005L){
    800027e4:	06f70163          	beq	a4,a5,80002846 <devintr+0x8a>
  }
}
    800027e8:	60e2                	ld	ra,24(sp)
    800027ea:	6442                	ld	s0,16(sp)
    800027ec:	6105                	add	sp,sp,32
    800027ee:	8082                	ret
    800027f0:	e426                	sd	s1,8(sp)
    int irq = plic_claim();
    800027f2:	5d1020ef          	jal	800055c2 <plic_claim>
    800027f6:	84aa                	mv	s1,a0
    if(irq == UART0_IRQ){
    800027f8:	47a9                	li	a5,10
    800027fa:	00f50c63          	beq	a0,a5,80002812 <devintr+0x56>
    } else if(irq == VIRTIO0_IRQ){
    800027fe:	4785                	li	a5,1
    80002800:	02f50163          	beq	a0,a5,80002822 <devintr+0x66>
    } else if(irq == VIRTIO1_IRQ){
    80002804:	4789                	li	a5,2
    80002806:	02f50163          	beq	a0,a5,80002828 <devintr+0x6c>
    return 1;
    8000280a:	4505                	li	a0,1
    } else if(irq){
    8000280c:	e08d                	bnez	s1,8000282e <devintr+0x72>
    8000280e:	64a2                	ld	s1,8(sp)
    80002810:	bfe1                	j	800027e8 <devintr+0x2c>
      uartintr();
    80002812:	bd8fe0ef          	jal	80000bea <uartintr>
      plic_complete(irq);
    80002816:	8526                	mv	a0,s1
    80002818:	5cb020ef          	jal	800055e2 <plic_complete>
    return 1;
    8000281c:	4505                	li	a0,1
    8000281e:	64a2                	ld	s1,8(sp)
    80002820:	b7e1                	j	800027e8 <devintr+0x2c>
      virtio_disk_intr();
    80002822:	4ba030ef          	jal	80005cdc <virtio_disk_intr>
    if(irq)
    80002826:	bfc5                	j	80002816 <devintr+0x5a>
      virtio_net_intr();
    80002828:	1f30a0ef          	jal	8000d21a <virtio_net_intr>
    if(irq)
    8000282c:	b7ed                	j	80002816 <devintr+0x5a>
      printf("unexpected interrupt irq=%d\n", irq);
    8000282e:	85a6                	mv	a1,s1
    80002830:	0000d517          	auipc	a0,0xd
    80002834:	c9050513          	add	a0,a0,-880 # 8000f4c0 <IP_ADDR_ANY+0x49c>
    80002838:	c39fd0ef          	jal	80000470 <printf>
    if(irq)
    8000283c:	bfe9                	j	80002816 <devintr+0x5a>
    softintr();
    8000283e:	f25ff0ef          	jal	80002762 <softintr>
    return 1;
    80002842:	4505                	li	a0,1
    80002844:	b755                	j	800027e8 <devintr+0x2c>
    clockintr();
    80002846:	ec5ff0ef          	jal	8000270a <clockintr>
    return 2;
    8000284a:	4509                	li	a0,2
    8000284c:	bf71                	j	800027e8 <devintr+0x2c>

000000008000284e <usertrap>:
{
    8000284e:	1101                	add	sp,sp,-32
    80002850:	ec06                	sd	ra,24(sp)
    80002852:	e822                	sd	s0,16(sp)
    80002854:	e426                	sd	s1,8(sp)
    80002856:	e04a                	sd	s2,0(sp)
    80002858:	1000                	add	s0,sp,32
  asm volatile("csrr %0, sstatus" : "=r" (x) );
    8000285a:	100027f3          	csrr	a5,sstatus
  if((r_sstatus() & SSTATUS_SPP) != 0)
    8000285e:	1007f793          	and	a5,a5,256
    80002862:	ef85                	bnez	a5,8000289a <usertrap+0x4c>
  asm volatile("csrw stvec, %0" : : "r" (x));
    80002864:	00003797          	auipc	a5,0x3
    80002868:	cac78793          	add	a5,a5,-852 # 80005510 <kernelvec>
    8000286c:	10579073          	csrw	stvec,a5
  struct proc *p = myproc();
    80002870:	aecff0ef          	jal	80001b5c <myproc>
    80002874:	84aa                	mv	s1,a0
  p->trapframe->epc = r_sepc();
    80002876:	6d3c                	ld	a5,88(a0)
  asm volatile("csrr %0, sepc" : "=r" (x) );
    80002878:	14102773          	csrr	a4,sepc
    8000287c:	ef98                	sd	a4,24(a5)
  asm volatile("csrr %0, scause" : "=r" (x) );
    8000287e:	14202773          	csrr	a4,scause
  if(r_scause() == 8){
    80002882:	47a1                	li	a5,8
    80002884:	02f70163          	beq	a4,a5,800028a6 <usertrap+0x58>
  } else if((which_dev = devintr()) != 0){
    80002888:	f35ff0ef          	jal	800027bc <devintr>
    8000288c:	892a                	mv	s2,a0
    8000288e:	c135                	beqz	a0,800028f2 <usertrap+0xa4>
  if(killed(p))
    80002890:	8526                	mv	a0,s1
    80002892:	ad1ff0ef          	jal	80002362 <killed>
    80002896:	cd1d                	beqz	a0,800028d4 <usertrap+0x86>
    80002898:	a81d                	j	800028ce <usertrap+0x80>
    panic("usertrap: not from user mode");
    8000289a:	0000d517          	auipc	a0,0xd
    8000289e:	c4650513          	add	a0,a0,-954 # 8000f4e0 <IP_ADDR_ANY+0x4bc>
    800028a2:	c3bfd0ef          	jal	800004dc <panic>
    if(killed(p))
    800028a6:	abdff0ef          	jal	80002362 <killed>
    800028aa:	e121                	bnez	a0,800028ea <usertrap+0x9c>
    p->trapframe->epc += 4;
    800028ac:	6cb8                	ld	a4,88(s1)
    800028ae:	6f1c                	ld	a5,24(a4)
    800028b0:	0791                	add	a5,a5,4
    800028b2:	ef1c                	sd	a5,24(a4)
  asm volatile("csrr %0, sstatus" : "=r" (x) );
    800028b4:	100027f3          	csrr	a5,sstatus
  w_sstatus(r_sstatus() | SSTATUS_SIE);
    800028b8:	0027e793          	or	a5,a5,2
  asm volatile("csrw sstatus, %0" : : "r" (x));
    800028bc:	10079073          	csrw	sstatus,a5
    syscall();
    800028c0:	248000ef          	jal	80002b08 <syscall>
  if(killed(p))
    800028c4:	8526                	mv	a0,s1
    800028c6:	a9dff0ef          	jal	80002362 <killed>
    800028ca:	c901                	beqz	a0,800028da <usertrap+0x8c>
    800028cc:	4901                	li	s2,0
    exit(-1);
    800028ce:	557d                	li	a0,-1
    800028d0:	967ff0ef          	jal	80002236 <exit>
  if(which_dev == 2)
    800028d4:	4789                	li	a5,2
    800028d6:	04f90563          	beq	s2,a5,80002920 <usertrap+0xd2>
  usertrapret();
    800028da:	d9fff0ef          	jal	80002678 <usertrapret>
}
    800028de:	60e2                	ld	ra,24(sp)
    800028e0:	6442                	ld	s0,16(sp)
    800028e2:	64a2                	ld	s1,8(sp)
    800028e4:	6902                	ld	s2,0(sp)
    800028e6:	6105                	add	sp,sp,32
    800028e8:	8082                	ret
      exit(-1);
    800028ea:	557d                	li	a0,-1
    800028ec:	94bff0ef          	jal	80002236 <exit>
    800028f0:	bf75                	j	800028ac <usertrap+0x5e>
  asm volatile("csrr %0, scause" : "=r" (x) );
    800028f2:	142025f3          	csrr	a1,scause
    printf("usertrap(): unexpected scause 0x%lx pid=%d\n", r_scause(), p->pid);
    800028f6:	5890                	lw	a2,48(s1)
    800028f8:	0000d517          	auipc	a0,0xd
    800028fc:	c0850513          	add	a0,a0,-1016 # 8000f500 <IP_ADDR_ANY+0x4dc>
    80002900:	b71fd0ef          	jal	80000470 <printf>
  asm volatile("csrr %0, sepc" : "=r" (x) );
    80002904:	141025f3          	csrr	a1,sepc
  asm volatile("csrr %0, stval" : "=r" (x) );
    80002908:	14302673          	csrr	a2,stval
    printf("            sepc=0x%lx stval=0x%lx\n", r_sepc(), r_stval());
    8000290c:	0000d517          	auipc	a0,0xd
    80002910:	c2450513          	add	a0,a0,-988 # 8000f530 <IP_ADDR_ANY+0x50c>
    80002914:	b5dfd0ef          	jal	80000470 <printf>
    setkilled(p);
    80002918:	8526                	mv	a0,s1
    8000291a:	a25ff0ef          	jal	8000233e <setkilled>
    8000291e:	b75d                	j	800028c4 <usertrap+0x76>
    yield();
    80002920:	fdeff0ef          	jal	800020fe <yield>
    80002924:	bf5d                	j	800028da <usertrap+0x8c>

0000000080002926 <kerneltrap>:
{
    80002926:	7179                	add	sp,sp,-48
    80002928:	f406                	sd	ra,40(sp)
    8000292a:	f022                	sd	s0,32(sp)
    8000292c:	ec26                	sd	s1,24(sp)
    8000292e:	e84a                	sd	s2,16(sp)
    80002930:	e44e                	sd	s3,8(sp)
    80002932:	1800                	add	s0,sp,48
  asm volatile("csrr %0, sepc" : "=r" (x) );
    80002934:	14102973          	csrr	s2,sepc
  asm volatile("csrr %0, sstatus" : "=r" (x) );
    80002938:	100024f3          	csrr	s1,sstatus
  asm volatile("csrr %0, scause" : "=r" (x) );
    8000293c:	142029f3          	csrr	s3,scause
  if((sstatus & SSTATUS_SPP) == 0)
    80002940:	1004f793          	and	a5,s1,256
    80002944:	c795                	beqz	a5,80002970 <kerneltrap+0x4a>
  asm volatile("csrr %0, sstatus" : "=r" (x) );
    80002946:	100027f3          	csrr	a5,sstatus
  return (x & SSTATUS_SIE) != 0;
    8000294a:	8b89                	and	a5,a5,2
  if(intr_get() != 0)
    8000294c:	eb85                	bnez	a5,8000297c <kerneltrap+0x56>
  if((which_dev = devintr()) == 0){
    8000294e:	e6fff0ef          	jal	800027bc <devintr>
    80002952:	c91d                	beqz	a0,80002988 <kerneltrap+0x62>
  if(which_dev == 2 && myproc() != 0)
    80002954:	4789                	li	a5,2
    80002956:	04f50a63          	beq	a0,a5,800029aa <kerneltrap+0x84>
  asm volatile("csrw sepc, %0" : : "r" (x));
    8000295a:	14191073          	csrw	sepc,s2
  asm volatile("csrw sstatus, %0" : : "r" (x));
    8000295e:	10049073          	csrw	sstatus,s1
}
    80002962:	70a2                	ld	ra,40(sp)
    80002964:	7402                	ld	s0,32(sp)
    80002966:	64e2                	ld	s1,24(sp)
    80002968:	6942                	ld	s2,16(sp)
    8000296a:	69a2                	ld	s3,8(sp)
    8000296c:	6145                	add	sp,sp,48
    8000296e:	8082                	ret
    panic("kerneltrap: not from supervisor mode");
    80002970:	0000d517          	auipc	a0,0xd
    80002974:	be850513          	add	a0,a0,-1048 # 8000f558 <IP_ADDR_ANY+0x534>
    80002978:	b65fd0ef          	jal	800004dc <panic>
    panic("kerneltrap: interrupts enabled");
    8000297c:	0000d517          	auipc	a0,0xd
    80002980:	c0450513          	add	a0,a0,-1020 # 8000f580 <IP_ADDR_ANY+0x55c>
    80002984:	b59fd0ef          	jal	800004dc <panic>
  asm volatile("csrr %0, sepc" : "=r" (x) );
    80002988:	14102673          	csrr	a2,sepc
  asm volatile("csrr %0, stval" : "=r" (x) );
    8000298c:	143026f3          	csrr	a3,stval
    printf("scause=0x%lx sepc=0x%lx stval=0x%lx\n", scause, r_sepc(), r_stval());
    80002990:	85ce                	mv	a1,s3
    80002992:	0000d517          	auipc	a0,0xd
    80002996:	c0e50513          	add	a0,a0,-1010 # 8000f5a0 <IP_ADDR_ANY+0x57c>
    8000299a:	ad7fd0ef          	jal	80000470 <printf>
    panic("kerneltrap");
    8000299e:	0000d517          	auipc	a0,0xd
    800029a2:	c2a50513          	add	a0,a0,-982 # 8000f5c8 <IP_ADDR_ANY+0x5a4>
    800029a6:	b37fd0ef          	jal	800004dc <panic>
  if(which_dev == 2 && myproc() != 0)
    800029aa:	9b2ff0ef          	jal	80001b5c <myproc>
    800029ae:	d555                	beqz	a0,8000295a <kerneltrap+0x34>
    yield();
    800029b0:	f4eff0ef          	jal	800020fe <yield>
    800029b4:	b75d                	j	8000295a <kerneltrap+0x34>

00000000800029b6 <argraw>:
  return strlen(buf);
}

static uint64
argraw(int n)
{
    800029b6:	1101                	add	sp,sp,-32
    800029b8:	ec06                	sd	ra,24(sp)
    800029ba:	e822                	sd	s0,16(sp)
    800029bc:	e426                	sd	s1,8(sp)
    800029be:	1000                	add	s0,sp,32
    800029c0:	84aa                	mv	s1,a0
  struct proc *p = myproc();
    800029c2:	99aff0ef          	jal	80001b5c <myproc>
  switch (n) {
    800029c6:	4795                	li	a5,5
    800029c8:	0497e163          	bltu	a5,s1,80002a0a <argraw+0x54>
    800029cc:	048a                	sll	s1,s1,0x2
    800029ce:	0000e717          	auipc	a4,0xe
    800029d2:	5a270713          	add	a4,a4,1442 # 80010f70 <states.0+0x30>
